 try_1stSFML_GAME

 Timestamp is 5fdcc191 (Fri Dec 18 21:49:53 2020)

 Preferred load address is 0000000140000000

 Start         Length     Name                   Class
 0001:00000000 00000020H .text$di                CODE
 0001:00000020 00028290H .text$mn                CODE
 0001:000282b0 00000040H .text$mn$00             CODE
 0001:000282f0 000024f0H .text$x                 CODE
 0001:0002a7e0 00000015H .text$yd                CODE
 0002:00000000 00000828H .idata$5                DATA
 0002:00000828 00000028H .00cfg                  DATA
 0002:00000850 00000008H .CRT$XCA                DATA
 0002:00000858 00000008H .CRT$XCAA               DATA
 0002:00000860 00000008H .CRT$XCL                DATA
 0002:00000868 00000008H .CRT$XCZ                DATA
 0002:00000870 00000008H .CRT$XIA                DATA
 0002:00000878 00000008H .CRT$XIAA               DATA
 0002:00000880 00000008H .CRT$XIAC               DATA
 0002:00000888 00000008H .CRT$XIZ                DATA
 0002:00000890 00000008H .CRT$XPA                DATA
 0002:00000898 00000008H .CRT$XPZ                DATA
 0002:000008a0 00000008H .CRT$XTA                DATA
 0002:000008a8 00000008H .CRT$XTZ                DATA
 0002:000008b0 00000000H .gehcont$y              DATA
 0002:000008b0 00000000H .gfids$y                DATA
 0002:000008b0 00007a50H .rdata                  DATA
 0002:00008300 00000000H .rdata$CastGuardVftablesA DATA
 0002:00008300 00000000H .rdata$CastGuardVftablesC DATA
 0002:00008300 00000fecH .rdata$r                DATA
 0002:000092ec 0000039cH .rdata$zzzdbg           DATA
 0002:00009688 00000008H .rtc$IAA                DATA
 0002:00009690 00000000H .rtc$IMZ                DATA
 0002:00009690 00000008H .rtc$IZZ                DATA
 0002:00009698 00000008H .rtc$TAA                DATA
 0002:000096a0 00000000H .rtc$TMZ                DATA
 0002:000096a0 00000008H .rtc$TZZ                DATA
 0002:000096a8 000015f8H .xdata                  DATA
 0002:0000aca0 0000014cH .xdata$x                DATA
 0002:0000adec 00000000H .edata                  DATA
 0002:0000adec 000000b4H .idata$2                DATA
 0002:0000aea0 00000018H .idata$3                DATA
 0002:0000aeb8 00000828H .idata$4                DATA
 0002:0000b6e0 00002774H .idata$6                DATA
 0003:00000000 00000068H .data                   DATA
 0003:00000068 000000c8H .data$r                 DATA
 0003:00000130 00000540H .data$rs                DATA
 0003:00000670 00000644H .bss                    DATA
 0004:00000000 00002e98H .pdata                  DATA
 0005:00000000 00000289H .msvcjmc                DATA
 0006:00000000 00000060H .rsrc$01                DATA
 0006:00000060 00000180H .rsrc$02                DATA

  Address         Publics by Value              Rva+Base               Lib:Object

 0000:00000000       __arm64x_redirection_metadata 0000000000000000     <absolute>
 0000:00000000       __guard_iat_table          0000000000000000     <absolute>
 0000:00000000       __x64_code_ranges_to_entry_points_count 0000000000000000     <absolute>
 0000:00000000       __guard_fids_table         0000000000000000     <absolute>
 0000:00000000       ___safe_se_handler_table   0000000000000000     <absolute>
 0000:00000000       __guard_longjmp_table      0000000000000000     <absolute>
 0000:00000000       __x64_code_ranges_to_entry_points 0000000000000000     <absolute>
 0000:00000000       __AbsoluteZero             0000000000000000     <absolute>
 0000:00000000       __guard_fids_count         0000000000000000     <absolute>
 0000:00000000       __guard_iat_count          0000000000000000     <absolute>
 0000:00000000       __guard_longjmp_count      0000000000000000     <absolute>
 0000:00000000       __arm64x_redirection_metadata_count 0000000000000000     <absolute>
 0000:00000000       __enclave_config           0000000000000000     <absolute>
 0000:00000000       __arm64x_extra_rfe_table   0000000000000000     <absolute>
 0000:00000000       __dynamic_value_reloc_table 0000000000000000     <absolute>
 0000:00000000       __hybrid_code_map          0000000000000000     <absolute>
 0000:00000000       __guard_eh_cont_table      0000000000000000     <absolute>
 0000:00000000       __volatile_metadata        0000000000000000     <absolute>
 0000:00000000       __arm64x_extra_rfe_table_size 0000000000000000     <absolute>
 0000:00000000       ___safe_se_handler_count   0000000000000000     <absolute>
 0000:00000000       __arm64x_native_entrypoint 0000000000000000     <absolute>
 0000:00000000       __hybrid_code_map_count    0000000000000000     <absolute>
 0000:00000000       __hybrid_auxiliary_iat     0000000000000000     <absolute>
 0000:00000000       __guard_eh_cont_count      0000000000000000     <absolute>
 0000:00000100       __guard_flags              0000000000000100     <absolute>
 0000:00000000       __ImageBase                0000000140000000     <linker-defined>
 0001:00000020       ??$?0$$V@?$_Compressed_pair@V?$allocator@D@std@@V?$_String_val@U?$_Simple_types@D@std@@@2@$00@std@@QEAA@U_Zero_then_variadic_args_t@1@@Z 0000000140001020 f i BlueEnemy.obj
 0001:00000070       ??$?0D@?$allocator@U_Container_proxy@std@@@std@@QEAA@AEBV?$allocator@D@1@@Z 0000000140001070 f i BlueEnemy.obj
 0001:000000b0       ??$?6U?$char_traits@D@std@@@std@@YAAEAV?$basic_ostream@DU?$char_traits@D@std@@@0@AEAV10@PEBD@Z 00000001400010b0 f i BlueEnemy.obj
 0001:000004f0       ??$_Allocate@$0BA@U_Default_allocate_traits@std@@$0A@@std@@YAPEAX_K@Z 00000001400014f0 f i BlueEnemy.obj
 0001:00000550       ??$_Allocate_manually_vector_aligned@U_Default_allocate_traits@std@@@std@@YAPEAX_K@Z 0000000140001550 f i BlueEnemy.obj
 0001:00000680       ??$_Construct_in_place@PEADAEBQEAD@std@@YAXAEAPEADAEBQEAD@Z 0000000140001680 f i BlueEnemy.obj
 0001:000006f0       ??$_Construct_in_place@U_Container_proxy@std@@PEAU_Container_base12@2@@std@@YAXAEAU_Container_proxy@0@$$QEAPEAU_Container_base12@0@@Z 00000001400016f0 f i BlueEnemy.obj
 0001:00000760       ?_Get_first@?$_Compressed_pair@V?$allocator@D@std@@V?$_String_val@U?$_Simple_types@D@std@@@2@$00@std@@QEBAAEBV?$allocator@D@2@XZ 0000000140001760 f i BlueEnemy.obj
 0001:00000760       ?_Get_first@?$_Compressed_pair@V?$allocator@D@std@@V?$_String_val@U?$_Simple_types@D@std@@@2@$00@std@@QEAAAEAV?$allocator@D@2@XZ 0000000140001760 f i BlueEnemy.obj
 0001:00000760       ??$_Convert_size@_K@std@@YA_K_K@Z 0000000140001760 f i BlueEnemy.obj
 0001:00000760       ??0?$allocator@D@std@@QEAA@XZ 0000000140001760 f i BlueEnemy.obj
 0001:000007a0       ??$_Deallocate@$0BA@$0A@@std@@YAXPEAX_K@Z 00000001400017a0 f i BlueEnemy.obj
 0001:00000800       ??$_Deallocate_plain@V?$allocator@U_Container_proxy@std@@@std@@@std@@YAXAEAV?$allocator@U_Container_proxy@std@@@0@QEAU_Container_proxy@0@@Z 0000000140001800 f i BlueEnemy.obj
 0001:00000850       ??$_Delete_plain_internal@V?$allocator@U_Container_proxy@std@@@std@@@std@@YAXAEAV?$allocator@U_Container_proxy@std@@@0@QEAU_Container_proxy@0@@Z 0000000140001850 f i BlueEnemy.obj
 0001:000008a0       ??$_Destroy_in_place@PEAD@std@@YAXAEAPEAD@Z 00000001400018a0 f i BlueEnemy.obj
 0001:000008d0       ??$_Get_size_of_n@$00@std@@YA_K_K@Z 00000001400018d0 f i BlueEnemy.obj
 0001:00000910       ??$_Get_size_of_n@$0BA@@std@@YA_K_K@Z 0000000140001910 f i BlueEnemy.obj
 0001:00000970       ??$_Reallocate_for@V<lambda_66f57f934f28d61049862f64df852ff0>@@PEBD@?$basic_string@DU?$char_traits@D@std@@V?$allocator@D@2@@std@@AEAAAEAV01@_KV<lambda_66f57f934f28d61049862f64df852ff0>@@PEBD@Z 0000000140001970 f i BlueEnemy.obj
 0001:00000b20       ??$addressof@PEAD@std@@YAPEAPEADAEAPEAD@Z 0000000140001b20 f i BlueEnemy.obj
 0001:00000b20       ??$addressof@U_Container_proxy@std@@@std@@YAPEAU_Container_proxy@0@AEAU10@@Z 0000000140001b20 f i BlueEnemy.obj
 0001:00000b20       ??$_Unfancy@D@std@@YAPEADPEAD@Z 0000000140001b20 f i BlueEnemy.obj
 0001:00000b20       ??$addressof@U_Container_base12@std@@@std@@YAPEAU_Container_base12@0@AEAU10@@Z 0000000140001b20 f i BlueEnemy.obj
 0001:00000b20       ??$_Unfancy@U_Container_proxy@std@@@std@@YAPEAU_Container_proxy@0@PEAU10@@Z 0000000140001b20 f i BlueEnemy.obj
 0001:00000b60       ??$forward@PEAU_Container_base12@std@@@std@@YA$$QEAPEAU_Container_base12@0@AEAPEAU10@@Z 0000000140001b60 f i BlueEnemy.obj
 0001:00000b60       ??$forward@AEBQEAD@std@@YAAEBQEADAEBQEAD@Z 0000000140001b60 f i BlueEnemy.obj
 0001:00000ba0       ??$max@_K@std@@YAAEB_KAEB_K0@Z 0000000140001ba0 f i BlueEnemy.obj
 0001:00000c10       ??$min@_K@std@@YAAEB_KAEB_K0@Z 0000000140001c10 f i BlueEnemy.obj
 0001:00000c80       ??0?$Rect@H@sf@@QEAA@HHHH@Z 0000000140001c80 f i BlueEnemy.obj
 0001:00000d00       ??0?$Rect@H@sf@@QEAA@XZ    0000000140001d00 f i BlueEnemy.obj
 0001:00000d70       ??0?$_Container_proxy_ptr12@V?$allocator@U_Container_proxy@std@@@std@@@std@@QEAA@AEAV?$allocator@U_Container_proxy@std@@@1@AEAU_Container_base12@1@@Z 0000000140001d70 f i BlueEnemy.obj
 0001:00000e10       ??0?$_String_val@U?$_Simple_types@D@std@@@std@@QEAA@XZ 0000000140001e10 f i BlueEnemy.obj
 0001:00000e80       ??0?$basic_string@DU?$char_traits@D@std@@V?$allocator@D@2@@std@@QEAA@QEBD@Z 0000000140001e80 f i BlueEnemy.obj
 0001:00000f90       ??0BlueEnemy@@QEAA@MM@Z    0000000140001f90 f   BlueEnemy.obj
 0001:000010a0       ??0_Bxty@?$_String_val@U?$_Simple_types@D@std@@@std@@QEAA@XZ 00000001400020a0 f i BlueEnemy.obj
 0001:000010e0       ??0_Container_base12@std@@QEAA@XZ 00000001400020e0 f i BlueEnemy.obj
 0001:00001130       ??0_Container_proxy@std@@QEAA@PEAU_Container_base12@1@@Z 0000000140002130 f i BlueEnemy.obj
 0001:00001190       ??0_Sentry_base@?$basic_ostream@DU?$char_traits@D@std@@@std@@QEAA@AEAV12@@Z 0000000140002190 f i BlueEnemy.obj
 0001:00001230       ??0bad_alloc@std@@AEAA@QEBD@Z 0000000140002230 f i BlueEnemy.obj
 0001:00001290       ??0bad_alloc@std@@QEAA@AEBV01@@Z 0000000140002290 f i BlueEnemy.obj
 0001:000012e0       ??0bad_array_new_length@std@@QEAA@AEBV01@@Z 00000001400022e0 f i BlueEnemy.obj
 0001:00001330       ??0bad_array_new_length@std@@QEAA@XZ 0000000140002330 f i BlueEnemy.obj
 0001:00001390       ??0exception@std@@QEAA@AEBV01@@Z 0000000140002390 f i BlueEnemy.obj
 0001:00001410       ??0exception@std@@QEAA@QEBDH@Z 0000000140002410 f i BlueEnemy.obj
 0001:00001490       ??0sentry@?$basic_ostream@DU?$char_traits@D@std@@@std@@QEAA@AEAV12@@Z 0000000140002490 f i BlueEnemy.obj
 0001:00001590       ??1?$_Compressed_pair@V?$allocator@D@std@@V?$_String_val@U?$_Simple_types@D@std@@@2@$00@std@@QEAA@XZ 0000000140002590 f i BlueEnemy.obj
 0001:000015d0       ??1?$_Container_proxy_ptr12@V?$allocator@U_Container_proxy@std@@@std@@@std@@QEAA@XZ 00000001400025d0 f i BlueEnemy.obj
 0001:00001630       ??1?$_String_val@U?$_Simple_types@D@std@@@std@@QEAA@XZ 0000000140002630 f i BlueEnemy.obj
 0001:00001670       ??1?$basic_string@DU?$char_traits@D@std@@V?$allocator@D@2@@std@@QEAA@XZ 0000000140002670 f i BlueEnemy.obj
 0001:00001730       ??1BlueEnemy@@UEAA@XZ      0000000140002730 f   BlueEnemy.obj
 0001:000017b0       ??1_Bxty@?$_String_val@U?$_Simple_types@D@std@@@std@@QEAA@XZ 00000001400027b0 f i BlueEnemy.obj
 0001:000017e0       ??1_Sentry_base@?$basic_ostream@DU?$char_traits@D@std@@@std@@QEAA@XZ 00000001400027e0 f i BlueEnemy.obj
 0001:00001860       ??1bad_cast@std@@UEAA@XZ   0000000140002860 f i Game.obj
 0001:00001860       ??1bad_alloc@std@@UEAA@XZ  0000000140002860 f i BlueEnemy.obj
 0001:00001890       ??1bad_array_new_length@std@@UEAA@XZ 0000000140002890 f i BlueEnemy.obj
 0001:000018c0       ??1exception@std@@UEAA@XZ  00000001400028c0 f i BlueEnemy.obj
 0001:00001910       ??1sentry@?$basic_ostream@DU?$char_traits@D@std@@@std@@QEAA@XZ 0000000140002910 f i BlueEnemy.obj
 0001:00001990       ??2@YAPEAX_KPEAX@Z         0000000140002990 f i BlueEnemy.obj
 0001:000019d0       ??Bsentry@?$basic_ostream@DU?$char_traits@D@std@@@std@@QEBA_NXZ 00000001400029d0 f i BlueEnemy.obj
 0001:00001a10       ??R<lambda_66f57f934f28d61049862f64df852ff0>@@QEBAXQEAD_KQEBD@Z 0000000140002a10 f i BlueEnemy.obj
 0001:00001a90       ??_GBlueEnemy@@UEAAPEAXI@Z 0000000140002a90 f i BlueEnemy.obj
 0001:00001a90       ??_EBlueEnemy@@UEAAPEAXI@Z 0000000140002a90 f i BlueEnemy.obj
 0001:00001af0       ??_Gbad_cast@std@@UEAAPEAXI@Z 0000000140002af0 f i Game.obj
 0001:00001af0       ??_Gbad_alloc@std@@UEAAPEAXI@Z 0000000140002af0 f i BlueEnemy.obj
 0001:00001af0       ??_Ebad_alloc@std@@UEAAPEAXI@Z 0000000140002af0 f i BlueEnemy.obj
 0001:00001af0       ??_Ebad_cast@std@@UEAAPEAXI@Z 0000000140002af0 f i Game.obj
 0001:00001b50       ??_Ebad_array_new_length@std@@UEAAPEAXI@Z 0000000140002b50 f i BlueEnemy.obj
 0001:00001b50       ??_Gbad_array_new_length@std@@UEAAPEAXI@Z 0000000140002b50 f i BlueEnemy.obj
 0001:00001bb0       ??_Eexception@std@@UEAAPEAXI@Z 0000000140002bb0 f i BlueEnemy.obj
 0001:00001bb0       ??_Gexception@std@@UEAAPEAXI@Z 0000000140002bb0 f i BlueEnemy.obj
 0001:00001c10       ?_Adjust_manually_vector_aligned@std@@YAXAEAPEAXAEA_K@Z 0000000140002c10 f i BlueEnemy.obj
 0001:00001dd0       ?_Allocate@_Default_allocate_traits@std@@SAPEAX_K@Z 0000000140002dd0 f i BlueEnemy.obj
 0001:00001e10       ?_Calculate_growth@?$basic_string@DU?$char_traits@D@std@@V?$allocator@D@2@@std@@AEBA_K_K@Z 0000000140002e10 f i BlueEnemy.obj
 0001:00001e70       ?_Calculate_growth@?$basic_string@DU?$char_traits@D@std@@V?$allocator@D@2@@std@@CA_K_K00@Z 0000000140002e70 f i BlueEnemy.obj
 0001:00001f60       ?_Getal@?$basic_string@DU?$char_traits@D@std@@V?$allocator@D@2@@std@@AEAAAEAV?$allocator@D@2@XZ 0000000140002f60 f i BlueEnemy.obj
 0001:00001f60       ?_Getal@?$basic_string@DU?$char_traits@D@std@@V?$allocator@D@2@@std@@AEBAAEBV?$allocator@D@2@XZ 0000000140002f60 f i BlueEnemy.obj
 0001:00001fa0       ?_Large_string_engaged@?$_String_val@U?$_Simple_types@D@std@@@std@@QEBA_NXZ 0000000140002fa0 f i BlueEnemy.obj
 0001:00002000       ?_Myptr@?$_String_val@U?$_Simple_types@D@std@@@std@@QEAAPEADXZ 0000000140003000 f i BlueEnemy.obj
 0001:00002070       ?_Orphan_all@_Container_base12@std@@QEAAXXZ 0000000140003070 f i BlueEnemy.obj
 0001:00002150       ?_Release@_Basic_container_proxy_ptr12@std@@QEAAXXZ 0000000140003150 f i BlueEnemy.obj
 0001:00002190       ?_Throw_bad_array_new_length@std@@YAXXZ 0000000140003190 f i BlueEnemy.obj
 0001:000021e0       ?_Tidy_deallocate@?$basic_string@DU?$char_traits@D@std@@V?$allocator@D@2@@std@@AEAAXXZ 00000001400031e0 f i BlueEnemy.obj
 0001:000022c0       ?_Tidy_init@?$basic_string@DU?$char_traits@D@std@@V?$allocator@D@2@@std@@AEAAXXZ 00000001400032c0 f i BlueEnemy.obj
 0001:00002330       ?_Xlen_string@std@@YAXXZ   0000000140003330 f i BlueEnemy.obj
 0001:00002370       ?__empty_global_delete@@YAXPEAX_K@Z 0000000140003370 f i BlueEnemy.obj
 0001:00002370       ?__global_delete@@YAXPEAX_K@Z 0000000140003370 f i BlueEnemy.obj
 0001:000023b0       ?allocate@?$allocator@D@std@@QEAAPEAD_K@Z 00000001400033b0 f i BlueEnemy.obj
 0001:00002400       ?allocate@?$allocator@U_Container_proxy@std@@@std@@QEAAPEAU_Container_proxy@2@_K@Z 0000000140003400 f i BlueEnemy.obj
 0001:00002450       ?assign@?$_Narrow_char_traits@DH@std@@SAXAEADAEBD@Z 0000000140003450 f i BlueEnemy.obj
 0001:000024a0       ?assign@?$basic_string@DU?$char_traits@D@std@@V?$allocator@D@2@@std@@QEAAAEAV12@QEBD@Z 00000001400034a0 f i BlueEnemy.obj
 0001:00002500       ?assign@?$basic_string@DU?$char_traits@D@std@@V?$allocator@D@2@@std@@QEAAAEAV12@QEBD_K@Z 0000000140003500 f i BlueEnemy.obj
 0001:000025e0       ?copy@?$_Char_traits@DH@std@@SAPEADQEADQEBD_K@Z 00000001400035e0 f i BlueEnemy.obj
 0001:00002640       ?deallocate@?$_Default_allocator_traits@V?$allocator@U_Container_proxy@std@@@std@@@std@@SAXAEAV?$allocator@U_Container_proxy@std@@@2@QEAU_Container_proxy@2@_K@Z 0000000140003640 f i BlueEnemy.obj
 0001:00002690       ?deallocate@?$allocator@D@std@@QEAAXQEAD_K@Z 0000000140003690 f i BlueEnemy.obj
 0001:000026e0       ?eof@?$_Narrow_char_traits@DH@std@@SAHXZ 00000001400036e0 f i BlueEnemy.obj
 0001:00002710       ?eq_int_type@?$_Narrow_char_traits@DH@std@@SA_NAEBH0@Z 0000000140003710 f i BlueEnemy.obj
 0001:00002770       ?getBounds@BlueEnemy@@QEBA?BV?$Rect@M@sf@@XZ 0000000140003770 f   BlueEnemy.obj
 0001:000027d0       ?getDamage@BlueEnemy@@QEBAAEBHXZ 00000001400037d0 f   BlueEnemy.obj
 0001:00002810       ?getPoints@BlueEnemy@@QEBAAEBHXZ 0000000140003810 f   BlueEnemy.obj
 0001:00002860       ?initialAnimations@BlueEnemy@@AEAAXXZ 0000000140003860 f   BlueEnemy.obj
 0001:000028b0       ?initialSprite@BlueEnemy@@AEAAXXZ 00000001400038b0 f   BlueEnemy.obj
 0001:00002980       ?initialTexture@BlueEnemy@@AEAAXXZ 0000000140003980 f   BlueEnemy.obj
 0001:00002a40       ?initialVariables@BlueEnemy@@AEAAXXZ 0000000140003a40 f   BlueEnemy.obj
 0001:00002b10       ?length@?$_Narrow_char_traits@DH@std@@SA_KQEBD@Z 0000000140003b10 f i BlueEnemy.obj
 0001:00002b70       ?max@?$numeric_limits@_J@std@@SA_JXZ 0000000140003b70 f i BlueEnemy.obj
 0001:00002bb0       ?max_size@?$_Default_allocator_traits@V?$allocator@D@std@@@std@@SA_KAEBV?$allocator@D@2@@Z 0000000140003bb0 f i BlueEnemy.obj
 0001:00002bf0       ?max_size@?$basic_string@DU?$char_traits@D@std@@V?$allocator@D@2@@std@@QEBA_KXZ 0000000140003bf0 f i BlueEnemy.obj
 0001:00002cc0       ?move@?$_Char_traits@DH@std@@SAPEADQEADQEBD_K@Z 0000000140003cc0 f i BlueEnemy.obj
 0001:00002d20       ?render@BlueEnemy@@QEAAXAEAVRenderTarget@sf@@@Z 0000000140003d20 f   BlueEnemy.obj
 0001:00002d80       ?update@BlueEnemy@@QEAAXXZ 0000000140003d80 f   BlueEnemy.obj
 0001:00002dd0       ?updateAnimations@BlueEnemy@@QEAAXXZ 0000000140003dd0 f   BlueEnemy.obj
 0001:00002ee0       ?updateMovement@BlueEnemy@@QEAAXXZ 0000000140003ee0 f   BlueEnemy.obj
 0001:00002f70       ?what@exception@std@@UEBAPEBDXZ 0000000140003f70 f i BlueEnemy.obj
 0001:00002fd0       ??$?DM@sf@@YA?AV?$Vector2@M@0@MAEBV10@@Z 0000000140003fd0 f i Bullet.obj
 0001:00003040       ??0?$Vector2@M@sf@@QEAA@MM@Z 0000000140004040 f i Bullet.obj
 0001:000030a0       ??0?$Vector2@M@sf@@QEAA@XZ 00000001400040a0 f i Bullet.obj
 0001:000030f0       ??0Bullet@@QEAA@PEAVTexture@sf@@MMMMM@Z 00000001400040f0 f   Bullet.obj
 0001:000031e0       ??1Bullet@@UEAA@XZ         00000001400041e0 f   Bullet.obj
 0001:00003240       ??_GBullet@@UEAAPEAXI@Z    0000000140004240 f i Bullet.obj
 0001:00003240       ??_EBullet@@UEAAPEAXI@Z    0000000140004240 f i Bullet.obj
 0001:000032a0       ?getBounds@Bullet@@QEBA?BV?$Rect@M@sf@@XZ 00000001400042a0 f   Bullet.obj
 0001:00003300       ?render@Bullet@@QEAAXPEAVRenderTarget@sf@@@Z 0000000140004300 f   Bullet.obj
 0001:00003360       ?update@Bullet@@QEAAXXZ    0000000140004360 f   Bullet.obj
 0001:000033d0       ??0Enemies@@QEAA@MM@Z      00000001400043d0 f   Enemies.obj
 0001:000034b0       ??1Enemies@@UEAA@XZ        00000001400044b0 f   Enemies.obj
 0001:00003530       ??_EEnemies@@UEAAPEAXI@Z   0000000140004530 f i Enemies.obj
 0001:00003530       ??_GEnemies@@UEAAPEAXI@Z   0000000140004530 f i Enemies.obj
 0001:00003590       ?getBounds@Enemies@@QEBA?BV?$Rect@M@sf@@XZ 0000000140004590 f   Enemies.obj
 0001:000035f0       ?getDamage@Enemies@@QEBAAEBHXZ 00000001400045f0 f   Enemies.obj
 0001:00003630       ?getPoints@Enemies@@QEBAAEBHXZ 0000000140004630 f   Enemies.obj
 0001:00003670       ?initialSprite@Enemies@@AEAAXXZ 0000000140004670 f   Enemies.obj
 0001:000036f0       ?initialTexture@Enemies@@AEAAXXZ 00000001400046f0 f   Enemies.obj
 0001:000037b0       ?initialVariables@Enemies@@AEAAXXZ 00000001400047b0 f   Enemies.obj
 0001:00003870       ?render@Enemies@@QEAAXAEAVRenderTarget@sf@@@Z 0000000140004870 f   Enemies.obj
 0001:000038d0       ?update@Enemies@@QEAAXXZ   00000001400048d0 f   Enemies.obj
 0001:00003930       ??$?0$$QEAV?$basic_string@DU?$char_traits@D@std@@V?$allocator@D@2@@std@@$$Z$$V@?$pair@$$CBV?$basic_string@DU?$char_traits@D@std@@V?$allocator@D@2@@std@@PEAVTexture@sf@@@std@@QEAA@Upiecewise_construct_t@1@V?$tuple@$$QEAV?$basic_string@DU?$char_traits@D@std@@V?$allocator@D@2@@std@@@1@V?$tuple@$$V@1@@Z 0000000140004930 f i Game.obj
 0001:000039c0       ??$?0$$V@?$_Compressed_pair@V?$allocator@PEAVBlueEnemy@@@std@@V?$_Vector_val@U?$_Simple_types@PEAVBlueEnemy@@@std@@@2@$00@std@@QEAA@U_Zero_then_variadic_args_t@1@@Z 00000001400049c0 f i Game.obj
 0001:000039c0       ??$?0$$V@?$_Compressed_pair@V?$allocator@PEAVEnemies@@@std@@V?$_Vector_val@U?$_Simple_types@PEAVEnemies@@@std@@@2@$00@std@@QEAA@U_Zero_then_variadic_args_t@1@@Z 00000001400049c0 f i Game.obj
 0001:000039c0       ??$?0$$V@?$_Compressed_pair@V?$allocator@PEAVShield@@@std@@V?$_Vector_val@U?$_Simple_types@PEAVShield@@@std@@@2@$00@std@@QEAA@U_Zero_then_variadic_args_t@1@@Z 00000001400049c0 f i Game.obj
 0001:000039c0       ??$?0$$V@?$_Compressed_pair@V?$allocator@PEAVRedEnemy@@@std@@V?$_Vector_val@U?$_Simple_types@PEAVRedEnemy@@@std@@@2@$00@std@@QEAA@U_Zero_then_variadic_args_t@1@@Z 00000001400049c0 f i Game.obj
 0001:000039c0       ??$?0$$V@?$_Compressed_pair@V?$allocator@V?$vector@V?$basic_string@DU?$char_traits@D@std@@V?$allocator@D@2@@std@@V?$allocator@V?$basic_string@DU?$char_traits@D@std@@V?$allocator@D@2@@std@@@2@@std@@@std@@V?$_Vector_val@U?$_Simple_types@V?$vector@V?$basic_string@DU?$char_traits@D@std@@V?$allocator@D@2@@std@@V?$allocator@V?$basic_string@DU?$char_traits@D@std@@V?$allocator@D@2@@std@@@2@@std@@@std@@@2@$00@std@@QEAA@U_Zero_then_variadic_args_t@1@@Z 00000001400049c0 f i Game.obj
 0001:000039c0       ??$?0$$V@?$_Compressed_pair@V?$allocator@PEAVBullet@@@std@@V?$_Vector_val@U?$_Simple_types@PEAVBullet@@@std@@@2@$00@std@@QEAA@U_Zero_then_variadic_args_t@1@@Z 00000001400049c0 f i Game.obj
 0001:000039c0       ??$?0$$V@?$_Compressed_pair@V?$allocator@PEAVPotion@@@std@@V?$_Vector_val@U?$_Simple_types@PEAVPotion@@@std@@@2@$00@std@@QEAA@U_Zero_then_variadic_args_t@1@@Z 00000001400049c0 f i Game.obj
 0001:000039c0       ??$?0$$V@?$_Compressed_pair@V?$allocator@V?$basic_string@DU?$char_traits@D@std@@V?$allocator@D@2@@std@@@std@@V?$_Vector_val@U?$_Simple_types@V?$basic_string@DU?$char_traits@D@std@@V?$allocator@D@2@@std@@@std@@@2@$00@std@@QEAA@U_Zero_then_variadic_args_t@1@@Z 00000001400049c0 f i Game.obj
 0001:00003a10       ??$?0$$V@?$_Compressed_pair@V?$allocator@U?$_Tree_node@U?$pair@$$CBV?$basic_string@DU?$char_traits@D@std@@V?$allocator@D@2@@std@@PEAVTexture@sf@@@std@@PEAX@std@@@std@@V?$_Tree_val@U?$_Tree_simple_types@U?$pair@$$CBV?$basic_string@DU?$char_traits@D@std@@V?$allocator@D@2@@std@@PEAVTexture@sf@@@std@@@std@@@2@$00@std@@QEAA@U_Zero_then_variadic_args_t@1@@Z 0000000140004a10 f i Game.obj
 0001:00003b20       ??$?0AEAPEAV_Facet_base@std@@@?$_Compressed_pair@U?$default_delete@V_Facet_base@std@@@std@@PEAV_Facet_base@2@$00@std@@QEAA@U_Zero_then_variadic_args_t@1@AEAPEAV_Facet_base@1@@Z 0000000140004b20 f i Game.obj
 0001:00003b80       ??$?0V?$allocator@D@std@@$$V@?$_Compressed_pair@V?$allocator@D@std@@V?$_String_val@U?$_Simple_types@D@std@@@2@$00@std@@QEAA@U_One_then_variadic_args_t@1@$$QEAV?$allocator@D@1@@Z 0000000140004b80 f i Game.obj
 0001:00003b80       ??$?0AEBV?$allocator@D@std@@$$V@?$_Compressed_pair@V?$allocator@D@std@@V?$_String_val@U?$_Simple_types@D@std@@@2@$00@std@@QEAA@U_One_then_variadic_args_t@1@AEBV?$allocator@D@1@@Z 0000000140004b80 f i Game.obj
 0001:00003b80       ??$?0AEAV?$allocator@D@std@@$$V@?$_Compressed_pair@V?$allocator@D@std@@V?$_String_val@U?$_Simple_types@D@std@@@2@$00@std@@QEAA@U_One_then_variadic_args_t@1@AEAV?$allocator@D@1@@Z 0000000140004b80 f i Game.obj
 0001:00003be0       ??$?0AEBQEAU?$_Tree_node@U?$pair@$$CBV?$basic_string@DU?$char_traits@D@std@@V?$allocator@D@2@@std@@PEAVTexture@sf@@@std@@PEAX@std@@_N$0A@@?$pair@PEAU?$_Tree_node@U?$pair@$$CBV?$basic_string@DU?$char_traits@D@std@@V?$allocator@D@2@@std@@PEAVTexture@sf@@@std@@PEAX@std@@_N@std@@QEAA@AEBQEAU?$_Tree_node@U?$pair@$$CBV?$basic_string@DU?$char_traits@D@std@@V?$allocator@D@2@@std@@PEAVTexture@sf@@@std@@PEAX@1@$$QEA_N@Z 0000000140004be0 f i Game.obj
 0001:00003be0       ??$?0PEAU?$_Tree_node@U?$pair@$$CBV?$basic_string@DU?$char_traits@D@std@@V?$allocator@D@2@@std@@PEAVTexture@sf@@@std@@PEAX@std@@_N$0A@@?$pair@PEAU?$_Tree_node@U?$pair@$$CBV?$basic_string@DU?$char_traits@D@std@@V?$allocator@D@2@@std@@PEAVTexture@sf@@@std@@PEAX@std@@_N@std@@QEAA@$$QEAPEAU?$_Tree_node@U?$pair@$$CBV?$basic_string@DU?$char_traits@D@std@@V?$allocator@D@2@@std@@PEAVTexture@sf@@@std@@PEAX@1@$$QEA_N@Z 0000000140004be0 f i Game.obj
 0001:00003c50       ??$?0AEBU?$less@V?$basic_string@DU?$char_traits@D@std@@V?$allocator@D@2@@std@@@std@@U_Zero_then_variadic_args_t@1@@?$_Compressed_pair@U?$less@V?$basic_string@DU?$char_traits@D@std@@V?$allocator@D@2@@std@@@std@@V?$_Compressed_pair@V?$allocator@U?$_Tree_node@U?$pair@$$CBV?$basic_string@DU?$char_traits@D@std@@V?$allocator@D@2@@std@@PEAVTexture@sf@@@std@@PEAX@std@@@std@@V?$_Tree_val@U?$_Tree_simple_types@U?$pair@$$CBV?$basic_string@DU?$char_traits@D@std@@V?$allocator@D@2@@std@@PEAVTexture@sf@@@std@@@std@@@2@$00@2@$00@std@@QEAA@U_One_then_variadic_args_t@1@AEBU?$less@V?$basic_string@DU?$char_traits@D@std@@V?$allocator@D@2@@std@@@1@$$QEAU_Zero_then_variadic_args_t@1@@Z 0000000140004c50 f i Game.obj
 0001:00003cc0       ??$?0AEBUpiecewise_construct_t@std@@V?$tuple@$$QEAV?$basic_string@DU?$char_traits@D@std@@V?$allocator@D@2@@std@@@1@V?$tuple@$$V@1@@?$_Tree_temp_node@V?$allocator@U?$_Tree_node@U?$pair@$$CBV?$basic_string@DU?$char_traits@D@std@@V?$allocator@D@2@@std@@PEAVTexture@sf@@@std@@PEAX@std@@@std@@@std@@QEAA@AEAV?$allocator@U?$_Tree_node@U?$pair@$$CBV?$basic_string@DU?$char_traits@D@std@@V?$allocator@D@2@@std@@PEAVTexture@sf@@@std@@PEAX@std@@@1@PEAU?$_Tree_node@U?$pair@$$CBV?$basic_string@DU?$char_traits@D@std@@V?$allocator@D@2@@std@@PEAVTexture@sf@@@std@@PEAX@1@AEBUpiecewise_construct_t@1@$$QEAV?$tuple@$$QEAV?$basic_string@DU?$char_traits@D@std@@V?$allocator@D@2@@std@@@1@$$QEAV?$tuple@$$V@1@@Z 0000000140004cc0 f i Game.obj
 0001:00003df0       ??$?0PEAD$0A@@?$basic_string@DU?$char_traits@D@std@@V?$allocator@D@2@@std@@QEAA@PEAD0AEBV?$allocator@D@1@@Z 0000000140004df0 f i Game.obj
 0001:00003f60       ??$?0U?$_Tree_node@U?$pair@$$CBV?$basic_string@DU?$char_traits@D@std@@V?$allocator@D@2@@std@@PEAVTexture@sf@@@std@@PEAX@std@@@?$allocator@U_Container_proxy@std@@@std@@QEAA@AEBV?$allocator@U?$_Tree_node@U?$pair@$$CBV?$basic_string@DU?$char_traits@D@std@@V?$allocator@D@2@@std@@PEAVTexture@sf@@@std@@PEAX@std@@@1@@Z 0000000140004f60 f i Game.obj
 0001:00003f60       ??$?0V?$vector@V?$basic_string@DU?$char_traits@D@std@@V?$allocator@D@2@@std@@V?$allocator@V?$basic_string@DU?$char_traits@D@std@@V?$allocator@D@2@@std@@@2@@std@@@?$allocator@U_Container_proxy@std@@@std@@QEAA@AEBV?$allocator@V?$vector@V?$basic_string@DU?$char_traits@D@std@@V?$allocator@D@2@@std@@V?$allocator@V?$basic_string@DU?$char_traits@D@std@@V?$allocator@D@2@@std@@@2@@std@@@1@@Z 0000000140004f60 f i Game.obj
 0001:00003f60       ??$?0V?$basic_string@DU?$char_traits@D@std@@V?$allocator@D@2@@std@@@?$allocator@U_Container_proxy@std@@@std@@QEAA@AEBV?$allocator@V?$basic_string@DU?$char_traits@D@std@@V?$allocator@D@2@@std@@@1@@Z 0000000140004f60 f i Game.obj
 0001:00003f60       ??$?0PEAVBlueEnemy@@@?$allocator@U_Container_proxy@std@@@std@@QEAA@AEBV?$allocator@PEAVBlueEnemy@@@1@@Z 0000000140004f60 f i Game.obj
 0001:00003f60       ??$?0PEAVEnemies@@@?$allocator@U_Container_proxy@std@@@std@@QEAA@AEBV?$allocator@PEAVEnemies@@@1@@Z 0000000140004f60 f i Game.obj
 0001:00003f60       ??$?0PEAVPotion@@@?$allocator@U_Container_proxy@std@@@std@@QEAA@AEBV?$allocator@PEAVPotion@@@1@@Z 0000000140004f60 f i Game.obj
 0001:00003f60       ??$?0PEAVShield@@@?$allocator@U_Container_proxy@std@@@std@@QEAA@AEBV?$allocator@PEAVShield@@@1@@Z 0000000140004f60 f i Game.obj
 0001:00003f60       ??$?0PEAVRedEnemy@@@?$allocator@U_Container_proxy@std@@@std@@QEAA@AEBV?$allocator@PEAVRedEnemy@@@1@@Z 0000000140004f60 f i Game.obj
 0001:00003f60       ??$?0PEAVBullet@@@?$allocator@U_Container_proxy@std@@@std@@QEAA@AEBV?$allocator@PEAVBullet@@@1@@Z 0000000140004f60 f i Game.obj
 0001:00003f60       ?select_on_container_copy_construction@?$_Default_allocator_traits@V?$allocator@D@std@@@std@@SA?AV?$allocator@D@2@AEBV32@@Z 0000000140004f60 f i Game.obj
 0001:00003f60       ?select_on_container_copy_construction@?$_Default_allocator_traits@V?$allocator@V?$basic_string@DU?$char_traits@D@std@@V?$allocator@D@2@@std@@@std@@@std@@SA?AV?$allocator@V?$basic_string@DU?$char_traits@D@std@@V?$allocator@D@2@@std@@@2@AEBV32@@Z 0000000140004f60 f i Game.obj
 0001:00003fa0       ??$?0U?$default_delete@V_Facet_base@std@@@std@@$0A@@?$unique_ptr@V_Facet_base@std@@U?$default_delete@V_Facet_base@std@@@2@@std@@QEAA@PEAV_Facet_base@1@@Z 0000000140004fa0 f i Game.obj
 0001:00004040       ??$?0U_Exact_args_t@std@@$0A@@?$tuple@$$V@std@@QEAA@U_Exact_args_t@1@@Z 0000000140005040 f i Game.obj
 0001:00004080       ??$?0U_Exact_args_t@std@@V?$basic_string@DU?$char_traits@D@std@@V?$allocator@D@2@@1@$$V$0A@@?$tuple@$$QEAV?$basic_string@DU?$char_traits@D@std@@V?$allocator@D@2@@std@@@std@@QEAA@U_Exact_args_t@1@$$QEAV?$basic_string@DU?$char_traits@D@std@@V?$allocator@D@2@@1@@Z 0000000140005080 f i Game.obj
 0001:000040f0       ??$?0V?$allocator@V?$basic_string@DU?$char_traits@D@std@@V?$allocator@D@2@@std@@@std@@$$V@?$_Compressed_pair@V?$allocator@V?$basic_string@DU?$char_traits@D@std@@V?$allocator@D@2@@std@@@std@@V?$_Vector_val@U?$_Simple_types@V?$basic_string@DU?$char_traits@D@std@@V?$allocator@D@2@@std@@@std@@@2@$00@std@@QEAA@U_One_then_variadic_args_t@1@$$QEAV?$allocator@V?$basic_string@DU?$char_traits@D@std@@V?$allocator@D@2@@std@@@1@@Z 00000001400050f0 f i Game.obj
 0001:00004150       ??$?0V?$basic_string@DU?$char_traits@D@std@@V?$allocator@D@2@@std@@$$V$0A@@?$tuple@$$QEAV?$basic_string@DU?$char_traits@D@std@@V?$allocator@D@2@@std@@@std@@QEAA@$$QEAV?$basic_string@DU?$char_traits@D@std@@V?$allocator@D@2@@1@@Z 0000000140005150 f i Game.obj
 0001:000041b0       ??$?0V?$basic_string@DU?$char_traits@D@std@@V?$allocator@D@2@@std@@@?$_Tuple_val@$$QEAV?$basic_string@DU?$char_traits@D@std@@V?$allocator@D@2@@std@@@std@@QEAA@$$QEAV?$basic_string@DU?$char_traits@D@std@@V?$allocator@D@2@@1@@Z 00000001400051b0 f i Game.obj
 0001:00004200       ??$?0V?$tuple@$$QEAV?$basic_string@DU?$char_traits@D@std@@V?$allocator@D@2@@std@@@std@@V?$tuple@$$V@1@$0A@$$Z$S@?$pair@$$CBV?$basic_string@DU?$char_traits@D@std@@V?$allocator@D@2@@std@@PEAVTexture@sf@@@std@@QEAA@AEAV?$tuple@$$QEAV?$basic_string@DU?$char_traits@D@std@@V?$allocator@D@2@@std@@@1@AEAV?$tuple@$$V@1@U?$integer_sequence@_K$0A@@1@U?$integer_sequence@_K$S@1@@Z 0000000140005200 f i Game.obj
 0001:00004270       ??$?5DU?$char_traits@D@std@@V?$allocator@D@1@@std@@YAAEAV?$basic_istream@DU?$char_traits@D@std@@@0@$$QEAV10@AEAV?$basic_string@DU?$char_traits@D@std@@V?$allocator@D@2@@0@@Z 0000000140005270 f i Game.obj
 0001:00004640       ??$?5DU?$char_traits@D@std@@V?$allocator@D@1@@std@@YAAEAV?$basic_istream@DU?$char_traits@D@std@@@0@AEAV10@AEAV?$basic_string@DU?$char_traits@D@std@@V?$allocator@D@2@@0@@Z 0000000140005640 f i Game.obj
 0001:00004690       ??$?6DU?$char_traits@D@std@@V?$allocator@D@1@@std@@YAAEAV?$basic_ostream@DU?$char_traits@D@std@@@0@AEAV10@AEBV?$basic_string@DU?$char_traits@D@std@@V?$allocator@D@2@@0@@Z 0000000140005690 f i Game.obj
 0001:00004700       ??$?HDU?$char_traits@D@std@@V?$allocator@D@1@@std@@YA?AV?$basic_string@DU?$char_traits@D@std@@V?$allocator@D@2@@0@$$QEAV10@0@Z 0000000140005700 f i Game.obj
 0001:00004810       ??$?HDU?$char_traits@D@std@@V?$allocator@D@1@@std@@YA?AV?$basic_string@DU?$char_traits@D@std@@V?$allocator@D@2@@0@$$QEAV10@QEBD@Z 0000000140005810 f i Game.obj
 0001:00004890       ??$?HDU?$char_traits@D@std@@V?$allocator@D@1@@std@@YA?AV?$basic_string@DU?$char_traits@D@std@@V?$allocator@D@2@@0@AEBV10@QEBD@Z 0000000140005890 f i Game.obj
 0001:00004980       ??$?MDU?$char_traits@D@std@@V?$allocator@D@1@@std@@YA_NAEBV?$basic_string@DU?$char_traits@D@std@@V?$allocator@D@2@@0@0@Z 0000000140005980 f i Game.obj
 0001:000049e0       ??$_Adl_verify_range@PEADPEAD@std@@YAXAEBQEAD0@Z 00000001400059e0 f i Game.obj
 0001:00004a80       ??$_Alloc_proxy@V?$allocator@U_Container_proxy@std@@@std@@@_Container_base12@std@@QEAAX$$QEAV?$allocator@U_Container_proxy@std@@@1@@Z 0000000140005a80 f i Game.obj
 0001:00004b10       ??$_Allocators_equal@V?$allocator@D@std@@@std@@YA_NAEBV?$allocator@D@0@0@Z 0000000140005b10 f i Game.obj
 0001:00004b50       ??$_Buyheadnode@V?$allocator@U?$_Tree_node@U?$pair@$$CBV?$basic_string@DU?$char_traits@D@std@@V?$allocator@D@2@@std@@PEAVTexture@sf@@@std@@PEAX@std@@@std@@@?$_Tree_node@U?$pair@$$CBV?$basic_string@DU?$char_traits@D@std@@V?$allocator@D@2@@std@@PEAVTexture@sf@@@std@@PEAX@std@@SAPEAU01@AEAV?$allocator@U?$_Tree_node@U?$pair@$$CBV?$basic_string@DU?$char_traits@D@std@@V?$allocator@D@2@@std@@PEAVTexture@sf@@@std@@PEAX@std@@@1@@Z 0000000140005b50 f i Game.obj
 0001:00004c20       ??$_Construct_in_place@PEAU?$_Tree_node@U?$pair@$$CBV?$basic_string@DU?$char_traits@D@std@@V?$allocator@D@2@@std@@PEAVTexture@sf@@@std@@PEAX@std@@AEAPEAU12@@std@@YAXAEAPEAU?$_Tree_node@U?$pair@$$CBV?$basic_string@DU?$char_traits@D@std@@V?$allocator@D@2@@std@@PEAVTexture@sf@@@std@@PEAX@0@0@Z 0000000140005c20 f i Game.obj
 0001:00004c20       ??$_Construct_in_place@PEAU?$_Tree_node@U?$pair@$$CBV?$basic_string@DU?$char_traits@D@std@@V?$allocator@D@2@@std@@PEAVTexture@sf@@@std@@PEAX@std@@AEBQEAU12@@std@@YAXAEAPEAU?$_Tree_node@U?$pair@$$CBV?$basic_string@DU?$char_traits@D@std@@V?$allocator@D@2@@std@@PEAVTexture@sf@@@std@@PEAX@0@AEBQEAU10@@Z 0000000140005c20 f i Game.obj
 0001:00004c90       ??$_Copy_memmove@PEAPEAVShield@@PEAPEAV1@@std@@YAPEAPEAVShield@@PEAPEAV1@00@Z 0000000140005c90 f i Game.obj
 0001:00004c90       ??$_Copy_memmove@PEAPEAVEnemies@@PEAPEAV1@@std@@YAPEAPEAVEnemies@@PEAPEAV1@00@Z 0000000140005c90 f i Game.obj
 0001:00004c90       ??$_Copy_memmove@PEAPEAVBullet@@PEAPEAV1@@std@@YAPEAPEAVBullet@@PEAPEAV1@00@Z 0000000140005c90 f i Game.obj
 0001:00004c90       ??$_Copy_memmove@PEAPEAVPotion@@PEAPEAV1@@std@@YAPEAPEAVPotion@@PEAPEAV1@00@Z 0000000140005c90 f i Game.obj
 0001:00004c90       ??$_Copy_memmove@PEAPEAVRedEnemy@@PEAPEAV1@@std@@YAPEAPEAVRedEnemy@@PEAPEAV1@00@Z 0000000140005c90 f i Game.obj
 0001:00004c90       ??$_Copy_memmove@PEAPEAVBlueEnemy@@PEAPEAV1@@std@@YAPEAPEAVBlueEnemy@@PEAPEAV1@00@Z 0000000140005c90 f i Game.obj
 0001:00004f10       ??$_Debug_lt_pred@AEBU?$less@V?$basic_string@DU?$char_traits@D@std@@V?$allocator@D@2@@std@@@std@@AEBV?$basic_string@DU?$char_traits@D@std@@V?$allocator@D@2@@2@AEBV32@$0A@@std@@YA_NAEBU?$less@V?$basic_string@DU?$char_traits@D@std@@V?$allocator@D@2@@std@@@0@AEBV?$basic_string@DU?$char_traits@D@std@@V?$allocator@D@2@@0@1@Z 0000000140005f10 f i Game.obj
 0001:00005010       ??$_Destroy_in_place@PEAU?$_Tree_node@U?$pair@$$CBV?$basic_string@DU?$char_traits@D@std@@V?$allocator@D@2@@std@@PEAVTexture@sf@@@std@@PEAX@std@@@std@@YAXAEAPEAU?$_Tree_node@U?$pair@$$CBV?$basic_string@DU?$char_traits@D@std@@V?$allocator@D@2@@std@@PEAVTexture@sf@@@std@@PEAX@0@@Z 0000000140006010 f i Game.obj
 0001:00005040       ??$_Destroy_range@V?$allocator@PEAVEnemies@@@std@@@std@@YAXPEAPEAVEnemies@@QEAPEAV1@AEAV?$allocator@PEAVEnemies@@@0@@Z 0000000140006040 f i Game.obj
 0001:00005040       ??$_Destroy_range@V?$allocator@PEAVBullet@@@std@@@std@@YAXPEAPEAVBullet@@QEAPEAV1@AEAV?$allocator@PEAVBullet@@@0@@Z 0000000140006040 f i Game.obj
 0001:00005040       ??$_Destroy_range@V?$allocator@PEAVPotion@@@std@@@std@@YAXPEAPEAVPotion@@QEAPEAV1@AEAV?$allocator@PEAVPotion@@@0@@Z 0000000140006040 f i Game.obj
 0001:00005040       ??$_Destroy_range@V?$allocator@PEAVRedEnemy@@@std@@@std@@YAXPEAPEAVRedEnemy@@QEAPEAV1@AEAV?$allocator@PEAVRedEnemy@@@0@@Z 0000000140006040 f i Game.obj
 0001:00005040       ??$_Destroy_range@V?$allocator@PEAVBlueEnemy@@@std@@@std@@YAXPEAPEAVBlueEnemy@@QEAPEAV1@AEAV?$allocator@PEAVBlueEnemy@@@0@@Z 0000000140006040 f i Game.obj
 0001:00005040       ??$_Destroy_range@V?$allocator@PEAVShield@@@std@@@std@@YAXPEAPEAVShield@@QEAPEAV1@AEAV?$allocator@PEAVShield@@@0@@Z 0000000140006040 f i Game.obj
 0001:000050f0       ??$_Destroy_range@V?$allocator@V?$basic_string@DU?$char_traits@D@std@@V?$allocator@D@2@@std@@@std@@@std@@YAXPEAV?$basic_string@DU?$char_traits@D@std@@V?$allocator@D@2@@0@QEAV10@AEAV?$allocator@V?$basic_string@DU?$char_traits@D@std@@V?$allocator@D@2@@std@@@0@@Z 00000001400060f0 f i Game.obj
 0001:00005160       ??$_Destroy_range@V?$allocator@V?$vector@V?$basic_string@DU?$char_traits@D@std@@V?$allocator@D@2@@std@@V?$allocator@V?$basic_string@DU?$char_traits@D@std@@V?$allocator@D@2@@std@@@2@@std@@@std@@@std@@YAXPEAV?$vector@V?$basic_string@DU?$char_traits@D@std@@V?$allocator@D@2@@std@@V?$allocator@V?$basic_string@DU?$char_traits@D@std@@V?$allocator@D@2@@std@@@2@@0@QEAV10@AEAV?$allocator@V?$vector@V?$basic_string@DU?$char_traits@D@std@@V?$allocator@D@2@@std@@V?$allocator@V?$basic_string@DU?$char_traits@D@std@@V?$allocator@D@2@@std@@@2@@std@@@0@@Z 0000000140006160 f i Game.obj
 0001:000051d0       ??$_Emplace_back@AEAV?$basic_string@DU?$char_traits@D@std@@V?$allocator@D@2@@std@@@?$_Uninitialized_backout_al@V?$allocator@V?$basic_string@DU?$char_traits@D@std@@V?$allocator@D@2@@std@@@std@@@std@@QEAAXAEAV?$basic_string@DU?$char_traits@D@std@@V?$allocator@D@2@@1@@Z 00000001400061d0 f i Game.obj
 0001:000052f0       ??$_Emplace_back@V?$basic_string@DU?$char_traits@D@std@@V?$allocator@D@2@@std@@@?$_Uninitialized_backout_al@V?$allocator@V?$basic_string@DU?$char_traits@D@std@@V?$allocator@D@2@@std@@@std@@@std@@QEAAX$$QEAV?$basic_string@DU?$char_traits@D@std@@V?$allocator@D@2@@1@@Z 00000001400062f0 f i Game.obj
 0001:00005380       ??$_Emplace_back@V?$vector@V?$basic_string@DU?$char_traits@D@std@@V?$allocator@D@2@@std@@V?$allocator@V?$basic_string@DU?$char_traits@D@std@@V?$allocator@D@2@@std@@@2@@std@@@?$_Uninitialized_backout_al@V?$allocator@V?$vector@V?$basic_string@DU?$char_traits@D@std@@V?$allocator@D@2@@std@@V?$allocator@V?$basic_string@DU?$char_traits@D@std@@V?$allocator@D@2@@std@@@2@@std@@@std@@@std@@QEAAX$$QEAV?$vector@V?$basic_string@DU?$char_traits@D@std@@V?$allocator@D@2@@std@@V?$allocator@V?$basic_string@DU?$char_traits@D@std@@V?$allocator@D@2@@std@@@2@@1@@Z 0000000140006380 f i Game.obj
 0001:000054e0       ??$_Emplace_back_with_unused_capacity@AEBV?$vector@V?$basic_string@DU?$char_traits@D@std@@V?$allocator@D@2@@std@@V?$allocator@V?$basic_string@DU?$char_traits@D@std@@V?$allocator@D@2@@std@@@2@@std@@@?$vector@V?$vector@V?$basic_string@DU?$char_traits@D@std@@V?$allocator@D@2@@std@@V?$allocator@V?$basic_string@DU?$char_traits@D@std@@V?$allocator@D@2@@std@@@2@@std@@V?$allocator@V?$vector@V?$basic_string@DU?$char_traits@D@std@@V?$allocator@D@2@@std@@V?$allocator@V?$basic_string@DU?$char_traits@D@std@@V?$allocator@D@2@@std@@@2@@std@@@2@@std@@AEAAXAEBV?$vector@V?$basic_string@DU?$char_traits@D@std@@V?$allocator@D@2@@std@@V?$allocator@V?$basic_string@DU?$char_traits@D@std@@V?$allocator@D@2@@std@@@2@@1@@Z 00000001400064e0 f i Game.obj
 0001:000055b0       ??$_Emplace_back_with_unused_capacity@PEAVBlueEnemy@@@?$vector@PEAVBlueEnemy@@V?$allocator@PEAVBlueEnemy@@@std@@@std@@AEAAX$$QEAPEAVBlueEnemy@@@Z 00000001400065b0 f i Game.obj
 0001:00005680       ??$_Emplace_back_with_unused_capacity@PEAVBullet@@@?$vector@PEAVBullet@@V?$allocator@PEAVBullet@@@std@@@std@@AEAAX$$QEAPEAVBullet@@@Z 0000000140006680 f i Game.obj
 0001:00005750       ??$_Emplace_back_with_unused_capacity@PEAVEnemies@@@?$vector@PEAVEnemies@@V?$allocator@PEAVEnemies@@@std@@@std@@AEAAX$$QEAPEAVEnemies@@@Z 0000000140006750 f i Game.obj
 0001:00005820       ??$_Emplace_back_with_unused_capacity@PEAVPotion@@@?$vector@PEAVPotion@@V?$allocator@PEAVPotion@@@std@@@std@@AEAAX$$QEAPEAVPotion@@@Z 0000000140006820 f i Game.obj
 0001:000058f0       ??$_Emplace_back_with_unused_capacity@PEAVRedEnemy@@@?$vector@PEAVRedEnemy@@V?$allocator@PEAVRedEnemy@@@std@@@std@@AEAAX$$QEAPEAVRedEnemy@@@Z 00000001400068f0 f i Game.obj
 0001:000059c0       ??$_Emplace_back_with_unused_capacity@PEAVShield@@@?$vector@PEAVShield@@V?$allocator@PEAVShield@@@std@@@std@@AEAAX$$QEAPEAVShield@@@Z 00000001400069c0 f i Game.obj
 0001:00005a90       ??$_Emplace_back_with_unused_capacity@V?$basic_string@DU?$char_traits@D@std@@V?$allocator@D@2@@std@@@?$vector@V?$basic_string@DU?$char_traits@D@std@@V?$allocator@D@2@@std@@V?$allocator@V?$basic_string@DU?$char_traits@D@std@@V?$allocator@D@2@@std@@@2@@std@@AEAAX$$QEAV?$basic_string@DU?$char_traits@D@std@@V?$allocator@D@2@@1@@Z 0000000140006a90 f i Game.obj
 0001:00005db0       ??$_Emplace_reallocate@AEBV?$vector@V?$basic_string@DU?$char_traits@D@std@@V?$allocator@D@2@@std@@V?$allocator@V?$basic_string@DU?$char_traits@D@std@@V?$allocator@D@2@@std@@@2@@std@@@?$vector@V?$vector@V?$basic_string@DU?$char_traits@D@std@@V?$allocator@D@2@@std@@V?$allocator@V?$basic_string@DU?$char_traits@D@std@@V?$allocator@D@2@@std@@@2@@std@@V?$allocator@V?$vector@V?$basic_string@DU?$char_traits@D@std@@V?$allocator@D@2@@std@@V?$allocator@V?$basic_string@DU?$char_traits@D@std@@V?$allocator@D@2@@std@@@2@@std@@@2@@std@@QEAAPEAV?$vector@V?$basic_string@DU?$char_traits@D@std@@V?$allocator@D@2@@std@@V?$allocator@V?$basic_string@DU?$char_traits@D@std@@V?$allocator@D@2@@std@@@2@@1@QEAV21@AEBV21@@Z 0000000140006db0 f i Game.obj
 0001:00005ff0       ??$_Emplace_reallocate@PEAVBullet@@@?$vector@PEAVBullet@@V?$allocator@PEAVBullet@@@std@@@std@@QEAAPEAPEAVBullet@@QEAPEAV2@$$QEAPEAV2@@Z 0000000140006ff0 f i Game.obj
 0001:00005ff0       ??$_Emplace_reallocate@PEAVRedEnemy@@@?$vector@PEAVRedEnemy@@V?$allocator@PEAVRedEnemy@@@std@@@std@@QEAAPEAPEAVRedEnemy@@QEAPEAV2@$$QEAPEAV2@@Z 0000000140006ff0 f i Game.obj
 0001:00005ff0       ??$_Emplace_reallocate@PEAVShield@@@?$vector@PEAVShield@@V?$allocator@PEAVShield@@@std@@@std@@QEAAPEAPEAVShield@@QEAPEAV2@$$QEAPEAV2@@Z 0000000140006ff0 f i Game.obj
 0001:00005ff0       ??$_Emplace_reallocate@PEAVBlueEnemy@@@?$vector@PEAVBlueEnemy@@V?$allocator@PEAVBlueEnemy@@@std@@@std@@QEAAPEAPEAVBlueEnemy@@QEAPEAV2@$$QEAPEAV2@@Z 0000000140006ff0 f i Game.obj
 0001:00005ff0       ??$_Emplace_reallocate@PEAVPotion@@@?$vector@PEAVPotion@@V?$allocator@PEAVPotion@@@std@@@std@@QEAAPEAPEAVPotion@@QEAPEAV2@$$QEAPEAV2@@Z 0000000140006ff0 f i Game.obj
 0001:00005ff0       ??$_Emplace_reallocate@PEAVEnemies@@@?$vector@PEAVEnemies@@V?$allocator@PEAVEnemies@@@std@@@std@@QEAAPEAPEAVEnemies@@QEAPEAV2@$$QEAPEAV2@@Z 0000000140006ff0 f i Game.obj
 0001:00006230       ??$_Emplace_reallocate@V?$basic_string@DU?$char_traits@D@std@@V?$allocator@D@2@@std@@@?$vector@V?$basic_string@DU?$char_traits@D@std@@V?$allocator@D@2@@std@@V?$allocator@V?$basic_string@DU?$char_traits@D@std@@V?$allocator@D@2@@std@@@2@@std@@QEAAPEAV?$basic_string@DU?$char_traits@D@std@@V?$allocator@D@2@@1@QEAV21@$$QEAV21@@Z 0000000140007230 f i Game.obj
 0001:00006480       ??$_Erase_head@V?$allocator@U?$_Tree_node@U?$pair@$$CBV?$basic_string@DU?$char_traits@D@std@@V?$allocator@D@2@@std@@PEAVTexture@sf@@@std@@PEAX@std@@@std@@@?$_Tree_val@U?$_Tree_simple_types@U?$pair@$$CBV?$basic_string@DU?$char_traits@D@std@@V?$allocator@D@2@@std@@PEAVTexture@sf@@@std@@@std@@@std@@QEAAXAEAV?$allocator@U?$_Tree_node@U?$pair@$$CBV?$basic_string@DU?$char_traits@D@std@@V?$allocator@D@2@@std@@PEAVTexture@sf@@@std@@PEAX@std@@@1@@Z 0000000140007480 f i Game.obj
 0001:000064f0       ??$_Erase_tree@V?$allocator@U?$_Tree_node@U?$pair@$$CBV?$basic_string@DU?$char_traits@D@std@@V?$allocator@D@2@@std@@PEAVTexture@sf@@@std@@PEAX@std@@@std@@@?$_Tree_val@U?$_Tree_simple_types@U?$pair@$$CBV?$basic_string@DU?$char_traits@D@std@@V?$allocator@D@2@@std@@PEAVTexture@sf@@@std@@@std@@@std@@QEAAXAEAV?$allocator@U?$_Tree_node@U?$pair@$$CBV?$basic_string@DU?$char_traits@D@std@@V?$allocator@D@2@@std@@PEAVTexture@sf@@@std@@PEAX@std@@@1@PEAU?$_Tree_node@U?$pair@$$CBV?$basic_string@DU?$char_traits@D@std@@V?$allocator@D@2@@std@@PEAVTexture@sf@@@std@@PEAX@1@@Z 00000001400074f0 f i Game.obj
 0001:00006570       ??$_Fgetc@D@std@@YA_NAEADPEAU_iobuf@@@Z 0000000140007570 f i Game.obj
 0001:000065d0       ??$_Find_lower_bound@V?$basic_string@DU?$char_traits@D@std@@V?$allocator@D@2@@std@@@?$_Tree@V?$_Tmap_traits@V?$basic_string@DU?$char_traits@D@std@@V?$allocator@D@2@@std@@PEAVTexture@sf@@U?$less@V?$basic_string@DU?$char_traits@D@std@@V?$allocator@D@2@@std@@@2@V?$allocator@U?$pair@$$CBV?$basic_string@DU?$char_traits@D@std@@V?$allocator@D@2@@std@@PEAVTexture@sf@@@std@@@2@$0A@@std@@@std@@IEBA?AU?$_Tree_find_result@PEAU?$_Tree_node@U?$pair@$$CBV?$basic_string@DU?$char_traits@D@std@@V?$allocator@D@2@@std@@PEAVTexture@sf@@@std@@PEAX@std@@@1@AEBV?$basic_string@DU?$char_traits@D@std@@V?$allocator@D@2@@1@@Z 00000001400075d0 f i Game.obj
 0001:00006750       ??$_Fputc@D@std@@YA_NDPEAU_iobuf@@@Z 0000000140007750 f i Game.obj
 0001:000067c0       ??$_Freenode0@V?$allocator@U?$_Tree_node@U?$pair@$$CBV?$basic_string@DU?$char_traits@D@std@@V?$allocator@D@2@@std@@PEAVTexture@sf@@@std@@PEAX@std@@@std@@@?$_Tree_node@U?$pair@$$CBV?$basic_string@DU?$char_traits@D@std@@V?$allocator@D@2@@std@@PEAVTexture@sf@@@std@@PEAX@std@@SAXAEAV?$allocator@U?$_Tree_node@U?$pair@$$CBV?$basic_string@DU?$char_traits@D@std@@V?$allocator@D@2@@std@@PEAVTexture@sf@@@std@@PEAX@std@@@1@PEAU01@@Z 00000001400077c0 f i Game.obj
 0001:00006840       ??$_Freenode@V?$allocator@U?$_Tree_node@U?$pair@$$CBV?$basic_string@DU?$char_traits@D@std@@V?$allocator@D@2@@std@@PEAVTexture@sf@@@std@@PEAX@std@@@std@@@?$_Tree_node@U?$pair@$$CBV?$basic_string@DU?$char_traits@D@std@@V?$allocator@D@2@@std@@PEAVTexture@sf@@@std@@PEAX@std@@SAXAEAV?$allocator@U?$_Tree_node@U?$pair@$$CBV?$basic_string@DU?$char_traits@D@std@@V?$allocator@D@2@@std@@PEAVTexture@sf@@@std@@PEAX@std@@@1@PEAU01@@Z 0000000140007840 f i Game.obj
 0001:000068b0       ??$_Get_size_of_n@$07@std@@YA_K_K@Z 00000001400078b0 f i Game.obj
 0001:00006920       ??$_Get_size_of_n@$0CA@@std@@YA_K_K@Z 0000000140007920 f i Game.obj
 0001:00006980       ??$_Get_size_of_n@$0CI@@std@@YA_K_K@Z 0000000140007980 f i Game.obj
 0001:000069e0       ??$_Get_size_of_n@$0DA@@std@@YA_K_K@Z 00000001400079e0 f i Game.obj
 0001:00006a40       ??$_Get_size_of_n@$0FA@@std@@YA_K_K@Z 0000000140007a40 f i Game.obj
 0001:00006aa0       ??$_Get_unwrapped@AEBQEAPEAVBullet@@@std@@YAPEAPEAVBullet@@AEBQEAPEAV1@@Z 0000000140007aa0 f i Game.obj
 0001:00006aa0       ??$_Get_unwrapped@AEBQEAPEAVRedEnemy@@@std@@YAPEAPEAVRedEnemy@@AEBQEAPEAV1@@Z 0000000140007aa0 f i Game.obj
 0001:00006aa0       ??$_Get_unwrapped@AEBQEAPEAVBlueEnemy@@@std@@YAPEAPEAVBlueEnemy@@AEBQEAPEAV1@@Z 0000000140007aa0 f i Game.obj
 0001:00006aa0       ??$_Get_unwrapped@AEBQEAPEAVEnemies@@@std@@YAPEAPEAVEnemies@@AEBQEAPEAV1@@Z 0000000140007aa0 f i Game.obj
 0001:00006aa0       ??$_Get_unwrapped@AEBQEAV?$vector@V?$basic_string@DU?$char_traits@D@std@@V?$allocator@D@2@@std@@V?$allocator@V?$basic_string@DU?$char_traits@D@std@@V?$allocator@D@2@@std@@@2@@std@@@std@@YAPEAV?$vector@V?$basic_string@DU?$char_traits@D@std@@V?$allocator@D@2@@std@@V?$allocator@V?$basic_string@DU?$char_traits@D@std@@V?$allocator@D@2@@std@@@2@@0@AEBQEAV10@@Z 0000000140007aa0 f i Game.obj
 0001:00006aa0       ??$_Get_unwrapped@AEBQEAPEAVShield@@@std@@YAPEAPEAVShield@@AEBQEAPEAV1@@Z 0000000140007aa0 f i Game.obj
 0001:00006aa0       ??$_Get_unwrapped@AEBQEAPEAVPotion@@@std@@YAPEAPEAVPotion@@AEBQEAPEAV1@@Z 0000000140007aa0 f i Game.obj
 0001:00006aa0       ??$_Get_unwrapped@AEAPEAD@std@@YAPEADAEAPEAD@Z 0000000140007aa0 f i Game.obj
 0001:00006aa0       ??$_Get_unwrapped@AEBQEAV?$basic_string@DU?$char_traits@D@std@@V?$allocator@D@2@@std@@@std@@YAPEAV?$basic_string@DU?$char_traits@D@std@@V?$allocator@D@2@@0@AEBQEAV10@@Z 0000000140007aa0 f i Game.obj
 0001:00006ce0       ??$_Insert_string@DU?$char_traits@D@std@@_K@std@@YAAEAV?$basic_ostream@DU?$char_traits@D@std@@@0@AEAV10@QEBD_K@Z 0000000140007ce0 f i Game.obj
 0001:000072d0       ??$_Integral_to_string@DH@std@@YA?AV?$basic_string@DU?$char_traits@D@std@@V?$allocator@D@2@@0@H@Z 00000001400082d0 f i Game.obj
 0001:000073f0       ??$_Kfn@$$CBV?$basic_string@DU?$char_traits@D@std@@V?$allocator@D@2@@std@@PEAVTexture@sf@@@?$_Tmap_traits@V?$basic_string@DU?$char_traits@D@std@@V?$allocator@D@2@@std@@PEAVTexture@sf@@U?$less@V?$basic_string@DU?$char_traits@D@std@@V?$allocator@D@2@@std@@@2@V?$allocator@U?$pair@$$CBV?$basic_string@DU?$char_traits@D@std@@V?$allocator@D@2@@std@@PEAVTexture@sf@@@std@@@2@$0A@@std@@SAAEBV?$basic_string@DU?$char_traits@D@std@@V?$allocator@D@2@@1@AEBU?$pair@$$CBV?$basic_string@DU?$char_traits@D@std@@V?$allocator@D@2@@std@@PEAVTexture@sf@@@1@@Z 00000001400083f0 f i Game.obj
 0001:00007430       ??$_Lower_bound_duplicate@V?$basic_string@DU?$char_traits@D@std@@V?$allocator@D@2@@std@@@?$_Tree@V?$_Tmap_traits@V?$basic_string@DU?$char_traits@D@std@@V?$allocator@D@2@@std@@PEAVTexture@sf@@U?$less@V?$basic_string@DU?$char_traits@D@std@@V?$allocator@D@2@@std@@@2@V?$allocator@U?$pair@$$CBV?$basic_string@DU?$char_traits@D@std@@V?$allocator@D@2@@std@@PEAVTexture@sf@@@std@@@2@$0A@@std@@@std@@IEBA_NQEAU?$_Tree_node@U?$pair@$$CBV?$basic_string@DU?$char_traits@D@std@@V?$allocator@D@2@@std@@PEAVTexture@sf@@@std@@PEAX@1@AEBV?$basic_string@DU?$char_traits@D@std@@V?$allocator@D@2@@1@@Z 0000000140008430 f i Game.obj
 0001:00007740       ??$_Move_unchecked@PEAPEAVBullet@@PEAPEAV1@@std@@YAPEAPEAVBullet@@PEAPEAV1@00@Z 0000000140008740 f i Game.obj
 0001:00007740       ??$_Move_unchecked@PEAPEAVEnemies@@PEAPEAV1@@std@@YAPEAPEAVEnemies@@PEAPEAV1@00@Z 0000000140008740 f i Game.obj
 0001:00007740       ??$_Move_unchecked@PEAPEAVShield@@PEAPEAV1@@std@@YAPEAPEAVShield@@PEAPEAV1@00@Z 0000000140008740 f i Game.obj
 0001:00007740       ??$_Move_unchecked@PEAPEAVRedEnemy@@PEAPEAV1@@std@@YAPEAPEAVRedEnemy@@PEAPEAV1@00@Z 0000000140008740 f i Game.obj
 0001:00007740       ??$_Move_unchecked@PEAPEAVPotion@@PEAPEAV1@@std@@YAPEAPEAVPotion@@PEAPEAV1@00@Z 0000000140008740 f i Game.obj
 0001:00007740       ??$_Move_unchecked@PEAPEAVBlueEnemy@@PEAPEAV1@@std@@YAPEAPEAVBlueEnemy@@PEAPEAV1@00@Z 0000000140008740 f i Game.obj
 0001:00007eb0       ??$_Pocca@V?$allocator@D@std@@@std@@YAXAEAV?$allocator@D@0@AEBV10@@Z 0000000140008eb0 f i Game.obj
 0001:00007eb0       ??$destroy@PEAVBlueEnemy@@@?$_Default_allocator_traits@V?$allocator@PEAVBlueEnemy@@@std@@@std@@SAXAEAV?$allocator@PEAVBlueEnemy@@@1@QEAPEAVBlueEnemy@@@Z 0000000140008eb0 f i Game.obj
 0001:00007eb0       ??$destroy@PEAVEnemies@@@?$_Default_allocator_traits@V?$allocator@PEAVEnemies@@@std@@@std@@SAXAEAV?$allocator@PEAVEnemies@@@1@QEAPEAVEnemies@@@Z 0000000140008eb0 f i Game.obj
 0001:00007eb0       ??$destroy@PEAVBullet@@@?$_Default_allocator_traits@V?$allocator@PEAVBullet@@@std@@@std@@SAXAEAV?$allocator@PEAVBullet@@@1@QEAPEAVBullet@@@Z 0000000140008eb0 f i Game.obj
 0001:00007eb0       ??$destroy@PEAVShield@@@?$_Default_allocator_traits@V?$allocator@PEAVShield@@@std@@@std@@SAXAEAV?$allocator@PEAVShield@@@1@QEAPEAVShield@@@Z 0000000140008eb0 f i Game.obj
 0001:00007eb0       ??$destroy@PEAVRedEnemy@@@?$_Default_allocator_traits@V?$allocator@PEAVRedEnemy@@@std@@@std@@SAXAEAV?$allocator@PEAVRedEnemy@@@1@QEAPEAVRedEnemy@@@Z 0000000140008eb0 f i Game.obj
 0001:00007eb0       ?_Adopt@_Iterator_base0@std@@QEAAXPEBX@Z 0000000140008eb0 f i Game.obj
 0001:00007eb0       ??$destroy@PEAVPotion@@@?$_Default_allocator_traits@V?$allocator@PEAVPotion@@@std@@@std@@SAXAEAV?$allocator@PEAVPotion@@@1@QEAPEAVPotion@@@Z 0000000140008eb0 f i Game.obj
 0001:00007ef0       ??$_Pocma@V?$allocator@D@std@@@std@@YAXAEAV?$allocator@D@0@0@Z 0000000140008ef0 f i Game.obj
 0001:000083f0       ??$_Reallocate_grow_by@V<lambda_319d5e083f45f90dcdce5dce53cbb275>@@D@?$basic_string@DU?$char_traits@D@std@@V?$allocator@D@2@@std@@AEAAAEAV01@_KV<lambda_319d5e083f45f90dcdce5dce53cbb275>@@D@Z 00000001400093f0 f i Game.obj
 0001:00008620       ??$_Reallocate_grow_by@V<lambda_65e615be2a453ca0576c979606f46740>@@PEBD_K@?$basic_string@DU?$char_traits@D@std@@V?$allocator@D@2@@std@@AEAAAEAV01@_KV<lambda_65e615be2a453ca0576c979606f46740>@@PEBD_K@Z 0000000140009620 f i Game.obj
 0001:00008ad0       ??$_Traits_compare@U?$char_traits@D@std@@@std@@YAHQEBD_K01@Z 0000000140009ad0 f i Game.obj
 0001:00008b70       ??$_Try_emplace@V?$basic_string@DU?$char_traits@D@std@@V?$allocator@D@2@@std@@$$V@?$map@V?$basic_string@DU?$char_traits@D@std@@V?$allocator@D@2@@std@@PEAVTexture@sf@@U?$less@V?$basic_string@DU?$char_traits@D@std@@V?$allocator@D@2@@std@@@2@V?$allocator@U?$pair@$$CBV?$basic_string@DU?$char_traits@D@std@@V?$allocator@D@2@@std@@PEAVTexture@sf@@@std@@@2@@std@@AEAA?AU?$pair@PEAU?$_Tree_node@U?$pair@$$CBV?$basic_string@DU?$char_traits@D@std@@V?$allocator@D@2@@std@@PEAVTexture@sf@@@std@@PEAX@std@@_N@1@$$QEAV?$basic_string@DU?$char_traits@D@std@@V?$allocator@D@2@@1@@Z 0000000140009b70 f i Game.obj
 0001:00008d80       ??$_UIntegral_to_buff@DI@std@@YAPEADPEADI@Z 0000000140009d80 f i Game.obj
 0001:00008e00       ??$_Ucopy@PEAV?$basic_string@DU?$char_traits@D@std@@V?$allocator@D@2@@std@@@?$vector@V?$basic_string@DU?$char_traits@D@std@@V?$allocator@D@2@@std@@V?$allocator@V?$basic_string@DU?$char_traits@D@std@@V?$allocator@D@2@@std@@@2@@std@@AEAAPEAV?$basic_string@DU?$char_traits@D@std@@V?$allocator@D@2@@1@PEAV21@00@Z 0000000140009e00 f i Game.obj
 0001:00008e60       ??$_Unfancy@PEAVEnemies@@@std@@YAPEAPEAVEnemies@@PEAPEAV1@@Z 0000000140009e60 f i Game.obj
 0001:00008e60       ??$addressof@V?$_String_val@U?$_Simple_types@D@std@@@std@@@std@@YAPEAV?$_String_val@U?$_Simple_types@D@std@@@0@AEAV10@@Z 0000000140009e60 f i Game.obj
 0001:00008e60       ??$addressof@$$CBV?$basic_string@DU?$char_traits@D@std@@V?$allocator@D@2@@std@@@std@@YAPEBV?$basic_string@DU?$char_traits@D@std@@V?$allocator@D@2@@0@AEBV10@@Z 0000000140009e60 f i Game.obj
 0001:00008e60       ??$_Unfancy@PEAVBlueEnemy@@@std@@YAPEAPEAVBlueEnemy@@PEAPEAV1@@Z 0000000140009e60 f i Game.obj
 0001:00008e60       ??$addressof@V?$basic_filebuf@DU?$char_traits@D@std@@@std@@@std@@YAPEAV?$basic_filebuf@DU?$char_traits@D@std@@@0@AEAV10@@Z 0000000140009e60 f i Game.obj
 0001:00008e60       ??$addressof@PEAU?$_Tree_node@U?$pair@$$CBV?$basic_string@DU?$char_traits@D@std@@V?$allocator@D@2@@std@@PEAVTexture@sf@@@std@@PEAX@std@@@std@@YAPEAPEAU?$_Tree_node@U?$pair@$$CBV?$basic_string@DU?$char_traits@D@std@@V?$allocator@D@2@@std@@PEAVTexture@sf@@@std@@PEAX@0@AEAPEAU10@@Z 0000000140009e60 f i Game.obj
 0001:00008e60       ??$addressof@V?$_Vector_val@U?$_Simple_types@PEAVShield@@@std@@@std@@@std@@YAPEAV?$_Vector_val@U?$_Simple_types@PEAVShield@@@std@@@0@AEAV10@@Z 0000000140009e60 f i Game.obj
 0001:00008e60       ??$addressof@V?$_Vector_val@U?$_Simple_types@PEAVBullet@@@std@@@std@@@std@@YAPEAV?$_Vector_val@U?$_Simple_types@PEAVBullet@@@std@@@0@AEAV10@@Z 0000000140009e60 f i Game.obj
 0001:00008e60       ??$addressof@V?$_Vector_val@U?$_Simple_types@PEAVBlueEnemy@@@std@@@std@@@std@@YAPEAV?$_Vector_val@U?$_Simple_types@PEAVBlueEnemy@@@std@@@0@AEAV10@@Z 0000000140009e60 f i Game.obj
 0001:00008e60       ??$_Unfancy@V?$basic_string@DU?$char_traits@D@std@@V?$allocator@D@2@@std@@@std@@YAPEAV?$basic_string@DU?$char_traits@D@std@@V?$allocator@D@2@@0@PEAV10@@Z 0000000140009e60 f i Game.obj
 0001:00008e60       ??$_Unfancy@PEAVRedEnemy@@@std@@YAPEAPEAVRedEnemy@@PEAPEAV1@@Z 0000000140009e60 f i Game.obj
 0001:00008e60       ??$addressof@V?$_Tree_val@U?$_Tree_simple_types@U?$pair@$$CBV?$basic_string@DU?$char_traits@D@std@@V?$allocator@D@2@@std@@PEAVTexture@sf@@@std@@@std@@@std@@@std@@YAPEAV?$_Tree_val@U?$_Tree_simple_types@U?$pair@$$CBV?$basic_string@DU?$char_traits@D@std@@V?$allocator@D@2@@std@@PEAVTexture@sf@@@std@@@std@@@0@AEAV10@@Z 0000000140009e60 f i Game.obj
 0001:00008e60       ??$addressof@U?$pair@$$CBV?$basic_string@DU?$char_traits@D@std@@V?$allocator@D@2@@std@@PEAVTexture@sf@@@std@@@std@@YAPEAU?$pair@$$CBV?$basic_string@DU?$char_traits@D@std@@V?$allocator@D@2@@std@@PEAVTexture@sf@@@0@AEAU10@@Z 0000000140009e60 f i Game.obj
 0001:00008e60       ??$addressof@$$CBV?$_String_val@U?$_Simple_types@D@std@@@std@@@std@@YAPEBV?$_String_val@U?$_Simple_types@D@std@@@0@AEBV10@@Z 0000000140009e60 f i Game.obj
 0001:00008e60       ??$addressof@V?$_Vector_val@U?$_Simple_types@PEAVPotion@@@std@@@std@@@std@@YAPEAV?$_Vector_val@U?$_Simple_types@PEAVPotion@@@std@@@0@AEAV10@@Z 0000000140009e60 f i Game.obj
 0001:00008e60       ??$_Unfancy@PEAVShield@@@std@@YAPEAPEAVShield@@PEAPEAV1@@Z 0000000140009e60 f i Game.obj
 0001:00008e60       ??$addressof@V?$basic_stringbuf@DU?$char_traits@D@std@@V?$allocator@D@2@@std@@@std@@YAPEAV?$basic_stringbuf@DU?$char_traits@D@std@@V?$allocator@D@2@@0@AEAV10@@Z 0000000140009e60 f i Game.obj
 0001:00008e60       ??$addressof@V?$basic_string@DU?$char_traits@D@std@@V?$allocator@D@2@@std@@@std@@YAPEAV?$basic_string@DU?$char_traits@D@std@@V?$allocator@D@2@@0@AEAV10@@Z 0000000140009e60 f i Game.obj
 0001:00008e60       ??$_Unfancy@V?$vector@V?$basic_string@DU?$char_traits@D@std@@V?$allocator@D@2@@std@@V?$allocator@V?$basic_string@DU?$char_traits@D@std@@V?$allocator@D@2@@std@@@2@@std@@@std@@YAPEAV?$vector@V?$basic_string@DU?$char_traits@D@std@@V?$allocator@D@2@@std@@V?$allocator@V?$basic_string@DU?$char_traits@D@std@@V?$allocator@D@2@@std@@@2@@0@PEAV10@@Z 0000000140009e60 f i Game.obj
 0001:00008e60       ??$addressof@$$CBV?$_Tree_val@U?$_Tree_simple_types@U?$pair@$$CBV?$basic_string@DU?$char_traits@D@std@@V?$allocator@D@2@@std@@PEAVTexture@sf@@@std@@@std@@@std@@@std@@YAPEBV?$_Tree_val@U?$_Tree_simple_types@U?$pair@$$CBV?$basic_string@DU?$char_traits@D@std@@V?$allocator@D@2@@std@@PEAVTexture@sf@@@std@@@std@@@0@AEBV10@@Z 0000000140009e60 f i Game.obj
 0001:00008e60       ??$_Unfancy@PEAVBullet@@@std@@YAPEAPEAVBullet@@PEAPEAV1@@Z 0000000140009e60 f i Game.obj
 0001:00008e60       ??$addressof@V?$_Vector_val@U?$_Simple_types@PEAVRedEnemy@@@std@@@std@@@std@@YAPEAV?$_Vector_val@U?$_Simple_types@PEAVRedEnemy@@@std@@@0@AEAV10@@Z 0000000140009e60 f i Game.obj
 0001:00008e60       ??$addressof@V?$_Vector_val@U?$_Simple_types@PEAVEnemies@@@std@@@std@@@std@@YAPEAV?$_Vector_val@U?$_Simple_types@PEAVEnemies@@@std@@@0@AEAV10@@Z 0000000140009e60 f i Game.obj
 0001:00008e60       ??$addressof@$$CBV?$codecvt@DDU_Mbstatet@@@std@@@std@@YAPEBV?$codecvt@DDU_Mbstatet@@@0@AEBV10@@Z 0000000140009e60 f i Game.obj
 0001:00008e60       ??$_Unfancy@PEAVPotion@@@std@@YAPEAPEAVPotion@@PEAPEAV1@@Z 0000000140009e60 f i Game.obj
 0001:00008e60       ??$addressof@D@std@@YAPEADAEAD@Z 0000000140009e60 f i Game.obj
 0001:00008ee0       ??$_Ungetc@D@std@@YA_NAEBDPEAU_iobuf@@@Z 0000000140009ee0 f i Game.obj
 0001:00008f50       ??$_Uninitialized_copy@PEAV?$basic_string@DU?$char_traits@D@std@@V?$allocator@D@2@@std@@V?$allocator@V?$basic_string@DU?$char_traits@D@std@@V?$allocator@D@2@@std@@@2@@std@@YAPEAV?$basic_string@DU?$char_traits@D@std@@V?$allocator@D@2@@0@QEAV10@0PEAV10@AEAV?$allocator@V?$basic_string@DU?$char_traits@D@std@@V?$allocator@D@2@@std@@@0@@Z 0000000140009f50 f i Game.obj
 0001:00009070       ??$_Uninitialized_move@PEAPEAVRedEnemy@@V?$allocator@PEAVRedEnemy@@@std@@@std@@YAPEAPEAVRedEnemy@@QEAPEAV1@0PEAPEAV1@AEAV?$allocator@PEAVRedEnemy@@@0@@Z 000000014000a070 f i Game.obj
 0001:00009070       ??$_Uninitialized_move@PEAPEAVBullet@@V?$allocator@PEAVBullet@@@std@@@std@@YAPEAPEAVBullet@@QEAPEAV1@0PEAPEAV1@AEAV?$allocator@PEAVBullet@@@0@@Z 000000014000a070 f i Game.obj
 0001:00009070       ??$_Uninitialized_move@PEAPEAVEnemies@@V?$allocator@PEAVEnemies@@@std@@@std@@YAPEAPEAVEnemies@@QEAPEAV1@0PEAPEAV1@AEAV?$allocator@PEAVEnemies@@@0@@Z 000000014000a070 f i Game.obj
 0001:00009070       ??$_Uninitialized_move@PEAPEAVShield@@V?$allocator@PEAVShield@@@std@@@std@@YAPEAPEAVShield@@QEAPEAV1@0PEAPEAV1@AEAV?$allocator@PEAVShield@@@0@@Z 000000014000a070 f i Game.obj
 0001:00009070       ??$_Uninitialized_move@PEAPEAVBlueEnemy@@V?$allocator@PEAVBlueEnemy@@@std@@@std@@YAPEAPEAVBlueEnemy@@QEAPEAV1@0PEAPEAV1@AEAV?$allocator@PEAVBlueEnemy@@@0@@Z 000000014000a070 f i Game.obj
 0001:00009070       ??$_Uninitialized_move@PEAPEAVPotion@@V?$allocator@PEAVPotion@@@std@@@std@@YAPEAPEAVPotion@@QEAPEAV1@0PEAPEAV1@AEAV?$allocator@PEAVPotion@@@0@@Z 000000014000a070 f i Game.obj
 0001:00009230       ??$_Uninitialized_move@PEAV?$basic_string@DU?$char_traits@D@std@@V?$allocator@D@2@@std@@V?$allocator@V?$basic_string@DU?$char_traits@D@std@@V?$allocator@D@2@@std@@@2@@std@@YAPEAV?$basic_string@DU?$char_traits@D@std@@V?$allocator@D@2@@0@QEAV10@0PEAV10@AEAV?$allocator@V?$basic_string@DU?$char_traits@D@std@@V?$allocator@D@2@@std@@@0@@Z 000000014000a230 f i Game.obj
 0001:00009350       ??$_Uninitialized_move@PEAV?$vector@V?$basic_string@DU?$char_traits@D@std@@V?$allocator@D@2@@std@@V?$allocator@V?$basic_string@DU?$char_traits@D@std@@V?$allocator@D@2@@std@@@2@@std@@V?$allocator@V?$vector@V?$basic_string@DU?$char_traits@D@std@@V?$allocator@D@2@@std@@V?$allocator@V?$basic_string@DU?$char_traits@D@std@@V?$allocator@D@2@@std@@@2@@std@@@2@@std@@YAPEAV?$vector@V?$basic_string@DU?$char_traits@D@std@@V?$allocator@D@2@@std@@V?$allocator@V?$basic_string@DU?$char_traits@D@std@@V?$allocator@D@2@@std@@@2@@0@QEAV10@0PEAV10@AEAV?$allocator@V?$vector@V?$basic_string@DU?$char_traits@D@std@@V?$allocator@D@2@@std@@V?$allocator@V?$basic_string@DU?$char_traits@D@std@@V?$allocator@D@2@@std@@@2@@std@@@0@@Z 000000014000a350 f i Game.obj
 0001:00009470       ??$_Verify_range@D@std@@YAXQEBD0@Z 000000014000a470 f i Game.obj
 0001:00009530       ??$construct@PEAVEnemies@@PEAV1@@?$_Default_allocator_traits@V?$allocator@PEAVEnemies@@@std@@@std@@SAXAEAV?$allocator@PEAVEnemies@@@1@QEAPEAVEnemies@@$$QEAPEAV3@@Z 000000014000a530 f i Game.obj
 0001:00009530       ??$construct@PEAVBlueEnemy@@PEAV1@@?$_Default_allocator_traits@V?$allocator@PEAVBlueEnemy@@@std@@@std@@SAXAEAV?$allocator@PEAVBlueEnemy@@@1@QEAPEAVBlueEnemy@@$$QEAPEAV3@@Z 000000014000a530 f i Game.obj
 0001:00009530       ??$construct@PEAVBullet@@PEAV1@@?$_Default_allocator_traits@V?$allocator@PEAVBullet@@@std@@@std@@SAXAEAV?$allocator@PEAVBullet@@@1@QEAPEAVBullet@@$$QEAPEAV3@@Z 000000014000a530 f i Game.obj
 0001:00009530       ??$construct@PEAVPotion@@PEAV1@@?$_Default_allocator_traits@V?$allocator@PEAVPotion@@@std@@@std@@SAXAEAV?$allocator@PEAVPotion@@@1@QEAPEAVPotion@@$$QEAPEAV3@@Z 000000014000a530 f i Game.obj
 0001:00009530       ??$construct@PEAVRedEnemy@@PEAV1@@?$_Default_allocator_traits@V?$allocator@PEAVRedEnemy@@@std@@@std@@SAXAEAV?$allocator@PEAVRedEnemy@@@1@QEAPEAVRedEnemy@@$$QEAPEAV3@@Z 000000014000a530 f i Game.obj
 0001:00009530       ??$construct@PEAVShield@@PEAV1@@?$_Default_allocator_traits@V?$allocator@PEAVShield@@@std@@@std@@SAXAEAV?$allocator@PEAVShield@@@1@QEAPEAVShield@@$$QEAPEAV3@@Z 000000014000a530 f i Game.obj
 0001:000095a0       ??$construct@U?$pair@$$CBV?$basic_string@DU?$char_traits@D@std@@V?$allocator@D@2@@std@@PEAVTexture@sf@@@std@@AEBUpiecewise_construct_t@2@V?$tuple@$$QEAV?$basic_string@DU?$char_traits@D@std@@V?$allocator@D@2@@std@@@2@V?$tuple@$$V@2@@?$_Default_allocator_traits@V?$allocator@U?$_Tree_node@U?$pair@$$CBV?$basic_string@DU?$char_traits@D@std@@V?$allocator@D@2@@std@@PEAVTexture@sf@@@std@@PEAX@std@@@std@@@std@@SAXAEAV?$allocator@U?$_Tree_node@U?$pair@$$CBV?$basic_string@DU?$char_traits@D@std@@V?$allocator@D@2@@std@@PEAVTexture@sf@@@std@@PEAX@std@@@1@QEAU?$pair@$$CBV?$basic_string@DU?$char_traits@D@std@@V?$allocator@D@2@@std@@PEAVTexture@sf@@@1@AEBUpiecewise_construct_t@1@$$QEAV?$tuple@$$QEAV?$basic_string@DU?$char_traits@D@std@@V?$allocator@D@2@@std@@@1@$$QEAV?$tuple@$$V@1@@Z 000000014000a5a0 f i Game.obj
 0001:00009750       ??$construct@V?$basic_string@DU?$char_traits@D@std@@V?$allocator@D@2@@std@@AEAV12@@?$_Default_allocator_traits@V?$allocator@V?$basic_string@DU?$char_traits@D@std@@V?$allocator@D@2@@std@@@std@@@std@@SAXAEAV?$allocator@V?$basic_string@DU?$char_traits@D@std@@V?$allocator@D@2@@std@@@1@QEAV?$basic_string@DU?$char_traits@D@std@@V?$allocator@D@2@@1@AEAV31@@Z 000000014000a750 f i Game.obj
 0001:000097c0       ??$construct@V?$basic_string@DU?$char_traits@D@std@@V?$allocator@D@2@@std@@V12@@?$_Default_allocator_traits@V?$allocator@V?$basic_string@DU?$char_traits@D@std@@V?$allocator@D@2@@std@@@std@@@std@@SAXAEAV?$allocator@V?$basic_string@DU?$char_traits@D@std@@V?$allocator@D@2@@std@@@1@QEAV?$basic_string@DU?$char_traits@D@std@@V?$allocator@D@2@@1@$$QEAV31@@Z 000000014000a7c0 f i Game.obj
 0001:00009830       ??$construct@V?$vector@V?$basic_string@DU?$char_traits@D@std@@V?$allocator@D@2@@std@@V?$allocator@V?$basic_string@DU?$char_traits@D@std@@V?$allocator@D@2@@std@@@2@@std@@AEBV12@@?$_Default_allocator_traits@V?$allocator@V?$vector@V?$basic_string@DU?$char_traits@D@std@@V?$allocator@D@2@@std@@V?$allocator@V?$basic_string@DU?$char_traits@D@std@@V?$allocator@D@2@@std@@@2@@std@@@std@@@std@@SAXAEAV?$allocator@V?$vector@V?$basic_string@DU?$char_traits@D@std@@V?$allocator@D@2@@std@@V?$allocator@V?$basic_string@DU?$char_traits@D@std@@V?$allocator@D@2@@std@@@2@@std@@@1@QEAV?$vector@V?$basic_string@DU?$char_traits@D@std@@V?$allocator@D@2@@std@@V?$allocator@V?$basic_string@DU?$char_traits@D@std@@V?$allocator@D@2@@std@@@2@@1@AEBV31@@Z 000000014000a830 f i Game.obj
 0001:000098a0       ??$construct@V?$vector@V?$basic_string@DU?$char_traits@D@std@@V?$allocator@D@2@@std@@V?$allocator@V?$basic_string@DU?$char_traits@D@std@@V?$allocator@D@2@@std@@@2@@std@@V12@@?$_Default_allocator_traits@V?$allocator@V?$vector@V?$basic_string@DU?$char_traits@D@std@@V?$allocator@D@2@@std@@V?$allocator@V?$basic_string@DU?$char_traits@D@std@@V?$allocator@D@2@@std@@@2@@std@@@std@@@std@@SAXAEAV?$allocator@V?$vector@V?$basic_string@DU?$char_traits@D@std@@V?$allocator@D@2@@std@@V?$allocator@V?$basic_string@DU?$char_traits@D@std@@V?$allocator@D@2@@std@@@2@@std@@@1@QEAV?$vector@V?$basic_string@DU?$char_traits@D@std@@V?$allocator@D@2@@std@@V?$allocator@V?$basic_string@DU?$char_traits@D@std@@V?$allocator@D@2@@std@@@2@@1@$$QEAV31@@Z 000000014000a8a0 f i Game.obj
 0001:00009910       ??$destroy@U?$pair@$$CBV?$basic_string@DU?$char_traits@D@std@@V?$allocator@D@2@@std@@PEAVTexture@sf@@@std@@@?$_Default_allocator_traits@V?$allocator@U?$_Tree_node@U?$pair@$$CBV?$basic_string@DU?$char_traits@D@std@@V?$allocator@D@2@@std@@PEAVTexture@sf@@@std@@PEAX@std@@@std@@@std@@SAXAEAV?$allocator@U?$_Tree_node@U?$pair@$$CBV?$basic_string@DU?$char_traits@D@std@@V?$allocator@D@2@@std@@PEAVTexture@sf@@@std@@PEAX@std@@@1@QEAU?$pair@$$CBV?$basic_string@DU?$char_traits@D@std@@V?$allocator@D@2@@std@@PEAVTexture@sf@@@1@@Z 000000014000a910 f i Game.obj
 0001:000099b0       ??$destroy@V?$basic_string@DU?$char_traits@D@std@@V?$allocator@D@2@@std@@@?$_Default_allocator_traits@V?$allocator@V?$basic_string@DU?$char_traits@D@std@@V?$allocator@D@2@@std@@@std@@@std@@SAXAEAV?$allocator@V?$basic_string@DU?$char_traits@D@std@@V?$allocator@D@2@@std@@@1@QEAV?$basic_string@DU?$char_traits@D@std@@V?$allocator@D@2@@1@@Z 000000014000a9b0 f i Game.obj
 0001:00009a00       ??$destroy@V?$vector@V?$basic_string@DU?$char_traits@D@std@@V?$allocator@D@2@@std@@V?$allocator@V?$basic_string@DU?$char_traits@D@std@@V?$allocator@D@2@@std@@@2@@std@@@?$_Default_allocator_traits@V?$allocator@V?$vector@V?$basic_string@DU?$char_traits@D@std@@V?$allocator@D@2@@std@@V?$allocator@V?$basic_string@DU?$char_traits@D@std@@V?$allocator@D@2@@std@@@2@@std@@@std@@@std@@SAXAEAV?$allocator@V?$vector@V?$basic_string@DU?$char_traits@D@std@@V?$allocator@D@2@@std@@V?$allocator@V?$basic_string@DU?$char_traits@D@std@@V?$allocator@D@2@@std@@@2@@std@@@1@QEAV?$vector@V?$basic_string@DU?$char_traits@D@std@@V?$allocator@D@2@@std@@V?$allocator@V?$basic_string@DU?$char_traits@D@std@@V?$allocator@D@2@@std@@@2@@1@@Z 000000014000aa00 f i Game.obj
 0001:00009af0       ??$emplace_back@AEBV?$vector@V?$basic_string@DU?$char_traits@D@std@@V?$allocator@D@2@@std@@V?$allocator@V?$basic_string@DU?$char_traits@D@std@@V?$allocator@D@2@@std@@@2@@std@@@?$vector@V?$vector@V?$basic_string@DU?$char_traits@D@std@@V?$allocator@D@2@@std@@V?$allocator@V?$basic_string@DU?$char_traits@D@std@@V?$allocator@D@2@@std@@@2@@std@@V?$allocator@V?$vector@V?$basic_string@DU?$char_traits@D@std@@V?$allocator@D@2@@std@@V?$allocator@V?$basic_string@DU?$char_traits@D@std@@V?$allocator@D@2@@std@@@2@@std@@@2@@std@@QEAAXAEBV?$vector@V?$basic_string@DU?$char_traits@D@std@@V?$allocator@D@2@@std@@V?$allocator@V?$basic_string@DU?$char_traits@D@std@@V?$allocator@D@2@@std@@@2@@1@@Z 000000014000aaf0 f i Game.obj
 0001:00009b90       ??$emplace_back@PEAVBlueEnemy@@@?$vector@PEAVBlueEnemy@@V?$allocator@PEAVBlueEnemy@@@std@@@std@@QEAAX$$QEAPEAVBlueEnemy@@@Z 000000014000ab90 f i Game.obj
 0001:00009c30       ??$emplace_back@PEAVBullet@@@?$vector@PEAVBullet@@V?$allocator@PEAVBullet@@@std@@@std@@QEAAX$$QEAPEAVBullet@@@Z 000000014000ac30 f i Game.obj
 0001:00009cd0       ??$emplace_back@PEAVEnemies@@@?$vector@PEAVEnemies@@V?$allocator@PEAVEnemies@@@std@@@std@@QEAAX$$QEAPEAVEnemies@@@Z 000000014000acd0 f i Game.obj
 0001:00009d70       ??$emplace_back@PEAVPotion@@@?$vector@PEAVPotion@@V?$allocator@PEAVPotion@@@std@@@std@@QEAAX$$QEAPEAVPotion@@@Z 000000014000ad70 f i Game.obj
 0001:00009e10       ??$emplace_back@PEAVRedEnemy@@@?$vector@PEAVRedEnemy@@V?$allocator@PEAVRedEnemy@@@std@@@std@@QEAAX$$QEAPEAVRedEnemy@@@Z 000000014000ae10 f i Game.obj
 0001:00009eb0       ??$emplace_back@PEAVShield@@@?$vector@PEAVShield@@V?$allocator@PEAVShield@@@std@@@std@@QEAAX$$QEAPEAVShield@@@Z 000000014000aeb0 f i Game.obj
 0001:00009f50       ??$emplace_back@V?$basic_string@DU?$char_traits@D@std@@V?$allocator@D@2@@std@@@?$vector@V?$basic_string@DU?$char_traits@D@std@@V?$allocator@D@2@@std@@V?$allocator@V?$basic_string@DU?$char_traits@D@std@@V?$allocator@D@2@@std@@@2@@std@@QEAAX$$QEAV?$basic_string@DU?$char_traits@D@std@@V?$allocator@D@2@@1@@Z 000000014000af50 f i Game.obj
 0001:00009ff0       ??$end@D$0BF@@std@@YAPEADAEAY0BF@D@Z 000000014000aff0 f i Game.obj
 0001:0000a030       ??$endl@DU?$char_traits@D@std@@@std@@YAAEAV?$basic_ostream@DU?$char_traits@D@std@@@0@AEAV10@@Z 000000014000b030 f i Game.obj
 0001:0000a0a0       ??$exchange@PEAU_Container_proxy@std@@$$T@std@@YAPEAU_Container_proxy@0@AEAPEAU10@$$QEA$$T@Z 000000014000b0a0 f i Game.obj
 0001:0000a0a0       ??$exchange@PEAV_Facet_base@std@@PEAV12@@std@@YAPEAV_Facet_base@0@AEAPEAV10@$$QEAPEAV10@@Z 000000014000b0a0 f i Game.obj
 0001:0000a0a0       ??$exchange@PEAU?$_Tree_node@U?$pair@$$CBV?$basic_string@DU?$char_traits@D@std@@V?$allocator@D@2@@std@@PEAVTexture@sf@@@std@@PEAX@std@@$$T@std@@YAPEAU?$_Tree_node@U?$pair@$$CBV?$basic_string@DU?$char_traits@D@std@@V?$allocator@D@2@@std@@PEAVTexture@sf@@@std@@PEAX@0@AEAPEAU10@$$QEA$$T@Z 000000014000b0a0 f i Game.obj
 0001:0000a0a0       ??$exchange@PEAU?$_Tree_node@U?$pair@$$CBV?$basic_string@DU?$char_traits@D@std@@V?$allocator@D@2@@std@@PEAVTexture@sf@@@std@@PEAX@std@@AEAPEAU12@@std@@YAPEAU?$_Tree_node@U?$pair@$$CBV?$basic_string@DU?$char_traits@D@std@@V?$allocator@D@2@@std@@PEAVTexture@sf@@@std@@PEAX@0@AEAPEAU10@0@Z 000000014000b0a0 f i Game.obj
 0001:0000a100       ??$move@AEAPEAVEnemies@@@std@@YA$$QEAPEAVEnemies@@AEAPEAV1@@Z 000000014000b100 f i Game.obj
 0001:0000a100       ??$forward@AEBU?$less@V?$basic_string@DU?$char_traits@D@std@@V?$allocator@D@2@@std@@@std@@@std@@YAAEBU?$less@V?$basic_string@DU?$char_traits@D@std@@V?$allocator@D@2@@std@@@0@AEBU10@@Z 000000014000b100 f i Game.obj
 0001:0000a100       ??$forward@PEAVBullet@@@std@@YA$$QEAPEAVBullet@@AEAPEAV1@@Z 000000014000b100 f i Game.obj
 0001:0000a100       ??$move@AEAV?$allocator@D@std@@@std@@YA$$QEAV?$allocator@D@0@AEAV10@@Z 000000014000b100 f i Game.obj
 0001:0000a100       ??$forward@PEAVPotion@@@std@@YA$$QEAPEAVPotion@@AEAPEAV1@@Z 000000014000b100 f i Game.obj
 0001:0000a100       ??$move@AEAPEAVShield@@@std@@YA$$QEAPEAVShield@@AEAPEAV1@@Z 000000014000b100 f i Game.obj
 0001:0000a100       ??$forward@AEAPEAU?$_Tree_node@U?$pair@$$CBV?$basic_string@DU?$char_traits@D@std@@V?$allocator@D@2@@std@@PEAVTexture@sf@@@std@@PEAX@std@@@std@@YAAEAPEAU?$_Tree_node@U?$pair@$$CBV?$basic_string@DU?$char_traits@D@std@@V?$allocator@D@2@@std@@PEAVTexture@sf@@@std@@PEAX@0@AEAPEAU10@@Z 000000014000b100 f i Game.obj
 0001:0000a100       ??$forward@AEBV?$allocator@D@std@@@std@@YAAEBV?$allocator@D@0@AEBV10@@Z 000000014000b100 f i Game.obj
 0001:0000a100       ??$move@AEAV?$tuple@$$QEAV?$basic_string@DU?$char_traits@D@std@@V?$allocator@D@2@@std@@@std@@@std@@YA$$QEAV?$tuple@$$QEAV?$basic_string@DU?$char_traits@D@std@@V?$allocator@D@2@@std@@@0@AEAV10@@Z 000000014000b100 f i Game.obj
 0001:0000a100       ??$move@AEAV?$basic_string@DU?$char_traits@D@std@@V?$allocator@D@2@@std@@@std@@YA$$QEAV?$basic_string@DU?$char_traits@D@std@@V?$allocator@D@2@@0@AEAV10@@Z 000000014000b100 f i Game.obj
 0001:0000a100       ??$move@AEAV?$vector@V?$basic_string@DU?$char_traits@D@std@@V?$allocator@D@2@@std@@V?$allocator@V?$basic_string@DU?$char_traits@D@std@@V?$allocator@D@2@@std@@@2@@std@@@std@@YA$$QEAV?$vector@V?$basic_string@DU?$char_traits@D@std@@V?$allocator@D@2@@std@@V?$allocator@V?$basic_string@DU?$char_traits@D@std@@V?$allocator@D@2@@std@@@2@@0@AEAV10@@Z 000000014000b100 f i Game.obj
 0001:0000a100       ??$forward@V?$vector@V?$basic_string@DU?$char_traits@D@std@@V?$allocator@D@2@@std@@V?$allocator@V?$basic_string@DU?$char_traits@D@std@@V?$allocator@D@2@@std@@@2@@std@@@std@@YA$$QEAV?$vector@V?$basic_string@DU?$char_traits@D@std@@V?$allocator@D@2@@std@@V?$allocator@V?$basic_string@DU?$char_traits@D@std@@V?$allocator@D@2@@std@@@2@@0@AEAV10@@Z 000000014000b100 f i Game.obj
 0001:0000a100       ??$forward@V?$allocator@V?$basic_string@DU?$char_traits@D@std@@V?$allocator@D@2@@std@@@std@@@std@@YA$$QEAV?$allocator@V?$basic_string@DU?$char_traits@D@std@@V?$allocator@D@2@@std@@@0@AEAV10@@Z 000000014000b100 f i Game.obj
 0001:0000a100       ??$forward@AEAPEAV_Facet_base@std@@@std@@YAAEAPEAV_Facet_base@0@AEAPEAV10@@Z 000000014000b100 f i Game.obj
 0001:0000a100       ??$forward@PEAVEnemies@@@std@@YA$$QEAPEAVEnemies@@AEAPEAV1@@Z 000000014000b100 f i Game.obj
 0001:0000a100       ??$forward@AEBQEAU?$_Tree_node@U?$pair@$$CBV?$basic_string@DU?$char_traits@D@std@@V?$allocator@D@2@@std@@PEAVTexture@sf@@@std@@PEAX@std@@@std@@YAAEBQEAU?$_Tree_node@U?$pair@$$CBV?$basic_string@DU?$char_traits@D@std@@V?$allocator@D@2@@std@@PEAVTexture@sf@@@std@@PEAX@0@AEBQEAU10@@Z 000000014000b100 f i Game.obj
 0001:0000a100       ??$forward@AEBV?$vector@V?$basic_string@DU?$char_traits@D@std@@V?$allocator@D@2@@std@@V?$allocator@V?$basic_string@DU?$char_traits@D@std@@V?$allocator@D@2@@std@@@2@@std@@@std@@YAAEBV?$vector@V?$basic_string@DU?$char_traits@D@std@@V?$allocator@D@2@@std@@V?$allocator@V?$basic_string@DU?$char_traits@D@std@@V?$allocator@D@2@@std@@@2@@0@AEBV10@@Z 000000014000b100 f i Game.obj
 0001:0000a100       ??$forward@PEAVShield@@@std@@YA$$QEAPEAVShield@@AEAPEAV1@@Z 000000014000b100 f i Game.obj
 0001:0000a100       ??$forward@V?$tuple@$$QEAV?$basic_string@DU?$char_traits@D@std@@V?$allocator@D@2@@std@@@std@@@std@@YA$$QEAV?$tuple@$$QEAV?$basic_string@DU?$char_traits@D@std@@V?$allocator@D@2@@std@@@0@AEAV10@@Z 000000014000b100 f i Game.obj
 0001:0000a100       ??$forward@V?$basic_string@DU?$char_traits@D@std@@V?$allocator@D@2@@std@@@std@@YA$$QEAV?$basic_string@DU?$char_traits@D@std@@V?$allocator@D@2@@0@AEAV10@@Z 000000014000b100 f i Game.obj
 0001:0000a100       ??$forward@U_Zero_then_variadic_args_t@std@@@std@@YA$$QEAU_Zero_then_variadic_args_t@0@AEAU10@@Z 000000014000b100 f i Game.obj
 0001:0000a100       ??$forward@AEAV?$basic_string@DU?$char_traits@D@std@@V?$allocator@D@2@@std@@@std@@YAAEAV?$basic_string@DU?$char_traits@D@std@@V?$allocator@D@2@@0@AEAV10@@Z 000000014000b100 f i Game.obj
 0001:0000a100       ??$forward@_N@std@@YA$$QEA_NAEA_N@Z 000000014000b100 f i Game.obj
 0001:0000a100       ??$move@AEAPEAVPotion@@@std@@YA$$QEAPEAVPotion@@AEAPEAV1@@Z 000000014000b100 f i Game.obj
 0001:0000a100       ??$forward@AEBUpiecewise_construct_t@std@@@std@@YAAEBUpiecewise_construct_t@0@AEBU10@@Z 000000014000b100 f i Game.obj
 0001:0000a100       ??$move@AEAV?$basic_istream@DU?$char_traits@D@std@@@std@@@std@@YA$$QEAV?$basic_istream@DU?$char_traits@D@std@@@0@AEAV10@@Z 000000014000b100 f i Game.obj
 0001:0000a100       ??$forward@PEAU?$_Tree_node@U?$pair@$$CBV?$basic_string@DU?$char_traits@D@std@@V?$allocator@D@2@@std@@PEAVTexture@sf@@@std@@PEAX@std@@@std@@YA$$QEAPEAU?$_Tree_node@U?$pair@$$CBV?$basic_string@DU?$char_traits@D@std@@V?$allocator@D@2@@std@@PEAVTexture@sf@@@std@@PEAX@0@AEAPEAU10@@Z 000000014000b100 f i Game.obj
 0001:0000a100       ??$move@AEAPEAVBlueEnemy@@@std@@YA$$QEAPEAVBlueEnemy@@AEAPEAV1@@Z 000000014000b100 f i Game.obj
 0001:0000a100       ??$move@AEAPEAVBullet@@@std@@YA$$QEAPEAVBullet@@AEAPEAV1@@Z 000000014000b100 f i Game.obj
 0001:0000a100       ??$forward@PEAVRedEnemy@@@std@@YA$$QEAPEAVRedEnemy@@AEAPEAV1@@Z 000000014000b100 f i Game.obj
 0001:0000a100       ??$forward@PEAVBlueEnemy@@@std@@YA$$QEAPEAVBlueEnemy@@AEAPEAV1@@Z 000000014000b100 f i Game.obj
 0001:0000a100       ??$move@AEAPEAVRedEnemy@@@std@@YA$$QEAPEAVRedEnemy@@AEAPEAV1@@Z 000000014000b100 f i Game.obj
 0001:0000a100       ??$forward@V?$allocator@D@std@@@std@@YA$$QEAV?$allocator@D@0@AEAV10@@Z 000000014000b100 f i Game.obj
 0001:0000a100       ??$move@AEAV?$allocator@V?$basic_string@DU?$char_traits@D@std@@V?$allocator@D@2@@std@@@std@@@std@@YA$$QEAV?$allocator@V?$basic_string@DU?$char_traits@D@std@@V?$allocator@D@2@@std@@@0@AEAV10@@Z 000000014000b100 f i Game.obj
 0001:0000a100       ??$forward@V?$tuple@$$V@std@@@std@@YA$$QEAV?$tuple@$$V@0@AEAV10@@Z 000000014000b100 f i Game.obj
 0001:0000a100       ??$forward@AEAV?$allocator@D@std@@@std@@YAAEAV?$allocator@D@0@AEAV10@@Z 000000014000b100 f i Game.obj
 0001:0000a180       ??$forward_as_tuple@$$V@std@@YA?AV?$tuple@$$V@0@XZ 000000014000b180 f i Game.obj
 0001:0000a1c0       ??$forward_as_tuple@V?$basic_string@DU?$char_traits@D@std@@V?$allocator@D@2@@std@@@std@@YA?AV?$tuple@$$QEAV?$basic_string@DU?$char_traits@D@std@@V?$allocator@D@2@@std@@@0@$$QEAV?$basic_string@DU?$char_traits@D@std@@V?$allocator@D@2@@0@@Z 000000014000b1c0 f i Game.obj
 0001:0000a220       ??$get@$0A@$$QEAV?$basic_string@DU?$char_traits@D@std@@V?$allocator@D@2@@std@@@std@@YA$$QEAV?$basic_string@DU?$char_traits@D@std@@V?$allocator@D@2@@0@$$QEAV?$tuple@$$QEAV?$basic_string@DU?$char_traits@D@std@@V?$allocator@D@2@@std@@@0@@Z 000000014000b220 f i Game.obj
 0001:0000a2b0       ??$max@M@std@@YAAEBMAEBM0@Z 000000014000b2b0 f i Game.obj
 0001:0000a320       ??$max@PEAD@std@@YAAEBQEADAEBQEAD0@Z 000000014000b320 f i Game.obj
 0001:0000a390       ??$min@M@std@@YAAEBMAEBM0@Z 000000014000b390 f i Game.obj
 0001:0000a5a0       ??$use_facet@V?$codecvt@DDU_Mbstatet@@@std@@@std@@YAAEBV?$codecvt@DDU_Mbstatet@@@0@AEBVlocale@0@@Z 000000014000b5a0 f i Game.obj
 0001:0000a730       ??$use_facet@V?$ctype@D@std@@@std@@YAAEBV?$ctype@D@0@AEBVlocale@0@@Z 000000014000b730 f i Game.obj
 0001:0000a8c0       ??0?$Rect@M@sf@@QEAA@MMMM@Z 000000014000b8c0 f i Game.obj
 0001:0000a950       ??0?$Rect@M@sf@@QEAA@XZ    000000014000b950 f i Game.obj
 0001:0000a9c0       ??0?$Vector2@H@sf@@QEAA@XZ 000000014000b9c0 f i Game.obj
 0001:0000aa10       ??0?$_Alloc_construct_ptr@V?$allocator@U?$_Tree_node@U?$pair@$$CBV?$basic_string@DU?$char_traits@D@std@@V?$allocator@D@2@@std@@PEAVTexture@sf@@@std@@PEAX@std@@@std@@@std@@QEAA@AEAV?$allocator@U?$_Tree_node@U?$pair@$$CBV?$basic_string@DU?$char_traits@D@std@@V?$allocator@D@2@@std@@PEAVTexture@sf@@@std@@PEAX@std@@@1@@Z 000000014000ba10 f i Game.obj
 0001:0000aa70       ??0?$_Tree@V?$_Tmap_traits@V?$basic_string@DU?$char_traits@D@std@@V?$allocator@D@2@@std@@PEAVTexture@sf@@U?$less@V?$basic_string@DU?$char_traits@D@std@@V?$allocator@D@2@@std@@@2@V?$allocator@U?$pair@$$CBV?$basic_string@DU?$char_traits@D@std@@V?$allocator@D@2@@std@@PEAVTexture@sf@@@std@@@2@$0A@@std@@@std@@QEAA@AEBU?$less@V?$basic_string@DU?$char_traits@D@std@@V?$allocator@D@2@@std@@@1@@Z 000000014000ba70 f i Game.obj
 0001:0000aad0       ??0?$_Tree_temp_node_alloc@V?$allocator@U?$_Tree_node@U?$pair@$$CBV?$basic_string@DU?$char_traits@D@std@@V?$allocator@D@2@@std@@PEAVTexture@sf@@@std@@PEAX@std@@@std@@@std@@QEAA@AEAV?$allocator@U?$_Tree_node@U?$pair@$$CBV?$basic_string@DU?$char_traits@D@std@@V?$allocator@D@2@@std@@PEAVTexture@sf@@@std@@PEAX@std@@@1@@Z 000000014000bad0 f i Game.obj
 0001:0000ab30       ??0?$_Tree_unchecked_const_iterator@V?$_Tree_val@U?$_Tree_simple_types@U?$pair@$$CBV?$basic_string@DU?$char_traits@D@std@@V?$allocator@D@2@@std@@PEAVTexture@sf@@@std@@@std@@@std@@U_Iterator_base0@2@@std@@QEAA@PEAU?$_Tree_node@U?$pair@$$CBV?$basic_string@DU?$char_traits@D@std@@V?$allocator@D@2@@std@@PEAVTexture@sf@@@std@@PEAX@1@PEBV?$_Tree_val@U?$_Tree_simple_types@U?$pair@$$CBV?$basic_string@DU?$char_traits@D@std@@V?$allocator@D@2@@std@@PEAVTexture@sf@@@std@@@std@@@1@@Z 000000014000bb30 f i Game.obj
 0001:0000ab90       ??0?$_Tree_unchecked_iterator@V?$_Tree_val@U?$_Tree_simple_types@U?$pair@$$CBV?$basic_string@DU?$char_traits@D@std@@V?$allocator@D@2@@std@@PEAVTexture@sf@@@std@@@std@@@std@@@std@@QEAA@PEAU?$_Tree_node@U?$pair@$$CBV?$basic_string@DU?$char_traits@D@std@@V?$allocator@D@2@@std@@PEAVTexture@sf@@@std@@PEAX@1@PEBV?$_Tree_val@U?$_Tree_simple_types@U?$pair@$$CBV?$basic_string@DU?$char_traits@D@std@@V?$allocator@D@2@@std@@PEAVTexture@sf@@@std@@@std@@@1@@Z 000000014000bb90 f i Game.obj
 0001:0000abe0       ??0?$_Tree_val@U?$_Tree_simple_types@U?$pair@$$CBV?$basic_string@DU?$char_traits@D@std@@V?$allocator@D@2@@std@@PEAVTexture@sf@@@std@@@std@@@std@@QEAA@XZ 000000014000bbe0 f i Game.obj
 0001:0000acb0       ??0?$_Uninitialized_backout_al@V?$allocator@V?$vector@V?$basic_string@DU?$char_traits@D@std@@V?$allocator@D@2@@std@@V?$allocator@V?$basic_string@DU?$char_traits@D@std@@V?$allocator@D@2@@std@@@2@@std@@@std@@@std@@QEAA@PEAV?$vector@V?$basic_string@DU?$char_traits@D@std@@V?$allocator@D@2@@std@@V?$allocator@V?$basic_string@DU?$char_traits@D@std@@V?$allocator@D@2@@std@@@2@@1@AEAV?$allocator@V?$vector@V?$basic_string@DU?$char_traits@D@std@@V?$allocator@D@2@@std@@V?$allocator@V?$basic_string@DU?$char_traits@D@std@@V?$allocator@D@2@@std@@@2@@std@@@1@@Z 000000014000bcb0 f i Game.obj
 0001:0000acb0       ??0?$_Uninitialized_backout_al@V?$allocator@V?$basic_string@DU?$char_traits@D@std@@V?$allocator@D@2@@std@@@std@@@std@@QEAA@PEAV?$basic_string@DU?$char_traits@D@std@@V?$allocator@D@2@@1@AEAV?$allocator@V?$basic_string@DU?$char_traits@D@std@@V?$allocator@D@2@@std@@@1@@Z 000000014000bcb0 f i Game.obj
 0001:0000ad20       ??0?$_Vector_const_iterator@V?$_Vector_val@U?$_Simple_types@PEAVBullet@@@std@@@std@@@std@@QEAA@AEBV01@@Z 000000014000bd20 f i Game.obj
 0001:0000ad20       ??0?$_Vector_const_iterator@V?$_Vector_val@U?$_Simple_types@PEAVBullet@@@std@@@std@@@std@@QEAA@$$QEAV01@@Z 000000014000bd20 f i Game.obj
 0001:0000ad20       ??0?$_Vector_const_iterator@V?$_Vector_val@U?$_Simple_types@PEAVBlueEnemy@@@std@@@std@@@std@@QEAA@$$QEAV01@@Z 000000014000bd20 f i Game.obj
 0001:0000ad20       ??0?$_Vector_const_iterator@V?$_Vector_val@U?$_Simple_types@PEAVPotion@@@std@@@std@@@std@@QEAA@AEBV01@@Z 000000014000bd20 f i Game.obj
 0001:0000ad20       ??0?$_Vector_const_iterator@V?$_Vector_val@U?$_Simple_types@PEAVRedEnemy@@@std@@@std@@@std@@QEAA@$$QEAV01@@Z 000000014000bd20 f i Game.obj
 0001:0000ad20       ??0?$_Vector_const_iterator@V?$_Vector_val@U?$_Simple_types@PEAVBlueEnemy@@@std@@@std@@@std@@QEAA@AEBV01@@Z 000000014000bd20 f i Game.obj
 0001:0000ad20       ??0?$_Vector_const_iterator@V?$_Vector_val@U?$_Simple_types@PEAVEnemies@@@std@@@std@@@std@@QEAA@$$QEAV01@@Z 000000014000bd20 f i Game.obj
 0001:0000ad20       ??0?$_Vector_const_iterator@V?$_Vector_val@U?$_Simple_types@PEAVShield@@@std@@@std@@@std@@QEAA@$$QEAV01@@Z 000000014000bd20 f i Game.obj
 0001:0000ad20       ??0?$_Vector_const_iterator@V?$_Vector_val@U?$_Simple_types@PEAVShield@@@std@@@std@@@std@@QEAA@AEBV01@@Z 000000014000bd20 f i Game.obj
 0001:0000ad20       ??0?$_Vector_const_iterator@V?$_Vector_val@U?$_Simple_types@PEAVPotion@@@std@@@std@@@std@@QEAA@$$QEAV01@@Z 000000014000bd20 f i Game.obj
 0001:0000ad20       ??0?$_Vector_const_iterator@V?$_Vector_val@U?$_Simple_types@PEAVRedEnemy@@@std@@@std@@@std@@QEAA@AEBV01@@Z 000000014000bd20 f i Game.obj
 0001:0000ad20       ??0?$_Vector_const_iterator@V?$_Vector_val@U?$_Simple_types@PEAVEnemies@@@std@@@std@@@std@@QEAA@AEBV01@@Z 000000014000bd20 f i Game.obj
 0001:0000ad70       ??0?$_Vector_const_iterator@V?$_Vector_val@U?$_Simple_types@PEAVPotion@@@std@@@std@@@std@@QEAA@PEAPEAVPotion@@PEBU_Container_base12@1@@Z 000000014000bd70 f i Game.obj
 0001:0000ad70       ??0?$_Vector_const_iterator@V?$_Vector_val@U?$_Simple_types@PEAVRedEnemy@@@std@@@std@@@std@@QEAA@PEAPEAVRedEnemy@@PEBU_Container_base12@1@@Z 000000014000bd70 f i Game.obj
 0001:0000ad70       ??0?$_Vector_const_iterator@V?$_Vector_val@U?$_Simple_types@PEAVBlueEnemy@@@std@@@std@@@std@@QEAA@PEAPEAVBlueEnemy@@PEBU_Container_base12@1@@Z 000000014000bd70 f i Game.obj
 0001:0000ad70       ??0?$_Vector_const_iterator@V?$_Vector_val@U?$_Simple_types@PEAVEnemies@@@std@@@std@@@std@@QEAA@PEAPEAVEnemies@@PEBU_Container_base12@1@@Z 000000014000bd70 f i Game.obj
 0001:0000ad70       ??0?$_Vector_const_iterator@V?$_Vector_val@U?$_Simple_types@PEAVBullet@@@std@@@std@@@std@@QEAA@PEAPEAVBullet@@PEBU_Container_base12@1@@Z 000000014000bd70 f i Game.obj
 0001:0000ad70       ??0?$_Vector_const_iterator@V?$_Vector_val@U?$_Simple_types@PEAVShield@@@std@@@std@@@std@@QEAA@PEAPEAVShield@@PEBU_Container_base12@1@@Z 000000014000bd70 f i Game.obj
 0001:0000ae50       ??0?$_Vector_iterator@V?$_Vector_val@U?$_Simple_types@PEAVBlueEnemy@@@std@@@std@@@std@@QEAA@AEBV01@@Z 000000014000be50 f i Game.obj
 0001:0000ae50       ??0?$_Vector_iterator@V?$_Vector_val@U?$_Simple_types@PEAVShield@@@std@@@std@@@std@@QEAA@AEBV01@@Z 000000014000be50 f i Game.obj
 0001:0000ae50       ??0?$_Vector_iterator@V?$_Vector_val@U?$_Simple_types@PEAVEnemies@@@std@@@std@@@std@@QEAA@AEBV01@@Z 000000014000be50 f i Game.obj
 0001:0000ae50       ??0?$_Vector_iterator@V?$_Vector_val@U?$_Simple_types@PEAVPotion@@@std@@@std@@@std@@QEAA@AEBV01@@Z 000000014000be50 f i Game.obj
 0001:0000ae50       ??0?$_Vector_iterator@V?$_Vector_val@U?$_Simple_types@PEAVBullet@@@std@@@std@@@std@@QEAA@AEBV01@@Z 000000014000be50 f i Game.obj
 0001:0000ae50       ??0?$_Vector_iterator@V?$_Vector_val@U?$_Simple_types@PEAVRedEnemy@@@std@@@std@@@std@@QEAA@AEBV01@@Z 000000014000be50 f i Game.obj
 0001:0000ae90       ??0?$_Vector_iterator@V?$_Vector_val@U?$_Simple_types@PEAVPotion@@@std@@@std@@@std@@QEAA@PEAPEAVPotion@@PEBU_Container_base12@1@@Z 000000014000be90 f i Game.obj
 0001:0000ae90       ??0?$_Vector_iterator@V?$_Vector_val@U?$_Simple_types@PEAVBullet@@@std@@@std@@@std@@QEAA@PEAPEAVBullet@@PEBU_Container_base12@1@@Z 000000014000be90 f i Game.obj
 0001:0000ae90       ??0?$_Vector_iterator@V?$_Vector_val@U?$_Simple_types@PEAVRedEnemy@@@std@@@std@@@std@@QEAA@PEAPEAVRedEnemy@@PEBU_Container_base12@1@@Z 000000014000be90 f i Game.obj
 0001:0000ae90       ??0?$_Vector_iterator@V?$_Vector_val@U?$_Simple_types@PEAVShield@@@std@@@std@@@std@@QEAA@PEAPEAVShield@@PEBU_Container_base12@1@@Z 000000014000be90 f i Game.obj
 0001:0000ae90       ??0?$_Vector_iterator@V?$_Vector_val@U?$_Simple_types@PEAVBlueEnemy@@@std@@@std@@@std@@QEAA@PEAPEAVBlueEnemy@@PEBU_Container_base12@1@@Z 000000014000be90 f i Game.obj
 0001:0000ae90       ??0?$_Vector_iterator@V?$_Vector_val@U?$_Simple_types@PEAVEnemies@@@std@@@std@@@std@@QEAA@PEAPEAVEnemies@@PEBU_Container_base12@1@@Z 000000014000be90 f i Game.obj
 0001:0000af30       ??0?$_Vector_val@U?$_Simple_types@PEAVEnemies@@@std@@@std@@QEAA@XZ 000000014000bf30 f i Game.obj
 0001:0000af30       ??0?$_Vector_val@U?$_Simple_types@V?$vector@V?$basic_string@DU?$char_traits@D@std@@V?$allocator@D@2@@std@@V?$allocator@V?$basic_string@DU?$char_traits@D@std@@V?$allocator@D@2@@std@@@2@@std@@@std@@@std@@QEAA@XZ 000000014000bf30 f i Game.obj
 0001:0000af30       ??0?$_Vector_val@U?$_Simple_types@PEAVShield@@@std@@@std@@QEAA@XZ 000000014000bf30 f i Game.obj
 0001:0000af30       ??0?$_Vector_val@U?$_Simple_types@PEAVRedEnemy@@@std@@@std@@QEAA@XZ 000000014000bf30 f i Game.obj
 0001:0000af30       ??0?$_Vector_val@U?$_Simple_types@V?$basic_string@DU?$char_traits@D@std@@V?$allocator@D@2@@std@@@std@@@std@@QEAA@XZ 000000014000bf30 f i Game.obj
 0001:0000af30       ??0?$_Vector_val@U?$_Simple_types@PEAVPotion@@@std@@@std@@QEAA@XZ 000000014000bf30 f i Game.obj
 0001:0000af30       ??0?$_Vector_val@U?$_Simple_types@PEAVBlueEnemy@@@std@@@std@@QEAA@XZ 000000014000bf30 f i Game.obj
 0001:0000af30       ??0?$_Vector_val@U?$_Simple_types@PEAVBullet@@@std@@@std@@QEAA@XZ 000000014000bf30 f i Game.obj
 0001:0000b010       ?_Get_first@?$_Compressed_pair@V?$allocator@U?$_Tree_node@U?$pair@$$CBV?$basic_string@DU?$char_traits@D@std@@V?$allocator@D@2@@std@@PEAVTexture@sf@@@std@@PEAX@std@@@std@@V?$_Tree_val@U?$_Tree_simple_types@U?$pair@$$CBV?$basic_string@DU?$char_traits@D@std@@V?$allocator@D@2@@std@@PEAVTexture@sf@@@std@@@std@@@2@$00@std@@QEAAAEAV?$allocator@U?$_Tree_node@U?$pair@$$CBV?$basic_string@DU?$char_traits@D@std@@V?$allocator@D@2@@std@@PEAVTexture@sf@@@std@@PEAX@std@@@2@XZ 000000014000c010 f i Game.obj
 0001:0000b010       ?_Get_first@?$_Compressed_pair@V?$allocator@PEAVRedEnemy@@@std@@V?$_Vector_val@U?$_Simple_types@PEAVRedEnemy@@@std@@@2@$00@std@@QEAAAEAV?$allocator@PEAVRedEnemy@@@2@XZ 000000014000c010 f i Game.obj
 0001:0000b010       ?_Get_first@?$_Compressed_pair@V?$allocator@PEAVShield@@@std@@V?$_Vector_val@U?$_Simple_types@PEAVShield@@@std@@@2@$00@std@@QEBAAEBV?$allocator@PEAVShield@@@2@XZ 000000014000c010 f i Game.obj
 0001:0000b010       ??0?$allocator@PEAVShield@@@std@@QEAA@XZ 000000014000c010 f i Game.obj
 0001:0000b010       ??0?$allocator@PEAVEnemies@@@std@@QEAA@XZ 000000014000c010 f i Game.obj
 0001:0000b010       ??0?$allocator@PEAVPotion@@@std@@QEAA@XZ 000000014000c010 f i Game.obj
 0001:0000b010       ?_Get_first@?$_Compressed_pair@U?$less@V?$basic_string@DU?$char_traits@D@std@@V?$allocator@D@2@@std@@@std@@V?$_Compressed_pair@V?$allocator@U?$_Tree_node@U?$pair@$$CBV?$basic_string@DU?$char_traits@D@std@@V?$allocator@D@2@@std@@PEAVTexture@sf@@@std@@PEAX@std@@@std@@V?$_Tree_val@U?$_Tree_simple_types@U?$pair@$$CBV?$basic_string@DU?$char_traits@D@std@@V?$allocator@D@2@@std@@PEAVTexture@sf@@@std@@@std@@@2@$00@2@$00@std@@QEBAAEBU?$less@V?$basic_string@DU?$char_traits@D@std@@V?$allocator@D@2@@std@@@2@XZ 000000014000c010 f i Game.obj
 0001:0000b010       ??0?$allocator@PEAVBullet@@@std@@QEAA@XZ 000000014000c010 f i Game.obj
 0001:0000b010       ?_Get_first@?$_Compressed_pair@V?$allocator@V?$basic_string@DU?$char_traits@D@std@@V?$allocator@D@2@@std@@@std@@V?$_Vector_val@U?$_Simple_types@V?$basic_string@DU?$char_traits@D@std@@V?$allocator@D@2@@std@@@std@@@2@$00@std@@QEAAAEAV?$allocator@V?$basic_string@DU?$char_traits@D@std@@V?$allocator@D@2@@std@@@2@XZ 000000014000c010 f i Game.obj
 0001:0000b010       ??0?$allocator@V?$vector@V?$basic_string@DU?$char_traits@D@std@@V?$allocator@D@2@@std@@V?$allocator@V?$basic_string@DU?$char_traits@D@std@@V?$allocator@D@2@@std@@@2@@std@@@std@@QEAA@XZ 000000014000c010 f i Game.obj
 0001:0000b010       ??0?$allocator@PEAVBlueEnemy@@@std@@QEAA@XZ 000000014000c010 f i Game.obj
 0001:0000b010       ?_Get_first@?$_Compressed_pair@V?$allocator@PEAVBullet@@@std@@V?$_Vector_val@U?$_Simple_types@PEAVBullet@@@std@@@2@$00@std@@QEBAAEBV?$allocator@PEAVBullet@@@2@XZ 000000014000c010 f i Game.obj
 0001:0000b010       ??0?$allocator@PEAVRedEnemy@@@std@@QEAA@XZ 000000014000c010 f i Game.obj
 0001:0000b010       ?_Get_first@?$_Compressed_pair@V?$allocator@PEAVBlueEnemy@@@std@@V?$_Vector_val@U?$_Simple_types@PEAVBlueEnemy@@@std@@@2@$00@std@@QEBAAEBV?$allocator@PEAVBlueEnemy@@@2@XZ 000000014000c010 f i Game.obj
 0001:0000b010       ?_Get_first@?$_Compressed_pair@V?$allocator@PEAVPotion@@@std@@V?$_Vector_val@U?$_Simple_types@PEAVPotion@@@std@@@2@$00@std@@QEBAAEBV?$allocator@PEAVPotion@@@2@XZ 000000014000c010 f i Game.obj
 0001:0000b010       ?_Get_first@?$_Compressed_pair@V?$allocator@U?$_Tree_node@U?$pair@$$CBV?$basic_string@DU?$char_traits@D@std@@V?$allocator@D@2@@std@@PEAVTexture@sf@@@std@@PEAX@std@@@std@@V?$_Tree_val@U?$_Tree_simple_types@U?$pair@$$CBV?$basic_string@DU?$char_traits@D@std@@V?$allocator@D@2@@std@@PEAVTexture@sf@@@std@@@std@@@2@$00@std@@QEBAAEBV?$allocator@U?$_Tree_node@U?$pair@$$CBV?$basic_string@DU?$char_traits@D@std@@V?$allocator@D@2@@std@@PEAVTexture@sf@@@std@@PEAX@std@@@2@XZ 000000014000c010 f i Game.obj
 0001:0000b010       ?_Get_first@?$_Compressed_pair@V?$allocator@V?$vector@V?$basic_string@DU?$char_traits@D@std@@V?$allocator@D@2@@std@@V?$allocator@V?$basic_string@DU?$char_traits@D@std@@V?$allocator@D@2@@std@@@2@@std@@@std@@V?$_Vector_val@U?$_Simple_types@V?$vector@V?$basic_string@DU?$char_traits@D@std@@V?$allocator@D@2@@std@@V?$allocator@V?$basic_string@DU?$char_traits@D@std@@V?$allocator@D@2@@std@@@2@@std@@@std@@@2@$00@std@@QEAAAEAV?$allocator@V?$vector@V?$basic_string@DU?$char_traits@D@std@@V?$allocator@D@2@@std@@V?$allocator@V?$basic_string@DU?$char_traits@D@std@@V?$allocator@D@2@@std@@@2@@std@@@2@XZ 000000014000c010 f i Game.obj
 0001:0000b010       ??0?$allocator@V?$basic_string@DU?$char_traits@D@std@@V?$allocator@D@2@@std@@@std@@QEAA@XZ 000000014000c010 f i Game.obj
 0001:0000b010       ?_Get_first@?$_Compressed_pair@V?$allocator@V?$vector@V?$basic_string@DU?$char_traits@D@std@@V?$allocator@D@2@@std@@V?$allocator@V?$basic_string@DU?$char_traits@D@std@@V?$allocator@D@2@@std@@@2@@std@@@std@@V?$_Vector_val@U?$_Simple_types@V?$vector@V?$basic_string@DU?$char_traits@D@std@@V?$allocator@D@2@@std@@V?$allocator@V?$basic_string@DU?$char_traits@D@std@@V?$allocator@D@2@@std@@@2@@std@@@std@@@2@$00@std@@QEBAAEBV?$allocator@V?$vector@V?$basic_string@DU?$char_traits@D@std@@V?$allocator@D@2@@std@@V?$allocator@V?$basic_string@DU?$char_traits@D@std@@V?$allocator@D@2@@std@@@2@@std@@@2@XZ 000000014000c010 f i Game.obj
 0001:0000b010       ?_Get_first@?$_Compressed_pair@V?$allocator@PEAVEnemies@@@std@@V?$_Vector_val@U?$_Simple_types@PEAVEnemies@@@std@@@2@$00@std@@QEAAAEAV?$allocator@PEAVEnemies@@@2@XZ 000000014000c010 f i Game.obj
 0001:0000b010       ?_Get_first@?$_Compressed_pair@V?$allocator@PEAVRedEnemy@@@std@@V?$_Vector_val@U?$_Simple_types@PEAVRedEnemy@@@std@@@2@$00@std@@QEBAAEBV?$allocator@PEAVRedEnemy@@@2@XZ 000000014000c010 f i Game.obj
 0001:0000b010       ?_Get_first@?$_Compressed_pair@V?$allocator@PEAVShield@@@std@@V?$_Vector_val@U?$_Simple_types@PEAVShield@@@std@@@2@$00@std@@QEAAAEAV?$allocator@PEAVShield@@@2@XZ 000000014000c010 f i Game.obj
 0001:0000b010       ?_Get_first@?$_Compressed_pair@U?$default_delete@V_Facet_base@std@@@std@@PEAV_Facet_base@2@$00@std@@QEAAAEAU?$default_delete@V_Facet_base@std@@@2@XZ 000000014000c010 f i Game.obj
 0001:0000b010       ?_Get_first@?$_Compressed_pair@V?$allocator@PEAVPotion@@@std@@V?$_Vector_val@U?$_Simple_types@PEAVPotion@@@std@@@2@$00@std@@QEAAAEAV?$allocator@PEAVPotion@@@2@XZ 000000014000c010 f i Game.obj
 0001:0000b010       ?_Get_first@?$_Compressed_pair@V?$allocator@V?$basic_string@DU?$char_traits@D@std@@V?$allocator@D@2@@std@@@std@@V?$_Vector_val@U?$_Simple_types@V?$basic_string@DU?$char_traits@D@std@@V?$allocator@D@2@@std@@@std@@@2@$00@std@@QEBAAEBV?$allocator@V?$basic_string@DU?$char_traits@D@std@@V?$allocator@D@2@@std@@@2@XZ 000000014000c010 f i Game.obj
 0001:0000b010       ?_Get_first@?$_Compressed_pair@V?$allocator@PEAVEnemies@@@std@@V?$_Vector_val@U?$_Simple_types@PEAVEnemies@@@std@@@2@$00@std@@QEBAAEBV?$allocator@PEAVEnemies@@@2@XZ 000000014000c010 f i Game.obj
 0001:0000b010       ?_Get_first@?$_Compressed_pair@V?$allocator@PEAVBullet@@@std@@V?$_Vector_val@U?$_Simple_types@PEAVBullet@@@std@@@2@$00@std@@QEAAAEAV?$allocator@PEAVBullet@@@2@XZ 000000014000c010 f i Game.obj
 0001:0000b010       ??0?$allocator@U?$_Tree_node@U?$pair@$$CBV?$basic_string@DU?$char_traits@D@std@@V?$allocator@D@2@@std@@PEAVTexture@sf@@@std@@PEAX@std@@@std@@QEAA@XZ 000000014000c010 f i Game.obj
 0001:0000b010       ?_Get_first@?$_Compressed_pair@V?$allocator@PEAVBlueEnemy@@@std@@V?$_Vector_val@U?$_Simple_types@PEAVBlueEnemy@@@std@@@2@$00@std@@QEAAAEAV?$allocator@PEAVBlueEnemy@@@2@XZ 000000014000c010 f i Game.obj
 0001:0000b090       ??0?$basic_filebuf@DU?$char_traits@D@std@@@std@@QEAA@XZ 000000014000c090 f i Game.obj
 0001:0000b0f0       ??0?$basic_fstream@DU?$char_traits@D@std@@@std@@QEAA@XZ 000000014000c0f0 f i Game.obj
 0001:0000b1f0       ??0?$basic_ifstream@DU?$char_traits@D@std@@@std@@QEAA@PEBDHH@Z 000000014000c1f0 f i Game.obj
 0001:0000b340       ??0?$basic_ifstream@DU?$char_traits@D@std@@@std@@QEAA@XZ 000000014000c340 f i Game.obj
 0001:0000b440       ??0?$basic_string@DU?$char_traits@D@std@@V?$allocator@D@2@@std@@QEAA@$$QEAV01@@Z 000000014000c440 f i Game.obj
 0001:0000b4f0       ??0?$basic_string@DU?$char_traits@D@std@@V?$allocator@D@2@@std@@QEAA@AEBV01@@Z 000000014000c4f0 f i Game.obj
 0001:0000b610       ??0?$basic_string@DU?$char_traits@D@std@@V?$allocator@D@2@@std@@QEAA@AEBV?$allocator@D@1@@Z 000000014000c610 f i Game.obj
 0001:0000b690       ??0?$basic_string@DU?$char_traits@D@std@@V?$allocator@D@2@@std@@QEAA@U_String_constructor_concat_tag@1@AEAV01@1@Z 000000014000c690 f i Game.obj
 0001:0000bbc0       ??0?$basic_string@DU?$char_traits@D@std@@V?$allocator@D@2@@std@@QEAA@U_String_constructor_concat_tag@1@AEBV01@QEBD_K23@Z 000000014000cbc0 f i Game.obj
 0001:0000be40       ??0?$basic_string@DU?$char_traits@D@std@@V?$allocator@D@2@@std@@QEAA@XZ 000000014000ce40 f i Game.obj
 0001:0000bec0       ??0?$basic_stringbuf@DU?$char_traits@D@std@@V?$allocator@D@2@@std@@QEAA@H@Z 000000014000cec0 f i Game.obj
 0001:0000bf50       ??0?$basic_stringstream@DU?$char_traits@D@std@@V?$allocator@D@2@@std@@QEAA@XZ 000000014000cf50 f i Game.obj
 0001:0000c060       ??0?$fpos@U_Mbstatet@@@std@@QEAA@U_Mbstatet@@_J@Z 000000014000d060 f i Game.obj
 0001:0000c0d0       ??0?$fpos@U_Mbstatet@@@std@@QEAA@_J@Z 000000014000d0d0 f i Game.obj
 0001:0000c140       ??0?$map@V?$basic_string@DU?$char_traits@D@std@@V?$allocator@D@2@@std@@PEAVTexture@sf@@U?$less@V?$basic_string@DU?$char_traits@D@std@@V?$allocator@D@2@@std@@@2@V?$allocator@U?$pair@$$CBV?$basic_string@DU?$char_traits@D@std@@V?$allocator@D@2@@std@@PEAVTexture@sf@@@std@@@2@@std@@QEAA@XZ 000000014000d140 f i Game.obj
 0001:0000c190       ??0?$tuple@$$QEAV?$basic_string@DU?$char_traits@D@std@@V?$allocator@D@2@@std@@@std@@QEAA@$$QEAV01@@Z 000000014000d190 f i Game.obj
 0001:0000c1f0       ??0?$tuple@$$V@std@@QEAA@AEBV01@@Z 000000014000d1f0 f i Game.obj
 0001:0000c230       ??0?$tuple@$$V@std@@QEAA@XZ 000000014000d230 f i Game.obj
 0001:0000c270       ??0?$vector@V?$basic_string@DU?$char_traits@D@std@@V?$allocator@D@2@@std@@V?$allocator@V?$basic_string@DU?$char_traits@D@std@@V?$allocator@D@2@@std@@@2@@std@@QEAA@XZ 000000014000d270 f i Game.obj
 0001:0000c270       ??0?$vector@PEAVBullet@@V?$allocator@PEAVBullet@@@std@@@std@@QEAA@XZ 000000014000d270 f i Game.obj
 0001:0000c270       ??0?$vector@PEAVShield@@V?$allocator@PEAVShield@@@std@@@std@@QEAA@XZ 000000014000d270 f i Game.obj
 0001:0000c270       ??0?$vector@V?$vector@V?$basic_string@DU?$char_traits@D@std@@V?$allocator@D@2@@std@@V?$allocator@V?$basic_string@DU?$char_traits@D@std@@V?$allocator@D@2@@std@@@2@@std@@V?$allocator@V?$vector@V?$basic_string@DU?$char_traits@D@std@@V?$allocator@D@2@@std@@V?$allocator@V?$basic_string@DU?$char_traits@D@std@@V?$allocator@D@2@@std@@@2@@std@@@2@@std@@QEAA@XZ 000000014000d270 f i Game.obj
 0001:0000c270       ??0?$vector@PEAVPotion@@V?$allocator@PEAVPotion@@@std@@@std@@QEAA@XZ 000000014000d270 f i Game.obj
 0001:0000c270       ??0?$vector@PEAVBlueEnemy@@V?$allocator@PEAVBlueEnemy@@@std@@@std@@QEAA@XZ 000000014000d270 f i Game.obj
 0001:0000c270       ??0?$vector@PEAVEnemies@@V?$allocator@PEAVEnemies@@@std@@@std@@QEAA@XZ 000000014000d270 f i Game.obj
 0001:0000c270       ??0?$vector@PEAVRedEnemy@@V?$allocator@PEAVRedEnemy@@@std@@@std@@QEAA@XZ 000000014000d270 f i Game.obj
 0001:0000c350       ??0?$vector@V?$basic_string@DU?$char_traits@D@std@@V?$allocator@D@2@@std@@V?$allocator@V?$basic_string@DU?$char_traits@D@std@@V?$allocator@D@2@@std@@@2@@std@@QEAA@$$QEAV01@@Z 000000014000d350 f i Game.obj
 0001:0000c400       ??0?$vector@V?$basic_string@DU?$char_traits@D@std@@V?$allocator@D@2@@std@@V?$allocator@V?$basic_string@DU?$char_traits@D@std@@V?$allocator@D@2@@std@@@2@@std@@QEAA@AEBV01@@Z 000000014000d400 f i Game.obj
 0001:0000c5c0       ??0ContextSettings@sf@@QEAA@IIIIII_N@Z 000000014000d5c0 f i Game.obj
 0001:0000c660       ??0Game@@QEAA@XZ           000000014000d660 f   Game.obj
 0001:0000cf20       ??0_Iterator_base12@std@@QEAA@AEBU01@@Z 000000014000df20 f i Game.obj
 0001:0000cf90       ??0_Iterator_base12@std@@QEAA@XZ 000000014000df90 f i Game.obj
 0001:0000cfe0       ??0_Sentry_base@?$basic_istream@DU?$char_traits@D@std@@@std@@QEAA@AEAV12@@Z 000000014000dfe0 f i Game.obj
 0001:0000d080       ??0bad_cast@std@@QEAA@AEBV01@@Z 000000014000e080 f i Game.obj
 0001:0000d0d0       ??0bad_cast@std@@QEAA@XZ   000000014000e0d0 f i Game.obj
 0001:0000d130       ??0locale@std@@QEAA@XZ     000000014000e130 f i Game.obj
 0001:0000d180       ??0sentry@?$basic_istream@DU?$char_traits@D@std@@@std@@QEAA@AEAV12@_N@Z 000000014000e180 f i Game.obj
 0001:0000d1f0       ??1?$_Alloc_construct_ptr@V?$allocator@U?$_Tree_node@U?$pair@$$CBV?$basic_string@DU?$char_traits@D@std@@V?$allocator@D@2@@std@@PEAVTexture@sf@@@std@@PEAX@std@@@std@@@std@@QEAA@XZ 000000014000e1f0 f i Game.obj
 0001:0000d250       ??1?$_Tidy_guard@V?$vector@V?$basic_string@DU?$char_traits@D@std@@V?$allocator@D@2@@std@@V?$allocator@V?$basic_string@DU?$char_traits@D@std@@V?$allocator@D@2@@std@@@2@@std@@@std@@QEAA@XZ 000000014000e250 f i Game.obj
 0001:0000d2a0       ??1?$_Tree@V?$_Tmap_traits@V?$basic_string@DU?$char_traits@D@std@@V?$allocator@D@2@@std@@PEAVTexture@sf@@U?$less@V?$basic_string@DU?$char_traits@D@std@@V?$allocator@D@2@@std@@@2@V?$allocator@U?$pair@$$CBV?$basic_string@DU?$char_traits@D@std@@V?$allocator@D@2@@std@@PEAVTexture@sf@@@std@@@2@$0A@@std@@@std@@QEAA@XZ 000000014000e2a0 f i Game.obj
 0001:0000d360       ??1?$_Tree_temp_node@V?$allocator@U?$_Tree_node@U?$pair@$$CBV?$basic_string@DU?$char_traits@D@std@@V?$allocator@D@2@@std@@PEAVTexture@sf@@@std@@PEAX@std@@@std@@@std@@QEAA@XZ 000000014000e360 f i Game.obj
 0001:0000d410       ??1?$_Tree_temp_node_alloc@V?$allocator@U?$_Tree_node@U?$pair@$$CBV?$basic_string@DU?$char_traits@D@std@@V?$allocator@D@2@@std@@PEAVTexture@sf@@@std@@PEAX@std@@@std@@@std@@QEAA@XZ 000000014000e410 f i Game.obj
 0001:0000d490       ??1?$_Uninitialized_backout_al@V?$allocator@V?$basic_string@DU?$char_traits@D@std@@V?$allocator@D@2@@std@@@std@@@std@@QEAA@XZ 000000014000e490 f i Game.obj
 0001:0000d4e0       ??1?$_Uninitialized_backout_al@V?$allocator@V?$vector@V?$basic_string@DU?$char_traits@D@std@@V?$allocator@D@2@@std@@V?$allocator@V?$basic_string@DU?$char_traits@D@std@@V?$allocator@D@2@@std@@@2@@std@@@std@@@std@@QEAA@XZ 000000014000e4e0 f i Game.obj
 0001:0000d530       ??1?$_Vector_const_iterator@V?$_Vector_val@U?$_Simple_types@PEAVPotion@@@std@@@std@@@std@@QEAA@XZ 000000014000e530 f i Game.obj
 0001:0000d530       ??1?$_Vector_const_iterator@V?$_Vector_val@U?$_Simple_types@PEAVBlueEnemy@@@std@@@std@@@std@@QEAA@XZ 000000014000e530 f i Game.obj
 0001:0000d530       ??1?$_Vector_const_iterator@V?$_Vector_val@U?$_Simple_types@PEAVBullet@@@std@@@std@@@std@@QEAA@XZ 000000014000e530 f i Game.obj
 0001:0000d530       ??1?$_Vector_const_iterator@V?$_Vector_val@U?$_Simple_types@PEAVEnemies@@@std@@@std@@@std@@QEAA@XZ 000000014000e530 f i Game.obj
 0001:0000d530       ??1?$_Vector_const_iterator@V?$_Vector_val@U?$_Simple_types@PEAVShield@@@std@@@std@@@std@@QEAA@XZ 000000014000e530 f i Game.obj
 0001:0000d530       ??1?$_Vector_const_iterator@V?$_Vector_val@U?$_Simple_types@PEAVRedEnemy@@@std@@@std@@@std@@QEAA@XZ 000000014000e530 f i Game.obj
 0001:0000d590       ??1?$_Vector_iterator@V?$_Vector_val@U?$_Simple_types@PEAVBlueEnemy@@@std@@@std@@@std@@QEAA@XZ 000000014000e590 f i Game.obj
 0001:0000d590       ??1?$_Vector_iterator@V?$_Vector_val@U?$_Simple_types@PEAVEnemies@@@std@@@std@@@std@@QEAA@XZ 000000014000e590 f i Game.obj
 0001:0000d590       ??1?$_Vector_iterator@V?$_Vector_val@U?$_Simple_types@PEAVRedEnemy@@@std@@@std@@@std@@QEAA@XZ 000000014000e590 f i Game.obj
 0001:0000d590       ??1?$_Vector_iterator@V?$_Vector_val@U?$_Simple_types@PEAVShield@@@std@@@std@@@std@@QEAA@XZ 000000014000e590 f i Game.obj
 0001:0000d590       ??1?$_Vector_iterator@V?$_Vector_val@U?$_Simple_types@PEAVPotion@@@std@@@std@@@std@@QEAA@XZ 000000014000e590 f i Game.obj
 0001:0000d590       ??1?$_Vector_iterator@V?$_Vector_val@U?$_Simple_types@PEAVBullet@@@std@@@std@@@std@@QEAA@XZ 000000014000e590 f i Game.obj
 0001:0000d5f0       ??1?$basic_filebuf@DU?$char_traits@D@std@@@std@@UEAA@XZ 000000014000e5f0 f i Game.obj
 0001:0000d670       ??1?$basic_fstream@DU?$char_traits@D@std@@@std@@UEAA@XZ 000000014000e670 f i Game.obj
 0001:0000d720       ??1?$basic_ifstream@DU?$char_traits@D@std@@@std@@UEAA@XZ 000000014000e720 f i Game.obj
 0001:0000d7d0       ??1?$basic_stringbuf@DU?$char_traits@D@std@@V?$allocator@D@2@@std@@UEAA@XZ 000000014000e7d0 f i Game.obj
 0001:0000d830       ??1?$basic_stringstream@DU?$char_traits@D@std@@V?$allocator@D@2@@std@@UEAA@XZ 000000014000e830 f i Game.obj
 0001:0000d8e0       ??1?$map@V?$basic_string@DU?$char_traits@D@std@@V?$allocator@D@2@@std@@PEAVTexture@sf@@U?$less@V?$basic_string@DU?$char_traits@D@std@@V?$allocator@D@2@@std@@@2@V?$allocator@U?$pair@$$CBV?$basic_string@DU?$char_traits@D@std@@V?$allocator@D@2@@std@@PEAVTexture@sf@@@std@@@2@@std@@QEAA@XZ 000000014000e8e0 f i Game.obj
 0001:0000d910       ??1?$pair@$$CBV?$basic_string@DU?$char_traits@D@std@@V?$allocator@D@2@@std@@PEAVTexture@sf@@@std@@QEAA@XZ 000000014000e910 f i Game.obj
 0001:0000d950       ??1?$unique_ptr@V_Facet_base@std@@U?$default_delete@V_Facet_base@std@@@2@@std@@QEAA@XZ 000000014000e950 f i Game.obj
 0001:0000d9b0       ??1?$vector@PEAVBlueEnemy@@V?$allocator@PEAVBlueEnemy@@@std@@@std@@QEAA@XZ 000000014000e9b0 f i Game.obj
 0001:0000da60       ??1?$vector@PEAVBullet@@V?$allocator@PEAVBullet@@@std@@@std@@QEAA@XZ 000000014000ea60 f i Game.obj
 0001:0000db10       ??1?$vector@PEAVEnemies@@V?$allocator@PEAVEnemies@@@std@@@std@@QEAA@XZ 000000014000eb10 f i Game.obj
 0001:0000dbc0       ??1?$vector@PEAVPotion@@V?$allocator@PEAVPotion@@@std@@@std@@QEAA@XZ 000000014000ebc0 f i Game.obj
 0001:0000dc70       ??1?$vector@PEAVRedEnemy@@V?$allocator@PEAVRedEnemy@@@std@@@std@@QEAA@XZ 000000014000ec70 f i Game.obj
 0001:0000dd20       ??1?$vector@PEAVShield@@V?$allocator@PEAVShield@@@std@@@std@@QEAA@XZ 000000014000ed20 f i Game.obj
 0001:0000de80       ??1?$vector@V?$basic_string@DU?$char_traits@D@std@@V?$allocator@D@2@@std@@V?$allocator@V?$basic_string@DU?$char_traits@D@std@@V?$allocator@D@2@@std@@@2@@std@@QEAA@XZ 000000014000ee80 f i Game.obj
 0001:0000df30       ??1?$vector@V?$vector@V?$basic_string@DU?$char_traits@D@std@@V?$allocator@D@2@@std@@V?$allocator@V?$basic_string@DU?$char_traits@D@std@@V?$allocator@D@2@@std@@@2@@std@@V?$allocator@V?$vector@V?$basic_string@DU?$char_traits@D@std@@V?$allocator@D@2@@std@@V?$allocator@V?$basic_string@DU?$char_traits@D@std@@V?$allocator@D@2@@std@@@2@@std@@@2@@std@@QEAA@XZ 000000014000ef30 f i Game.obj
 0001:0000dfe0       ??1Game@@UEAA@XZ           000000014000efe0 f   Game.obj
 0001:0000eb80       ??1_Iterator_base12@std@@QEAA@XZ 000000014000fb80 f i Game.obj
 0001:0000ec00       ??1_Sentry_base@?$basic_istream@DU?$char_traits@D@std@@@std@@QEAA@XZ 000000014000fc00 f i Game.obj
 0001:0000ec80       ??1locale@std@@QEAA@XZ     000000014000fc80 f i Game.obj
 0001:0000ed10       ??1sentry@?$basic_istream@DU?$char_traits@D@std@@@std@@QEAA@XZ 000000014000fd10 f i Game.obj
 0001:0000ed40       ??4?$basic_string@DU?$char_traits@D@std@@V?$allocator@D@2@@std@@QEAAAEAV01@$$QEAV01@@Z 000000014000fd40 f i Game.obj
 0001:0000edc0       ??4?$basic_string@DU?$char_traits@D@std@@V?$allocator@D@2@@std@@QEAAAEAV01@AEBV01@@Z 000000014000fdc0 f i Game.obj
 0001:0000ee90       ??4_Iterator_base12@std@@QEAAAEAU01@AEBU01@@Z 000000014000fe90 f i Game.obj
 0001:0000ef60       ??9?$_Tree_unchecked_const_iterator@V?$_Tree_val@U?$_Tree_simple_types@U?$pair@$$CBV?$basic_string@DU?$char_traits@D@std@@V?$allocator@D@2@@std@@PEAVTexture@sf@@@std@@@std@@@std@@U_Iterator_base0@2@@std@@QEBA_NU_Default_sentinel@1@@Z 000000014000ff60 f i Game.obj
 0001:0000efc0       ??A?$map@V?$basic_string@DU?$char_traits@D@std@@V?$allocator@D@2@@std@@PEAVTexture@sf@@U?$less@V?$basic_string@DU?$char_traits@D@std@@V?$allocator@D@2@@std@@@2@V?$allocator@U?$pair@$$CBV?$basic_string@DU?$char_traits@D@std@@V?$allocator@D@2@@std@@PEAVTexture@sf@@@std@@@2@@std@@QEAAAEAPEAVTexture@sf@@$$QEAV?$basic_string@DU?$char_traits@D@std@@V?$allocator@D@2@@1@@Z 000000014000ffc0 f i Game.obj
 0001:0000f020       ??A?$vector@PEAVBlueEnemy@@V?$allocator@PEAVBlueEnemy@@@std@@@std@@QEAAAEAPEAVBlueEnemy@@_K@Z 0000000140010020 f i Game.obj
 0001:0000f110       ??A?$vector@PEAVBullet@@V?$allocator@PEAVBullet@@@std@@@std@@QEAAAEAPEAVBullet@@_K@Z 0000000140010110 f i Game.obj
 0001:0000f200       ??A?$vector@PEAVEnemies@@V?$allocator@PEAVEnemies@@@std@@@std@@QEAAAEAPEAVEnemies@@_K@Z 0000000140010200 f i Game.obj
 0001:0000f2f0       ??A?$vector@PEAVPotion@@V?$allocator@PEAVPotion@@@std@@@std@@QEAAAEAPEAVPotion@@_K@Z 00000001400102f0 f i Game.obj
 0001:0000f3e0       ??A?$vector@PEAVRedEnemy@@V?$allocator@PEAVRedEnemy@@@std@@@std@@QEAAAEAPEAVRedEnemy@@_K@Z 00000001400103e0 f i Game.obj
 0001:0000f4d0       ??A?$vector@V?$basic_string@DU?$char_traits@D@std@@V?$allocator@D@2@@std@@V?$allocator@V?$basic_string@DU?$char_traits@D@std@@V?$allocator@D@2@@std@@@2@@std@@QEAAAEAV?$basic_string@DU?$char_traits@D@std@@V?$allocator@D@2@@1@_K@Z 00000001400104d0 f i Game.obj
 0001:0000f5c0       ??A?$vector@V?$vector@V?$basic_string@DU?$char_traits@D@std@@V?$allocator@D@2@@std@@V?$allocator@V?$basic_string@DU?$char_traits@D@std@@V?$allocator@D@2@@std@@@2@@std@@V?$allocator@V?$vector@V?$basic_string@DU?$char_traits@D@std@@V?$allocator@D@2@@std@@V?$allocator@V?$basic_string@DU?$char_traits@D@std@@V?$allocator@D@2@@std@@@2@@std@@@2@@std@@QEAAAEAV?$vector@V?$basic_string@DU?$char_traits@D@std@@V?$allocator@D@2@@std@@V?$allocator@V?$basic_string@DU?$char_traits@D@std@@V?$allocator@D@2@@std@@@2@@1@_K@Z 00000001400105c0 f i Game.obj
 0001:0000f6b0       ??B?$fpos@U_Mbstatet@@@std@@QEBA_JXZ 00000001400106b0 f i Game.obj
 0001:0000f700       ??Bsentry@?$basic_istream@DU?$char_traits@D@std@@@std@@QEBA_NXZ 0000000140010700 f i Game.obj
 0001:0000f740       ??D?$_Tree_unchecked_const_iterator@V?$_Tree_val@U?$_Tree_simple_types@U?$pair@$$CBV?$basic_string@DU?$char_traits@D@std@@V?$allocator@D@2@@std@@PEAVTexture@sf@@@std@@@std@@@std@@U_Iterator_base0@2@@std@@QEBAAEBU?$pair@$$CBV?$basic_string@DU?$char_traits@D@std@@V?$allocator@D@2@@std@@PEAVTexture@sf@@@1@XZ 0000000140010740 f i Game.obj
 0001:0000f780       ??D?$_Tree_unchecked_iterator@V?$_Tree_val@U?$_Tree_simple_types@U?$pair@$$CBV?$basic_string@DU?$char_traits@D@std@@V?$allocator@D@2@@std@@PEAVTexture@sf@@@std@@@std@@@std@@@std@@QEBAAEAU?$pair@$$CBV?$basic_string@DU?$char_traits@D@std@@V?$allocator@D@2@@std@@PEAVTexture@sf@@@1@XZ 0000000140010780 f i Game.obj
 0001:0000f7c0       ??E?$_Tree_unchecked_const_iterator@V?$_Tree_val@U?$_Tree_simple_types@U?$pair@$$CBV?$basic_string@DU?$char_traits@D@std@@V?$allocator@D@2@@std@@PEAVTexture@sf@@@std@@@std@@@std@@U_Iterator_base0@2@@std@@QEAAAEAV01@XZ 00000001400107c0 f i Game.obj
 0001:0000f880       ??E?$_Tree_unchecked_iterator@V?$_Tree_val@U?$_Tree_simple_types@U?$pair@$$CBV?$basic_string@DU?$char_traits@D@std@@V?$allocator@D@2@@std@@PEAVTexture@sf@@@std@@@std@@@std@@@std@@QEAAAEAV01@XZ 0000000140010880 f i Game.obj
 0001:0000f8c0       ??H?$_Vector_iterator@V?$_Vector_val@U?$_Simple_types@PEAVBlueEnemy@@@std@@@std@@@std@@QEBA?AV01@_J@Z 00000001400108c0 f i Game.obj
 0001:0000f980       ??H?$_Vector_iterator@V?$_Vector_val@U?$_Simple_types@PEAVBullet@@@std@@@std@@@std@@QEBA?AV01@_J@Z 0000000140010980 f i Game.obj
 0001:0000fa40       ??H?$_Vector_iterator@V?$_Vector_val@U?$_Simple_types@PEAVEnemies@@@std@@@std@@@std@@QEBA?AV01@_J@Z 0000000140010a40 f i Game.obj
 0001:0000fb00       ??H?$_Vector_iterator@V?$_Vector_val@U?$_Simple_types@PEAVPotion@@@std@@@std@@@std@@QEBA?AV01@_J@Z 0000000140010b00 f i Game.obj
 0001:0000fbc0       ??H?$_Vector_iterator@V?$_Vector_val@U?$_Simple_types@PEAVRedEnemy@@@std@@@std@@@std@@QEBA?AV01@_J@Z 0000000140010bc0 f i Game.obj
 0001:0000fc80       ??H?$_Vector_iterator@V?$_Vector_val@U?$_Simple_types@PEAVShield@@@std@@@std@@@std@@QEBA?AV01@_J@Z 0000000140010c80 f i Game.obj
 0001:0000fd40       ??R<lambda_319d5e083f45f90dcdce5dce53cbb275>@@QEBAXQEADQEBD_KD@Z 0000000140010d40 f i Game.obj
 0001:0000fde0       ??R<lambda_65e615be2a453ca0576c979606f46740>@@QEBAXQEADQEBD_K12@Z 0000000140010de0 f i Game.obj
 0001:0000ff10       ??R?$default_delete@V_Facet_base@std@@@std@@QEBAXPEAV_Facet_base@1@@Z 0000000140010f10 f i Game.obj
 0001:0000ff80       ??R?$less@V?$basic_string@DU?$char_traits@D@std@@V?$allocator@D@2@@std@@@std@@QEBA_NAEBV?$basic_string@DU?$char_traits@D@std@@V?$allocator@D@2@@1@0@Z 0000000140010f80 f i Game.obj
 0001:0000ffd0       ??Y?$_Vector_const_iterator@V?$_Vector_val@U?$_Simple_types@PEAVBlueEnemy@@@std@@@std@@@std@@QEAAAEAV01@_J@Z 0000000140010fd0 f i Game.obj
 0001:00010040       ??Y?$_Vector_const_iterator@V?$_Vector_val@U?$_Simple_types@PEAVBullet@@@std@@@std@@@std@@QEAAAEAV01@_J@Z 0000000140011040 f i Game.obj
 0001:000100b0       ??Y?$_Vector_const_iterator@V?$_Vector_val@U?$_Simple_types@PEAVEnemies@@@std@@@std@@@std@@QEAAAEAV01@_J@Z 00000001400110b0 f i Game.obj
 0001:00010120       ??Y?$_Vector_const_iterator@V?$_Vector_val@U?$_Simple_types@PEAVPotion@@@std@@@std@@@std@@QEAAAEAV01@_J@Z 0000000140011120 f i Game.obj
 0001:00010190       ??Y?$_Vector_const_iterator@V?$_Vector_val@U?$_Simple_types@PEAVRedEnemy@@@std@@@std@@@std@@QEAAAEAV01@_J@Z 0000000140011190 f i Game.obj
 0001:00010200       ??Y?$_Vector_const_iterator@V?$_Vector_val@U?$_Simple_types@PEAVShield@@@std@@@std@@@std@@QEAAAEAV01@_J@Z 0000000140011200 f i Game.obj
 0001:00010270       ??Y?$_Vector_iterator@V?$_Vector_val@U?$_Simple_types@PEAVBlueEnemy@@@std@@@std@@@std@@QEAAAEAV01@_J@Z 0000000140011270 f i Game.obj
 0001:000102c0       ??Y?$_Vector_iterator@V?$_Vector_val@U?$_Simple_types@PEAVBullet@@@std@@@std@@@std@@QEAAAEAV01@_J@Z 00000001400112c0 f i Game.obj
 0001:00010310       ??Y?$_Vector_iterator@V?$_Vector_val@U?$_Simple_types@PEAVEnemies@@@std@@@std@@@std@@QEAAAEAV01@_J@Z 0000000140011310 f i Game.obj
 0001:00010360       ??Y?$_Vector_iterator@V?$_Vector_val@U?$_Simple_types@PEAVPotion@@@std@@@std@@@std@@QEAAAEAV01@_J@Z 0000000140011360 f i Game.obj
 0001:000103b0       ??Y?$_Vector_iterator@V?$_Vector_val@U?$_Simple_types@PEAVRedEnemy@@@std@@@std@@@std@@QEAAAEAV01@_J@Z 00000001400113b0 f i Game.obj
 0001:00010400       ??Y?$_Vector_iterator@V?$_Vector_val@U?$_Simple_types@PEAVShield@@@std@@@std@@@std@@QEAAAEAV01@_J@Z 0000000140011400 f i Game.obj
 0001:00010450       ??Y?$basic_string@DU?$char_traits@D@std@@V?$allocator@D@2@@std@@QEAAAEAV01@D@Z 0000000140011450 f i Game.obj
 0001:000104a0       ??_D?$basic_fstream@DU?$char_traits@D@std@@@std@@QEAAXXZ 00000001400114a0 f i Game.obj
 0001:000104f0       ??_D?$basic_ifstream@DU?$char_traits@D@std@@@std@@QEAAXXZ 00000001400114f0 f i Game.obj
 0001:00010540       ??_D?$basic_stringstream@DU?$char_traits@D@std@@V?$allocator@D@2@@std@@QEAAXXZ 0000000140011540 f i Game.obj
 0001:0001058c       ??_E?$basic_fstream@DU?$char_traits@D@std@@@std@@$4PPPPPPPM@A@EAAPEAXI@Z 000000014001158c f i Game.obj
 0001:00010598       ??_E?$basic_ifstream@DU?$char_traits@D@std@@@std@@$4PPPPPPPM@A@EAAPEAXI@Z 0000000140011598 f i Game.obj
 0001:000105a4       ??_E?$basic_stringstream@DU?$char_traits@D@std@@V?$allocator@D@2@@std@@$4PPPPPPPM@A@EAAPEAXI@Z 00000001400115a4 f i Game.obj
 0001:000105b0       ??_ERenderWindow@sf@@WDI@EAAPEAXI@Z 00000001400115b0 f i Game.obj
 0001:000105c0       ??_G?$basic_filebuf@DU?$char_traits@D@std@@@std@@UEAAPEAXI@Z 00000001400115c0 f i Game.obj
 0001:000105c0       ??_E?$basic_filebuf@DU?$char_traits@D@std@@@std@@UEAAPEAXI@Z 00000001400115c0 f i Game.obj
 0001:00010620       ??_E?$basic_fstream@DU?$char_traits@D@std@@@std@@UEAAPEAXI@Z 0000000140011620 f i Game.obj
 0001:00010620       ??_G?$basic_fstream@DU?$char_traits@D@std@@@std@@UEAAPEAXI@Z 0000000140011620 f i Game.obj
 0001:00010690       ??_E?$basic_ifstream@DU?$char_traits@D@std@@@std@@UEAAPEAXI@Z 0000000140011690 f i Game.obj
 0001:00010690       ??_G?$basic_ifstream@DU?$char_traits@D@std@@@std@@UEAAPEAXI@Z 0000000140011690 f i Game.obj
 0001:00010700       ??_G?$basic_string@DU?$char_traits@D@std@@V?$allocator@D@2@@std@@QEAAPEAXI@Z 0000000140011700 f i Game.obj
 0001:00010760       ??_E?$basic_stringbuf@DU?$char_traits@D@std@@V?$allocator@D@2@@std@@UEAAPEAXI@Z 0000000140011760 f i Game.obj
 0001:00010760       ??_G?$basic_stringbuf@DU?$char_traits@D@std@@V?$allocator@D@2@@std@@UEAAPEAXI@Z 0000000140011760 f i Game.obj
 0001:000107c0       ??_G?$basic_stringstream@DU?$char_traits@D@std@@V?$allocator@D@2@@std@@UEAAPEAXI@Z 00000001400117c0 f i Game.obj
 0001:000107c0       ??_E?$basic_stringstream@DU?$char_traits@D@std@@V?$allocator@D@2@@std@@UEAAPEAXI@Z 00000001400117c0 f i Game.obj
 0001:00010830       ??_G?$pair@$$CBV?$basic_string@DU?$char_traits@D@std@@V?$allocator@D@2@@std@@PEAVTexture@sf@@@std@@QEAAPEAXI@Z 0000000140011830 f i Game.obj
 0001:00010890       ??_G?$vector@V?$basic_string@DU?$char_traits@D@std@@V?$allocator@D@2@@std@@V?$allocator@V?$basic_string@DU?$char_traits@D@std@@V?$allocator@D@2@@std@@@2@@std@@QEAAPEAXI@Z 0000000140011890 f i Game.obj
 0001:000108f0       ??_EGame@@UEAAPEAXI@Z      00000001400118f0 f i Game.obj
 0001:000108f0       ??_GGame@@UEAAPEAXI@Z      00000001400118f0 f i Game.obj
 0001:000109b0       ??_ERenderWindow@sf@@UEAAPEAXI@Z 00000001400119b0 f i Game.obj
 0001:000109b0       ??_GRenderWindow@sf@@UEAAPEAXI@Z 00000001400119b0 f i Game.obj
 0001:00010a10       ??_GTexture@sf@@QEAAPEAXI@Z 0000000140011a10 f i Game.obj
 0001:00010a70       ?LobThangMod@Game@@AEAAXXZ 0000000140011a70 f   Game.obj
 0001:00010fb0       ?_Adopt@_Iterator_base12@std@@QEAAXPEBU_Container_base12@2@@Z 0000000140011fb0 f i Game.obj
 0001:000110e0       ?_Alloc_sentinel_and_proxy@?$_Tree@V?$_Tmap_traits@V?$basic_string@DU?$char_traits@D@std@@V?$allocator@D@2@@std@@PEAVTexture@sf@@U?$less@V?$basic_string@DU?$char_traits@D@std@@V?$allocator@D@2@@std@@@2@V?$allocator@U?$pair@$$CBV?$basic_string@DU?$char_traits@D@std@@V?$allocator@D@2@@std@@PEAVTexture@sf@@@std@@@2@$0A@@std@@@std@@IEAAXXZ 00000001400120e0 f i Game.obj
 0001:000111d0       ?_Allocate@?$_Alloc_construct_ptr@V?$allocator@U?$_Tree_node@U?$pair@$$CBV?$basic_string@DU?$char_traits@D@std@@V?$allocator@D@2@@std@@PEAVTexture@sf@@@std@@PEAX@std@@@std@@@std@@QEAAXXZ 00000001400121d0 f i Game.obj
 0001:00011230       ?_Buy_raw@?$vector@V?$basic_string@DU?$char_traits@D@std@@V?$allocator@D@2@@std@@V?$allocator@V?$basic_string@DU?$char_traits@D@std@@V?$allocator@D@2@@std@@@2@@std@@AEAAX_K@Z 0000000140012230 f i Game.obj
 0001:000112f0       ?_Calculate_growth@?$vector@PEAVPotion@@V?$allocator@PEAVPotion@@@std@@@std@@AEBA_K_K@Z 00000001400122f0 f i Game.obj
 0001:000112f0       ?_Calculate_growth@?$vector@PEAVBullet@@V?$allocator@PEAVBullet@@@std@@@std@@AEBA_K_K@Z 00000001400122f0 f i Game.obj
 0001:000112f0       ?_Calculate_growth@?$vector@PEAVRedEnemy@@V?$allocator@PEAVRedEnemy@@@std@@@std@@AEBA_K_K@Z 00000001400122f0 f i Game.obj
 0001:000112f0       ?_Calculate_growth@?$vector@PEAVEnemies@@V?$allocator@PEAVEnemies@@@std@@@std@@AEBA_K_K@Z 00000001400122f0 f i Game.obj
 0001:000112f0       ?_Calculate_growth@?$vector@PEAVBlueEnemy@@V?$allocator@PEAVBlueEnemy@@@std@@@std@@AEBA_K_K@Z 00000001400122f0 f i Game.obj
 0001:000112f0       ?_Calculate_growth@?$vector@PEAVShield@@V?$allocator@PEAVShield@@@std@@@std@@AEBA_K_K@Z 00000001400122f0 f i Game.obj
 0001:00011470       ?_Calculate_growth@?$vector@V?$basic_string@DU?$char_traits@D@std@@V?$allocator@D@2@@std@@V?$allocator@V?$basic_string@DU?$char_traits@D@std@@V?$allocator@D@2@@std@@@2@@std@@AEBA_K_K@Z 0000000140012470 f i Game.obj
 0001:00011530       ?_Calculate_growth@?$vector@V?$vector@V?$basic_string@DU?$char_traits@D@std@@V?$allocator@D@2@@std@@V?$allocator@V?$basic_string@DU?$char_traits@D@std@@V?$allocator@D@2@@std@@@2@@std@@V?$allocator@V?$vector@V?$basic_string@DU?$char_traits@D@std@@V?$allocator@D@2@@std@@V?$allocator@V?$basic_string@DU?$char_traits@D@std@@V?$allocator@D@2@@std@@@2@@std@@@2@@std@@AEBA_K_K@Z 0000000140012530 f i Game.obj
 0001:000115f0       ?_Change_array@?$vector@PEAVBlueEnemy@@V?$allocator@PEAVBlueEnemy@@@std@@@std@@AEAAXQEAPEAVBlueEnemy@@_K1@Z 00000001400125f0 f i Game.obj
 0001:000115f0       ?_Change_array@?$vector@PEAVPotion@@V?$allocator@PEAVPotion@@@std@@@std@@AEAAXQEAPEAVPotion@@_K1@Z 00000001400125f0 f i Game.obj
 0001:000115f0       ?_Change_array@?$vector@PEAVRedEnemy@@V?$allocator@PEAVRedEnemy@@@std@@@std@@AEAAXQEAPEAVRedEnemy@@_K1@Z 00000001400125f0 f i Game.obj
 0001:000115f0       ?_Change_array@?$vector@PEAVBullet@@V?$allocator@PEAVBullet@@@std@@@std@@AEAAXQEAPEAVBullet@@_K1@Z 00000001400125f0 f i Game.obj
 0001:000115f0       ?_Change_array@?$vector@PEAVShield@@V?$allocator@PEAVShield@@@std@@@std@@AEAAXQEAPEAVShield@@_K1@Z 00000001400125f0 f i Game.obj
 0001:000115f0       ?_Change_array@?$vector@PEAVEnemies@@V?$allocator@PEAVEnemies@@@std@@@std@@AEAAXQEAPEAVEnemies@@_K1@Z 00000001400125f0 f i Game.obj
 0001:00011840       ?_Change_array@?$vector@V?$basic_string@DU?$char_traits@D@std@@V?$allocator@D@2@@std@@V?$allocator@V?$basic_string@DU?$char_traits@D@std@@V?$allocator@D@2@@std@@@2@@std@@AEAAXQEAV?$basic_string@DU?$char_traits@D@std@@V?$allocator@D@2@@2@_K1@Z 0000000140012840 f i Game.obj
 0001:00011970       ?_Change_array@?$vector@V?$vector@V?$basic_string@DU?$char_traits@D@std@@V?$allocator@D@2@@std@@V?$allocator@V?$basic_string@DU?$char_traits@D@std@@V?$allocator@D@2@@std@@@2@@std@@V?$allocator@V?$vector@V?$basic_string@DU?$char_traits@D@std@@V?$allocator@D@2@@std@@V?$allocator@V?$basic_string@DU?$char_traits@D@std@@V?$allocator@D@2@@std@@@2@@std@@@2@@std@@AEAAXQEAV?$vector@V?$basic_string@DU?$char_traits@D@std@@V?$allocator@D@2@@std@@V?$allocator@V?$basic_string@DU?$char_traits@D@std@@V?$allocator@D@2@@std@@@2@@2@_K1@Z 0000000140012970 f i Game.obj
 0001:00011a90       ?_Check_grow_by_1@?$_Tree@V?$_Tmap_traits@V?$basic_string@DU?$char_traits@D@std@@V?$allocator@D@2@@std@@PEAVTexture@sf@@U?$less@V?$basic_string@DU?$char_traits@D@std@@V?$allocator@D@2@@std@@@2@V?$allocator@U?$pair@$$CBV?$basic_string@DU?$char_traits@D@std@@V?$allocator@D@2@@std@@PEAVTexture@sf@@@std@@@2@$0A@@std@@@std@@IEAAXXZ 0000000140012a90 f i Game.obj
 0001:00011af0       ?_Check_offset@?$_String_val@U?$_Simple_types@D@std@@@std@@QEBAX_K@Z 0000000140012af0 f i Game.obj
 0001:00011b40       ?_Clamp_suffix_size@?$_String_val@U?$_Simple_types@D@std@@@std@@QEBA_K_K0@Z 0000000140012b40 f i Game.obj
 0001:00011bb0       ?_Construct@?$basic_string@DU?$char_traits@D@std@@V?$allocator@D@2@@std@@QEAAXQEAD0Urandom_access_iterator_tag@2@@Z 0000000140012bb0 f i Game.obj
 0001:00011c30       ?_Construct_lv_contents@?$basic_string@DU?$char_traits@D@std@@V?$allocator@D@2@@std@@AEAAXAEBV12@@Z 0000000140012c30 f i Game.obj
 0001:00011df0       ?_Copy_assign@?$basic_string@DU?$char_traits@D@std@@V?$allocator@D@2@@std@@AEAAXAEBV12@U?$integral_constant@_N$0A@@2@@Z 0000000140012df0 f i Game.obj
 0001:00011e80       ?_Destroy@?$vector@PEAVRedEnemy@@V?$allocator@PEAVRedEnemy@@@std@@@std@@AEAAXPEAPEAVRedEnemy@@0@Z 0000000140012e80 f i Game.obj
 0001:00011e80       ?_Destroy@?$vector@PEAVEnemies@@V?$allocator@PEAVEnemies@@@std@@@std@@AEAAXPEAPEAVEnemies@@0@Z 0000000140012e80 f i Game.obj
 0001:00011e80       ?_Destroy@?$vector@PEAVBlueEnemy@@V?$allocator@PEAVBlueEnemy@@@std@@@std@@AEAAXPEAPEAVBlueEnemy@@0@Z 0000000140012e80 f i Game.obj
 0001:00011e80       ?_Destroy@?$vector@PEAVShield@@V?$allocator@PEAVShield@@@std@@@std@@AEAAXPEAPEAVShield@@0@Z 0000000140012e80 f i Game.obj
 0001:00011e80       ?_Destroy@?$vector@PEAVPotion@@V?$allocator@PEAVPotion@@@std@@@std@@AEAAXPEAPEAVPotion@@0@Z 0000000140012e80 f i Game.obj
 0001:00011e80       ?_Destroy@?$vector@PEAVBullet@@V?$allocator@PEAVBullet@@@std@@@std@@AEAAXPEAPEAVBullet@@0@Z 0000000140012e80 f i Game.obj
 0001:00011f40       ?_Destroy@?$vector@V?$basic_string@DU?$char_traits@D@std@@V?$allocator@D@2@@std@@V?$allocator@V?$basic_string@DU?$char_traits@D@std@@V?$allocator@D@2@@std@@@2@@std@@AEAAXPEAV?$basic_string@DU?$char_traits@D@std@@V?$allocator@D@2@@2@0@Z 0000000140012f40 f i Game.obj
 0001:00011fa0       ?_Destroy@?$vector@V?$vector@V?$basic_string@DU?$char_traits@D@std@@V?$allocator@D@2@@std@@V?$allocator@V?$basic_string@DU?$char_traits@D@std@@V?$allocator@D@2@@std@@@2@@std@@V?$allocator@V?$vector@V?$basic_string@DU?$char_traits@D@std@@V?$allocator@D@2@@std@@V?$allocator@V?$basic_string@DU?$char_traits@D@std@@V?$allocator@D@2@@std@@@2@@std@@@2@@std@@AEAAXPEAV?$vector@V?$basic_string@DU?$char_traits@D@std@@V?$allocator@D@2@@std@@V?$allocator@V?$basic_string@DU?$char_traits@D@std@@V?$allocator@D@2@@std@@@2@@2@0@Z 0000000140012fa0 f i Game.obj
 0001:00012000       ?_Endwrite@?$basic_filebuf@DU?$char_traits@D@std@@@std@@IEAA_NXZ 0000000140013000 f i Game.obj
 0001:00012220       ?_Eos@?$basic_string@DU?$char_traits@D@std@@V?$allocator@D@2@@std@@AEAAX_K@Z 0000000140013220 f i Game.obj
 0001:00012290       ?_Erase_noexcept@?$basic_string@DU?$char_traits@D@std@@V?$allocator@D@2@@std@@AEAAAEAV12@_K_K@Z 0000000140013290 f i Game.obj
 0001:00012380       ?_Get_scary@?$_Tree@V?$_Tmap_traits@V?$basic_string@DU?$char_traits@D@std@@V?$allocator@D@2@@std@@PEAVTexture@sf@@U?$less@V?$basic_string@DU?$char_traits@D@std@@V?$allocator@D@2@@std@@@2@V?$allocator@U?$pair@$$CBV?$basic_string@DU?$char_traits@D@std@@V?$allocator@D@2@@std@@PEAVTexture@sf@@@std@@@2@$0A@@std@@@std@@IEBAPEBV?$_Tree_val@U?$_Tree_simple_types@U?$pair@$$CBV?$basic_string@DU?$char_traits@D@std@@V?$allocator@D@2@@std@@PEAVTexture@sf@@@std@@@std@@@2@XZ 0000000140013380 f i Game.obj
 0001:00012380       ?_Get_scary@?$_Tree@V?$_Tmap_traits@V?$basic_string@DU?$char_traits@D@std@@V?$allocator@D@2@@std@@PEAVTexture@sf@@U?$less@V?$basic_string@DU?$char_traits@D@std@@V?$allocator@D@2@@std@@@2@V?$allocator@U?$pair@$$CBV?$basic_string@DU?$char_traits@D@std@@V?$allocator@D@2@@std@@PEAVTexture@sf@@@std@@@2@$0A@@std@@@std@@IEAAPEAV?$_Tree_val@U?$_Tree_simple_types@U?$pair@$$CBV?$basic_string@DU?$char_traits@D@std@@V?$allocator@D@2@@std@@PEAVTexture@sf@@@std@@@std@@@2@XZ 0000000140013380 f i Game.obj
 0001:000123c0       ?_Getcomp@?$_Tree@V?$_Tmap_traits@V?$basic_string@DU?$char_traits@D@std@@V?$allocator@D@2@@std@@PEAVTexture@sf@@U?$less@V?$basic_string@DU?$char_traits@D@std@@V?$allocator@D@2@@std@@@2@V?$allocator@U?$pair@$$CBV?$basic_string@DU?$char_traits@D@std@@V?$allocator@D@2@@std@@PEAVTexture@sf@@@std@@@2@$0A@@std@@@std@@IEBAAEBU?$less@V?$basic_string@DU?$char_traits@D@std@@V?$allocator@D@2@@std@@@2@XZ 00000001400133c0 f i Game.obj
 0001:000123c0       ?_Getal@?$_Tree@V?$_Tmap_traits@V?$basic_string@DU?$char_traits@D@std@@V?$allocator@D@2@@std@@PEAVTexture@sf@@U?$less@V?$basic_string@DU?$char_traits@D@std@@V?$allocator@D@2@@std@@@2@V?$allocator@U?$pair@$$CBV?$basic_string@DU?$char_traits@D@std@@V?$allocator@D@2@@std@@PEAVTexture@sf@@@std@@@2@$0A@@std@@@std@@IEAAAEAV?$allocator@U?$_Tree_node@U?$pair@$$CBV?$basic_string@DU?$char_traits@D@std@@V?$allocator@D@2@@std@@PEAVTexture@sf@@@std@@PEAX@std@@@2@XZ 00000001400133c0 f i Game.obj
 0001:000123c0       ?_Getal@?$_Tree@V?$_Tmap_traits@V?$basic_string@DU?$char_traits@D@std@@V?$allocator@D@2@@std@@PEAVTexture@sf@@U?$less@V?$basic_string@DU?$char_traits@D@std@@V?$allocator@D@2@@std@@@2@V?$allocator@U?$pair@$$CBV?$basic_string@DU?$char_traits@D@std@@V?$allocator@D@2@@std@@PEAVTexture@sf@@@std@@@2@$0A@@std@@@std@@IEBAAEBV?$allocator@U?$_Tree_node@U?$pair@$$CBV?$basic_string@DU?$char_traits@D@std@@V?$allocator@D@2@@std@@PEAVTexture@sf@@@std@@PEAX@std@@@2@XZ 00000001400133c0 f i Game.obj
 0001:00012400       ?_Getal@?$vector@PEAVBullet@@V?$allocator@PEAVBullet@@@std@@@std@@AEAAAEAV?$allocator@PEAVBullet@@@2@XZ 0000000140013400 f i Game.obj
 0001:00012400       ?_Getal@?$vector@PEAVEnemies@@V?$allocator@PEAVEnemies@@@std@@@std@@AEBAAEBV?$allocator@PEAVEnemies@@@2@XZ 0000000140013400 f i Game.obj
 0001:00012400       ?_Getal@?$vector@V?$basic_string@DU?$char_traits@D@std@@V?$allocator@D@2@@std@@V?$allocator@V?$basic_string@DU?$char_traits@D@std@@V?$allocator@D@2@@std@@@2@@std@@AEBAAEBV?$allocator@V?$basic_string@DU?$char_traits@D@std@@V?$allocator@D@2@@std@@@2@XZ 0000000140013400 f i Game.obj
 0001:00012400       ?_Getal@?$vector@PEAVBullet@@V?$allocator@PEAVBullet@@@std@@@std@@AEBAAEBV?$allocator@PEAVBullet@@@2@XZ 0000000140013400 f i Game.obj
 0001:00012400       ?_Getal@?$vector@V?$basic_string@DU?$char_traits@D@std@@V?$allocator@D@2@@std@@V?$allocator@V?$basic_string@DU?$char_traits@D@std@@V?$allocator@D@2@@std@@@2@@std@@AEAAAEAV?$allocator@V?$basic_string@DU?$char_traits@D@std@@V?$allocator@D@2@@std@@@2@XZ 0000000140013400 f i Game.obj
 0001:00012400       ?_Getal@?$vector@V?$vector@V?$basic_string@DU?$char_traits@D@std@@V?$allocator@D@2@@std@@V?$allocator@V?$basic_string@DU?$char_traits@D@std@@V?$allocator@D@2@@std@@@2@@std@@V?$allocator@V?$vector@V?$basic_string@DU?$char_traits@D@std@@V?$allocator@D@2@@std@@V?$allocator@V?$basic_string@DU?$char_traits@D@std@@V?$allocator@D@2@@std@@@2@@std@@@2@@std@@AEBAAEBV?$allocator@V?$vector@V?$basic_string@DU?$char_traits@D@std@@V?$allocator@D@2@@std@@V?$allocator@V?$basic_string@DU?$char_traits@D@std@@V?$allocator@D@2@@std@@@2@@std@@@2@XZ 0000000140013400 f i Game.obj
 0001:00012400       ?_Getal@?$vector@PEAVRedEnemy@@V?$allocator@PEAVRedEnemy@@@std@@@std@@AEAAAEAV?$allocator@PEAVRedEnemy@@@2@XZ 0000000140013400 f i Game.obj
 0001:00012400       ?_Getal@?$vector@PEAVBlueEnemy@@V?$allocator@PEAVBlueEnemy@@@std@@@std@@AEAAAEAV?$allocator@PEAVBlueEnemy@@@2@XZ 0000000140013400 f i Game.obj
 0001:00012400       ?_Getal@?$vector@PEAVShield@@V?$allocator@PEAVShield@@@std@@@std@@AEAAAEAV?$allocator@PEAVShield@@@2@XZ 0000000140013400 f i Game.obj
 0001:00012400       ?_Getal@?$vector@V?$vector@V?$basic_string@DU?$char_traits@D@std@@V?$allocator@D@2@@std@@V?$allocator@V?$basic_string@DU?$char_traits@D@std@@V?$allocator@D@2@@std@@@2@@std@@V?$allocator@V?$vector@V?$basic_string@DU?$char_traits@D@std@@V?$allocator@D@2@@std@@V?$allocator@V?$basic_string@DU?$char_traits@D@std@@V?$allocator@D@2@@std@@@2@@std@@@2@@std@@AEAAAEAV?$allocator@V?$vector@V?$basic_string@DU?$char_traits@D@std@@V?$allocator@D@2@@std@@V?$allocator@V?$basic_string@DU?$char_traits@D@std@@V?$allocator@D@2@@std@@@2@@std@@@2@XZ 0000000140013400 f i Game.obj
 0001:00012400       ?_Getal@?$vector@PEAVShield@@V?$allocator@PEAVShield@@@std@@@std@@AEBAAEBV?$allocator@PEAVShield@@@2@XZ 0000000140013400 f i Game.obj
 0001:00012400       ?_Getal@?$vector@PEAVEnemies@@V?$allocator@PEAVEnemies@@@std@@@std@@AEAAAEAV?$allocator@PEAVEnemies@@@2@XZ 0000000140013400 f i Game.obj
 0001:00012400       ?_Getal@?$vector@PEAVPotion@@V?$allocator@PEAVPotion@@@std@@@std@@AEBAAEBV?$allocator@PEAVPotion@@@2@XZ 0000000140013400 f i Game.obj
 0001:00012400       ?_Getal@?$vector@PEAVRedEnemy@@V?$allocator@PEAVRedEnemy@@@std@@@std@@AEBAAEBV?$allocator@PEAVRedEnemy@@@2@XZ 0000000140013400 f i Game.obj
 0001:00012400       ?_Getal@?$vector@PEAVBlueEnemy@@V?$allocator@PEAVBlueEnemy@@@std@@@std@@AEBAAEBV?$allocator@PEAVBlueEnemy@@@2@XZ 0000000140013400 f i Game.obj
 0001:00012400       ?_Getal@?$vector@PEAVPotion@@V?$allocator@PEAVPotion@@@std@@@std@@AEAAAEAV?$allocator@PEAVPotion@@@2@XZ 0000000140013400 f i Game.obj
 0001:00012480       ?_Getcont@_Iterator_base12@std@@QEBAPEBU_Container_base12@2@XZ 0000000140013480 f i Game.obj
 0001:000124e0       ?_Getfacet@locale@std@@QEBAPEBVfacet@12@_K@Z 00000001400134e0 f i Game.obj
 0001:000125b0       ?_Getstate@?$basic_stringbuf@DU?$char_traits@D@std@@V?$allocator@D@2@@std@@CAHH@Z 00000001400135b0 f i Game.obj
 0001:00012650       ?_Init@?$basic_filebuf@DU?$char_traits@D@std@@@std@@IEAAXPEAU_iobuf@@W4_Initfl@12@@Z 0000000140013650 f i Game.obj
 0001:00012800       ?_Initcvt@?$basic_filebuf@DU?$char_traits@D@std@@@std@@IEAAXAEBV?$codecvt@DDU_Mbstatet@@@2@@Z 0000000140013800 f i Game.obj
 0001:00012880       ?_Insert_node@?$_Tree_val@U?$_Tree_simple_types@U?$pair@$$CBV?$basic_string@DU?$char_traits@D@std@@V?$allocator@D@2@@std@@PEAVTexture@sf@@@std@@@std@@@std@@QEAAPEAU?$_Tree_node@U?$pair@$$CBV?$basic_string@DU?$char_traits@D@std@@V?$allocator@D@2@@std@@PEAVTexture@sf@@@std@@PEAX@2@U?$_Tree_id@PEAU?$_Tree_node@U?$pair@$$CBV?$basic_string@DU?$char_traits@D@std@@V?$allocator@D@2@@std@@PEAVTexture@sf@@@std@@PEAX@std@@@2@QEAU32@@Z 0000000140013880 f i Game.obj
 0001:00012b90       ?_Lock@?$basic_filebuf@DU?$char_traits@D@std@@@std@@UEAAXXZ 0000000140013b90 f i Game.obj
 0001:00012bf0       ?_Lrotate@?$_Tree_val@U?$_Tree_simple_types@U?$pair@$$CBV?$basic_string@DU?$char_traits@D@std@@V?$allocator@D@2@@std@@PEAVTexture@sf@@@std@@@std@@@std@@QEAAXPEAU?$_Tree_node@U?$pair@$$CBV?$basic_string@DU?$char_traits@D@std@@V?$allocator@D@2@@std@@PEAVTexture@sf@@@std@@PEAX@2@@Z 0000000140013bf0 f i Game.obj
 0001:00012d00       ?_Memcpy_val_from@?$basic_string@DU?$char_traits@D@std@@V?$allocator@D@2@@std@@AEAAXAEBV12@@Z 0000000140013d00 f i Game.obj
 0001:00012d80       ?_Min@?$_Tree_val@U?$_Tree_simple_types@U?$pair@$$CBV?$basic_string@DU?$char_traits@D@std@@V?$allocator@D@2@@std@@PEAVTexture@sf@@@std@@@std@@@std@@SAPEAU?$_Tree_node@U?$pair@$$CBV?$basic_string@DU?$char_traits@D@std@@V?$allocator@D@2@@std@@PEAVTexture@sf@@@std@@PEAX@2@PEAU32@@Z 0000000140013d80 f i Game.obj
 0001:00012de0       ?_Move_assign@?$basic_string@DU?$char_traits@D@std@@V?$allocator@D@2@@std@@AEAAXAEAV12@U_Equal_allocators@2@@Z 0000000140013de0 f i Game.obj
 0001:00012e80       ?_Move_construct@?$vector@V?$basic_string@DU?$char_traits@D@std@@V?$allocator@D@2@@std@@V?$allocator@V?$basic_string@DU?$char_traits@D@std@@V?$allocator@D@2@@std@@@2@@std@@AEAAXAEAV12@U?$integral_constant@_N$00@2@@Z 0000000140013e80 f i Game.obj
 0001:00012ed0       ?_Myptr@?$_String_val@U?$_Simple_types@D@std@@@std@@QEBAPEBDXZ 0000000140013ed0 f i Game.obj
 0001:00012f40       ?_Orphan_me@_Iterator_base12@std@@QEAAXXZ 0000000140013f40 f i Game.obj
 0001:00013060       ?_Orphan_range@?$vector@PEAVBlueEnemy@@V?$allocator@PEAVBlueEnemy@@@std@@@std@@AEBAXPEAPEAVBlueEnemy@@0@Z 0000000140014060 f i Game.obj
 0001:00013160       ?_Orphan_range@?$vector@PEAVBullet@@V?$allocator@PEAVBullet@@@std@@@std@@AEBAXPEAPEAVBullet@@0@Z 0000000140014160 f i Game.obj
 0001:00013260       ?_Orphan_range@?$vector@PEAVEnemies@@V?$allocator@PEAVEnemies@@@std@@@std@@AEBAXPEAPEAVEnemies@@0@Z 0000000140014260 f i Game.obj
 0001:00013360       ?_Orphan_range@?$vector@PEAVPotion@@V?$allocator@PEAVPotion@@@std@@@std@@AEBAXPEAPEAVPotion@@0@Z 0000000140014360 f i Game.obj
 0001:00013460       ?_Orphan_range@?$vector@PEAVRedEnemy@@V?$allocator@PEAVRedEnemy@@@std@@@std@@AEBAXPEAPEAVRedEnemy@@0@Z 0000000140014460 f i Game.obj
 0001:00013560       ?_Orphan_range@?$vector@PEAVShield@@V?$allocator@PEAVShield@@@std@@@std@@AEBAXPEAPEAVShield@@0@Z 0000000140014560 f i Game.obj
 0001:00013760       ?_Orphan_range@?$vector@V?$basic_string@DU?$char_traits@D@std@@V?$allocator@D@2@@std@@V?$allocator@V?$basic_string@DU?$char_traits@D@std@@V?$allocator@D@2@@std@@@2@@std@@AEBAXPEAV?$basic_string@DU?$char_traits@D@std@@V?$allocator@D@2@@2@0@Z 0000000140014760 f i Game.obj
 0001:00013860       ?_Orphan_range@?$vector@V?$vector@V?$basic_string@DU?$char_traits@D@std@@V?$allocator@D@2@@std@@V?$allocator@V?$basic_string@DU?$char_traits@D@std@@V?$allocator@D@2@@std@@@2@@std@@V?$allocator@V?$vector@V?$basic_string@DU?$char_traits@D@std@@V?$allocator@D@2@@std@@V?$allocator@V?$basic_string@DU?$char_traits@D@std@@V?$allocator@D@2@@std@@@2@@std@@@2@@std@@AEBAXPEAV?$vector@V?$basic_string@DU?$char_traits@D@std@@V?$allocator@D@2@@std@@V?$allocator@V?$basic_string@DU?$char_traits@D@std@@V?$allocator@D@2@@std@@@2@@2@0@Z 0000000140014860 f i Game.obj
 0001:00013960       ?_Release@?$_Alloc_construct_ptr@V?$allocator@U?$_Tree_node@U?$pair@$$CBV?$basic_string@DU?$char_traits@D@std@@V?$allocator@D@2@@std@@PEAVTexture@sf@@@std@@PEAX@std@@@std@@@std@@QEAAPEAU?$_Tree_node@U?$pair@$$CBV?$basic_string@DU?$char_traits@D@std@@V?$allocator@D@2@@std@@PEAVTexture@sf@@@std@@PEAX@2@XZ 0000000140014960 f i Game.obj
 0001:00013a00       ?_Release@?$_Uninitialized_backout_al@V?$allocator@V?$basic_string@DU?$char_traits@D@std@@V?$allocator@D@2@@std@@@std@@@std@@QEAAPEAV?$basic_string@DU?$char_traits@D@std@@V?$allocator@D@2@@2@XZ 0000000140014a00 f i Game.obj
 0001:00013a00       ?_Release@?$_Uninitialized_backout_al@V?$allocator@V?$vector@V?$basic_string@DU?$char_traits@D@std@@V?$allocator@D@2@@std@@V?$allocator@V?$basic_string@DU?$char_traits@D@std@@V?$allocator@D@2@@std@@@2@@std@@@std@@@std@@QEAAPEAV?$vector@V?$basic_string@DU?$char_traits@D@std@@V?$allocator@D@2@@std@@V?$allocator@V?$basic_string@DU?$char_traits@D@std@@V?$allocator@D@2@@std@@@2@@2@XZ 0000000140014a00 f i Game.obj
 0001:00013a50       ?_Reset_back@?$basic_filebuf@DU?$char_traits@D@std@@@std@@AEAAXXZ 0000000140014a50 f i Game.obj
 0001:00013ad0       ?_Rrotate@?$_Tree_val@U?$_Tree_simple_types@U?$pair@$$CBV?$basic_string@DU?$char_traits@D@std@@V?$allocator@D@2@@std@@PEAVTexture@sf@@@std@@@std@@@std@@QEAAXPEAU?$_Tree_node@U?$pair@$$CBV?$basic_string@DU?$char_traits@D@std@@V?$allocator@D@2@@std@@PEAVTexture@sf@@@std@@PEAX@2@@Z 0000000140014ad0 f i Game.obj
 0001:00013be0       ?_Set_back@?$basic_filebuf@DU?$char_traits@D@std@@@std@@AEAAXXZ 0000000140014be0 f i Game.obj
 0001:00013c90       ?_Swap_proxy_and_iterators@?$basic_string@DU?$char_traits@D@std@@V?$allocator@D@2@@std@@AEAAXAEAV12@@Z 0000000140014c90 f i Game.obj
 0001:00013ce0       ?_Swap_proxy_and_iterators@_Container_base12@std@@QEAAXAEAU12@@Z 0000000140014ce0 f i Game.obj
 0001:00013dc0       ?_Take_contents@?$_Vector_val@U?$_Simple_types@V?$basic_string@DU?$char_traits@D@std@@V?$allocator@D@2@@std@@@std@@@std@@QEAAXAEAV12@@Z 0000000140014dc0 f i Game.obj
 0001:00013e70       ?_Take_contents@?$basic_string@DU?$char_traits@D@std@@V?$allocator@D@2@@std@@AEAAXAEAV12@U?$integral_constant@_N$00@2@@Z 0000000140014e70 f i Game.obj
 0001:00013f00       ?_Throw_bad_cast@std@@YAXXZ 0000000140014f00 f i Game.obj
 0001:00013f50       ?_Throw_tree_length_error@std@@YAXXZ 0000000140014f50 f i Game.obj
 0001:00013f90       ?_Tidy@?$basic_stringbuf@DU?$char_traits@D@std@@V?$allocator@D@2@@std@@IEAAXXZ 0000000140014f90 f i Game.obj
 0001:00014090       ?_Tidy@?$vector@PEAVEnemies@@V?$allocator@PEAVEnemies@@@std@@@std@@AEAAXXZ 0000000140015090 f i Game.obj
 0001:00014090       ?_Tidy@?$vector@PEAVPotion@@V?$allocator@PEAVPotion@@@std@@@std@@AEAAXXZ 0000000140015090 f i Game.obj
 0001:00014090       ?_Tidy@?$vector@PEAVBullet@@V?$allocator@PEAVBullet@@@std@@@std@@AEAAXXZ 0000000140015090 f i Game.obj
 0001:00014090       ?_Tidy@?$vector@PEAVRedEnemy@@V?$allocator@PEAVRedEnemy@@@std@@@std@@AEAAXXZ 0000000140015090 f i Game.obj
 0001:00014090       ?_Tidy@?$vector@PEAVBlueEnemy@@V?$allocator@PEAVBlueEnemy@@@std@@@std@@AEAAXXZ 0000000140015090 f i Game.obj
 0001:00014090       ?_Tidy@?$vector@PEAVShield@@V?$allocator@PEAVShield@@@std@@@std@@AEAAXXZ 0000000140015090 f i Game.obj
 0001:00014290       ?_Tidy@?$vector@V?$basic_string@DU?$char_traits@D@std@@V?$allocator@D@2@@std@@V?$allocator@V?$basic_string@DU?$char_traits@D@std@@V?$allocator@D@2@@std@@@2@@std@@AEAAXXZ 0000000140015290 f i Game.obj
 0001:00014390       ?_Tidy@?$vector@V?$vector@V?$basic_string@DU?$char_traits@D@std@@V?$allocator@D@2@@std@@V?$allocator@V?$basic_string@DU?$char_traits@D@std@@V?$allocator@D@2@@std@@@2@@std@@V?$allocator@V?$vector@V?$basic_string@DU?$char_traits@D@std@@V?$allocator@D@2@@std@@V?$allocator@V?$basic_string@DU?$char_traits@D@std@@V?$allocator@D@2@@std@@@2@@std@@@2@@std@@AEAAXXZ 0000000140015390 f i Game.obj
 0001:00014490       ?_Umove@?$vector@PEAVBlueEnemy@@V?$allocator@PEAVBlueEnemy@@@std@@@std@@AEAAPEAPEAVBlueEnemy@@PEAPEAV3@00@Z 0000000140015490 f i Game.obj
 0001:00014490       ?_Umove@?$vector@PEAVPotion@@V?$allocator@PEAVPotion@@@std@@@std@@AEAAPEAPEAVPotion@@PEAPEAV3@00@Z 0000000140015490 f i Game.obj
 0001:00014490       ?_Umove@?$vector@PEAVEnemies@@V?$allocator@PEAVEnemies@@@std@@@std@@AEAAPEAPEAVEnemies@@PEAPEAV3@00@Z 0000000140015490 f i Game.obj
 0001:00014490       ?_Umove_if_noexcept1@?$vector@PEAVRedEnemy@@V?$allocator@PEAVRedEnemy@@@std@@@std@@AEAAXPEAPEAVRedEnemy@@00U?$integral_constant@_N$00@2@@Z 0000000140015490 f i Game.obj
 0001:00014490       ?_Umove_if_noexcept1@?$vector@PEAVPotion@@V?$allocator@PEAVPotion@@@std@@@std@@AEAAXPEAPEAVPotion@@00U?$integral_constant@_N$00@2@@Z 0000000140015490 f i Game.obj
 0001:00014490       ?_Umove_if_noexcept1@?$vector@PEAVEnemies@@V?$allocator@PEAVEnemies@@@std@@@std@@AEAAXPEAPEAVEnemies@@00U?$integral_constant@_N$00@2@@Z 0000000140015490 f i Game.obj
 0001:00014490       ?_Umove_if_noexcept1@?$vector@PEAVBullet@@V?$allocator@PEAVBullet@@@std@@@std@@AEAAXPEAPEAVBullet@@00U?$integral_constant@_N$00@2@@Z 0000000140015490 f i Game.obj
 0001:00014490       ?_Umove@?$vector@PEAVBullet@@V?$allocator@PEAVBullet@@@std@@@std@@AEAAPEAPEAVBullet@@PEAPEAV3@00@Z 0000000140015490 f i Game.obj
 0001:00014490       ?_Umove@?$vector@PEAVShield@@V?$allocator@PEAVShield@@@std@@@std@@AEAAPEAPEAVShield@@PEAPEAV3@00@Z 0000000140015490 f i Game.obj
 0001:00014490       ?_Umove_if_noexcept1@?$vector@PEAVBlueEnemy@@V?$allocator@PEAVBlueEnemy@@@std@@@std@@AEAAXPEAPEAVBlueEnemy@@00U?$integral_constant@_N$00@2@@Z 0000000140015490 f i Game.obj
 0001:00014490       ?_Umove_if_noexcept1@?$vector@PEAVShield@@V?$allocator@PEAVShield@@@std@@@std@@AEAAXPEAPEAVShield@@00U?$integral_constant@_N$00@2@@Z 0000000140015490 f i Game.obj
 0001:00014490       ?_Umove@?$vector@PEAVRedEnemy@@V?$allocator@PEAVRedEnemy@@@std@@@std@@AEAAPEAPEAVRedEnemy@@PEAPEAV3@00@Z 0000000140015490 f i Game.obj
 0001:00014550       ?_Umove@?$vector@V?$basic_string@DU?$char_traits@D@std@@V?$allocator@D@2@@std@@V?$allocator@V?$basic_string@DU?$char_traits@D@std@@V?$allocator@D@2@@std@@@2@@std@@AEAAPEAV?$basic_string@DU?$char_traits@D@std@@V?$allocator@D@2@@2@PEAV32@00@Z 0000000140015550 f i Game.obj
 0001:00014550       ?_Umove_if_noexcept1@?$vector@V?$basic_string@DU?$char_traits@D@std@@V?$allocator@D@2@@std@@V?$allocator@V?$basic_string@DU?$char_traits@D@std@@V?$allocator@D@2@@std@@@2@@std@@AEAAXPEAV?$basic_string@DU?$char_traits@D@std@@V?$allocator@D@2@@2@00U?$integral_constant@_N$00@2@@Z 0000000140015550 f i Game.obj
 0001:000145b0       ?_Umove_if_noexcept1@?$vector@V?$vector@V?$basic_string@DU?$char_traits@D@std@@V?$allocator@D@2@@std@@V?$allocator@V?$basic_string@DU?$char_traits@D@std@@V?$allocator@D@2@@std@@@2@@std@@V?$allocator@V?$vector@V?$basic_string@DU?$char_traits@D@std@@V?$allocator@D@2@@std@@V?$allocator@V?$basic_string@DU?$char_traits@D@std@@V?$allocator@D@2@@std@@@2@@std@@@2@@std@@AEAAXPEAV?$vector@V?$basic_string@DU?$char_traits@D@std@@V?$allocator@D@2@@std@@V?$allocator@V?$basic_string@DU?$char_traits@D@std@@V?$allocator@D@2@@std@@@2@@2@00U?$integral_constant@_N$00@2@@Z 00000001400155b0 f i Game.obj
 0001:000145b0       ?_Umove@?$vector@V?$vector@V?$basic_string@DU?$char_traits@D@std@@V?$allocator@D@2@@std@@V?$allocator@V?$basic_string@DU?$char_traits@D@std@@V?$allocator@D@2@@std@@@2@@std@@V?$allocator@V?$vector@V?$basic_string@DU?$char_traits@D@std@@V?$allocator@D@2@@std@@V?$allocator@V?$basic_string@DU?$char_traits@D@std@@V?$allocator@D@2@@std@@@2@@std@@@2@@std@@AEAAPEAV?$vector@V?$basic_string@DU?$char_traits@D@std@@V?$allocator@D@2@@std@@V?$allocator@V?$basic_string@DU?$char_traits@D@std@@V?$allocator@D@2@@std@@@2@@2@PEAV32@00@Z 00000001400155b0 f i Game.obj
 0001:00014610       ?_Umove_if_noexcept@?$vector@PEAVEnemies@@V?$allocator@PEAVEnemies@@@std@@@std@@AEAAXPEAPEAVEnemies@@00@Z 0000000140015610 f i Game.obj
 0001:00014610       ?_Umove_if_noexcept@?$vector@PEAVShield@@V?$allocator@PEAVShield@@@std@@@std@@AEAAXPEAPEAVShield@@00@Z 0000000140015610 f i Game.obj
 0001:00014610       ?_Umove_if_noexcept@?$vector@PEAVBlueEnemy@@V?$allocator@PEAVBlueEnemy@@@std@@@std@@AEAAXPEAPEAVBlueEnemy@@00@Z 0000000140015610 f i Game.obj
 0001:00014610       ?_Umove_if_noexcept@?$vector@PEAVPotion@@V?$allocator@PEAVPotion@@@std@@@std@@AEAAXPEAPEAVPotion@@00@Z 0000000140015610 f i Game.obj
 0001:00014610       ?_Umove_if_noexcept@?$vector@PEAVRedEnemy@@V?$allocator@PEAVRedEnemy@@@std@@@std@@AEAAXPEAPEAVRedEnemy@@00@Z 0000000140015610 f i Game.obj
 0001:00014610       ?_Umove_if_noexcept@?$vector@PEAVBullet@@V?$allocator@PEAVBullet@@@std@@@std@@AEAAXPEAPEAVBullet@@00@Z 0000000140015610 f i Game.obj
 0001:00014710       ?_Umove_if_noexcept@?$vector@V?$basic_string@DU?$char_traits@D@std@@V?$allocator@D@2@@std@@V?$allocator@V?$basic_string@DU?$char_traits@D@std@@V?$allocator@D@2@@std@@@2@@std@@AEAAXPEAV?$basic_string@DU?$char_traits@D@std@@V?$allocator@D@2@@2@00@Z 0000000140015710 f i Game.obj
 0001:00014790       ?_Umove_if_noexcept@?$vector@V?$vector@V?$basic_string@DU?$char_traits@D@std@@V?$allocator@D@2@@std@@V?$allocator@V?$basic_string@DU?$char_traits@D@std@@V?$allocator@D@2@@std@@@2@@std@@V?$allocator@V?$vector@V?$basic_string@DU?$char_traits@D@std@@V?$allocator@D@2@@std@@V?$allocator@V?$basic_string@DU?$char_traits@D@std@@V?$allocator@D@2@@std@@@2@@std@@@2@@std@@AEAAXPEAV?$vector@V?$basic_string@DU?$char_traits@D@std@@V?$allocator@D@2@@std@@V?$allocator@V?$basic_string@DU?$char_traits@D@std@@V?$allocator@D@2@@std@@@2@@2@00@Z 0000000140015790 f i Game.obj
 0001:00014810       ?_Unchecked_begin@?$_Tree@V?$_Tmap_traits@V?$basic_string@DU?$char_traits@D@std@@V?$allocator@D@2@@std@@PEAVTexture@sf@@U?$less@V?$basic_string@DU?$char_traits@D@std@@V?$allocator@D@2@@std@@@2@V?$allocator@U?$pair@$$CBV?$basic_string@DU?$char_traits@D@std@@V?$allocator@D@2@@std@@PEAVTexture@sf@@@std@@@2@$0A@@std@@@std@@QEAA?AV?$_Tree_unchecked_iterator@V?$_Tree_val@U?$_Tree_simple_types@U?$pair@$$CBV?$basic_string@DU?$char_traits@D@std@@V?$allocator@D@2@@std@@PEAVTexture@sf@@@std@@@std@@@std@@@2@XZ 0000000140015810 f i Game.obj
 0001:00014870       ?_Unchecked_begin@?$vector@PEAVPotion@@V?$allocator@PEAVPotion@@@std@@@std@@QEAAPEAPEAVPotion@@XZ 0000000140015870 f i Game.obj
 0001:00014870       ?_Unchecked_begin@?$vector@PEAVBullet@@V?$allocator@PEAVBullet@@@std@@@std@@QEAAPEAPEAVBullet@@XZ 0000000140015870 f i Game.obj
 0001:00014870       ?_Unchecked_begin@?$vector@PEAVRedEnemy@@V?$allocator@PEAVRedEnemy@@@std@@@std@@QEAAPEAPEAVRedEnemy@@XZ 0000000140015870 f i Game.obj
 0001:00014870       ?_Unchecked_begin@?$vector@PEAVBlueEnemy@@V?$allocator@PEAVBlueEnemy@@@std@@@std@@QEAAPEAPEAVBlueEnemy@@XZ 0000000140015870 f i Game.obj
 0001:00014870       ?_Unchecked_begin@?$vector@PEAVShield@@V?$allocator@PEAVShield@@@std@@@std@@QEAAPEAPEAVShield@@XZ 0000000140015870 f i Game.obj
 0001:00014870       ?_Unchecked_begin@?$vector@PEAVEnemies@@V?$allocator@PEAVEnemies@@@std@@@std@@QEAAPEAPEAVEnemies@@XZ 0000000140015870 f i Game.obj
 0001:000148f0       ?_Unchecked_end@?$_Tree@V?$_Tmap_traits@V?$basic_string@DU?$char_traits@D@std@@V?$allocator@D@2@@std@@PEAVTexture@sf@@U?$less@V?$basic_string@DU?$char_traits@D@std@@V?$allocator@D@2@@std@@@2@V?$allocator@U?$pair@$$CBV?$basic_string@DU?$char_traits@D@std@@V?$allocator@D@2@@std@@PEAVTexture@sf@@@std@@@2@$0A@@std@@@std@@QEBA?AU_Default_sentinel@2@XZ 00000001400158f0 f i Game.obj
 0001:00014940       ?_Unchecked_end@?$vector@PEAVBullet@@V?$allocator@PEAVBullet@@@std@@@std@@QEAAPEAPEAVBullet@@XZ 0000000140015940 f i Game.obj
 0001:00014940       ?_Unchecked_end@?$vector@PEAVShield@@V?$allocator@PEAVShield@@@std@@@std@@QEAAPEAPEAVShield@@XZ 0000000140015940 f i Game.obj
 0001:00014940       ?_Unchecked_end@?$vector@PEAVEnemies@@V?$allocator@PEAVEnemies@@@std@@@std@@QEAAPEAPEAVEnemies@@XZ 0000000140015940 f i Game.obj
 0001:00014940       ?_Unchecked_end@?$vector@PEAVBlueEnemy@@V?$allocator@PEAVBlueEnemy@@@std@@@std@@QEAAPEAPEAVBlueEnemy@@XZ 0000000140015940 f i Game.obj
 0001:00014940       ?_Unchecked_end@?$vector@PEAVRedEnemy@@V?$allocator@PEAVRedEnemy@@@std@@@std@@QEAAPEAPEAVRedEnemy@@XZ 0000000140015940 f i Game.obj
 0001:00014940       ?_Unchecked_end@?$vector@PEAVPotion@@V?$allocator@PEAVPotion@@@std@@@std@@QEAAPEAPEAVPotion@@XZ 0000000140015940 f i Game.obj
 0001:000149c0       ?_Unlock@?$basic_filebuf@DU?$char_traits@D@std@@@std@@UEAAXXZ 00000001400159c0 f i Game.obj
 0001:00014a60       ?_Verify_offset@?$_Vector_const_iterator@V?$_Vector_val@U?$_Simple_types@PEAVBlueEnemy@@@std@@@std@@@std@@QEBAX_J@Z 0000000140015a60 f i Game.obj
 0001:00014c80       ?_Verify_offset@?$_Vector_const_iterator@V?$_Vector_val@U?$_Simple_types@PEAVBullet@@@std@@@std@@@std@@QEBAX_J@Z 0000000140015c80 f i Game.obj
 0001:00014ea0       ?_Verify_offset@?$_Vector_const_iterator@V?$_Vector_val@U?$_Simple_types@PEAVEnemies@@@std@@@std@@@std@@QEBAX_J@Z 0000000140015ea0 f i Game.obj
 0001:000150c0       ?_Verify_offset@?$_Vector_const_iterator@V?$_Vector_val@U?$_Simple_types@PEAVPotion@@@std@@@std@@@std@@QEBAX_J@Z 00000001400160c0 f i Game.obj
 0001:000152e0       ?_Verify_offset@?$_Vector_const_iterator@V?$_Vector_val@U?$_Simple_types@PEAVRedEnemy@@@std@@@std@@@std@@QEBAX_J@Z 00000001400162e0 f i Game.obj
 0001:00015500       ?_Verify_offset@?$_Vector_const_iterator@V?$_Vector_val@U?$_Simple_types@PEAVShield@@@std@@@std@@@std@@QEBAX_J@Z 0000000140016500 f i Game.obj
 0001:00015880       ?_Xlength@?$vector@V?$basic_string@DU?$char_traits@D@std@@V?$allocator@D@2@@std@@V?$allocator@V?$basic_string@DU?$char_traits@D@std@@V?$allocator@D@2@@std@@@2@@std@@CAXXZ 0000000140016880 f i Game.obj
 0001:00015880       ?_Xlength@?$vector@V?$vector@V?$basic_string@DU?$char_traits@D@std@@V?$allocator@D@2@@std@@V?$allocator@V?$basic_string@DU?$char_traits@D@std@@V?$allocator@D@2@@std@@@2@@std@@V?$allocator@V?$vector@V?$basic_string@DU?$char_traits@D@std@@V?$allocator@D@2@@std@@V?$allocator@V?$basic_string@DU?$char_traits@D@std@@V?$allocator@D@2@@std@@@2@@std@@@2@@std@@CAXXZ 0000000140016880 f i Game.obj
 0001:00015880       ?_Xlength@?$vector@PEAVRedEnemy@@V?$allocator@PEAVRedEnemy@@@std@@@std@@CAXXZ 0000000140016880 f i Game.obj
 0001:00015880       ?_Xlength@?$vector@PEAVEnemies@@V?$allocator@PEAVEnemies@@@std@@@std@@CAXXZ 0000000140016880 f i Game.obj
 0001:00015880       ?_Xlength@?$vector@PEAVShield@@V?$allocator@PEAVShield@@@std@@@std@@CAXXZ 0000000140016880 f i Game.obj
 0001:00015880       ?_Xlength@?$vector@PEAVBullet@@V?$allocator@PEAVBullet@@@std@@@std@@CAXXZ 0000000140016880 f i Game.obj
 0001:00015880       ?_Xlength@?$vector@PEAVBlueEnemy@@V?$allocator@PEAVBlueEnemy@@@std@@@std@@CAXXZ 0000000140016880 f i Game.obj
 0001:00015880       ?_Xlength@?$vector@PEAVPotion@@V?$allocator@PEAVPotion@@@std@@@std@@CAXXZ 0000000140016880 f i Game.obj
 0001:00015900       ?_Xran@?$_String_val@U?$_Simple_types@D@std@@@std@@SAXXZ 0000000140016900 f i Game.obj
 0001:00015940       ?_Xrange@?$vector@PEAVBlueEnemy@@V?$allocator@PEAVBlueEnemy@@@std@@@std@@CAXXZ 0000000140016940 f i Game.obj
 0001:00015940       ?_Xrange@?$vector@PEAVShield@@V?$allocator@PEAVShield@@@std@@@std@@CAXXZ 0000000140016940 f i Game.obj
 0001:00015940       ?_Xrange@?$vector@PEAVPotion@@V?$allocator@PEAVPotion@@@std@@@std@@CAXXZ 0000000140016940 f i Game.obj
 0001:00015940       ?_Xrange@?$vector@PEAVEnemies@@V?$allocator@PEAVEnemies@@@std@@@std@@CAXXZ 0000000140016940 f i Game.obj
 0001:00015940       ?_Xrange@?$vector@PEAVBullet@@V?$allocator@PEAVBullet@@@std@@@std@@CAXXZ 0000000140016940 f i Game.obj
 0001:00015940       ?_Xrange@?$vector@PEAVRedEnemy@@V?$allocator@PEAVRedEnemy@@@std@@@std@@CAXXZ 0000000140016940 f i Game.obj
 0001:00015980       ?__autoclassinit2@?$_Vector_iterator@V?$_Vector_val@U?$_Simple_types@PEAVShield@@@std@@@std@@@std@@QEAAX_K@Z 0000000140016980 f i Game.obj
 0001:00015980       ?__autoclassinit2@?$unique_ptr@V_Facet_base@std@@U?$default_delete@V_Facet_base@std@@@2@@std@@QEAAX_K@Z 0000000140016980 f i Game.obj
 0001:00015980       ?__autoclassinit2@?$_Vector_iterator@V?$_Vector_val@U?$_Simple_types@PEAVBullet@@@std@@@std@@@std@@QEAAX_K@Z 0000000140016980 f i Game.obj
 0001:00015980       ?__autoclassinit2@?$basic_fstream@DU?$char_traits@D@std@@@std@@QEAAX_K@Z 0000000140016980 f i Game.obj
 0001:00015980       ?__autoclassinit2@?$_Vector_iterator@V?$_Vector_val@U?$_Simple_types@PEAVRedEnemy@@@std@@@std@@@std@@QEAAX_K@Z 0000000140016980 f i Game.obj
 0001:00015980       ?__autoclassinit2@?$_Vector_iterator@V?$_Vector_val@U?$_Simple_types@PEAVPotion@@@std@@@std@@@std@@QEAAX_K@Z 0000000140016980 f i Game.obj
 0001:00015980       ?__autoclassinit2@?$_Vector_iterator@V?$_Vector_val@U?$_Simple_types@PEAVBlueEnemy@@@std@@@std@@@std@@QEAAX_K@Z 0000000140016980 f i Game.obj
 0001:00015980       ?__autoclassinit2@?$_Uninitialized_backout_al@V?$allocator@V?$basic_string@DU?$char_traits@D@std@@V?$allocator@D@2@@std@@@std@@@std@@QEAAX_K@Z 0000000140016980 f i Game.obj
 0001:00015980       ?__autoclassinit2@Game@@QEAAX_K@Z 0000000140016980 f i tryTry.obj
 0001:00015980       ?__autoclassinit2@?$basic_ifstream@DU?$char_traits@D@std@@@std@@QEAAX_K@Z 0000000140016980 f i Game.obj
 0001:00015980       ?__autoclassinit2@?$basic_stringstream@DU?$char_traits@D@std@@V?$allocator@D@2@@std@@QEAAX_K@Z 0000000140016980 f i Game.obj
 0001:00015980       ?__autoclassinit2@?$_Uninitialized_backout_al@V?$allocator@V?$vector@V?$basic_string@DU?$char_traits@D@std@@V?$allocator@D@2@@std@@V?$allocator@V?$basic_string@DU?$char_traits@D@std@@V?$allocator@D@2@@std@@@2@@std@@@std@@@std@@QEAAX_K@Z 0000000140016980 f i Game.obj
 0001:00015980       ?__autoclassinit2@?$_Tree_unchecked_iterator@V?$_Tree_val@U?$_Tree_simple_types@U?$pair@$$CBV?$basic_string@DU?$char_traits@D@std@@V?$allocator@D@2@@std@@PEAVTexture@sf@@@std@@@std@@@std@@@std@@QEAAX_K@Z 0000000140016980 f i Game.obj
 0001:00015980       ?__autoclassinit2@?$vector@V?$basic_string@DU?$char_traits@D@std@@V?$allocator@D@2@@std@@V?$allocator@V?$basic_string@DU?$char_traits@D@std@@V?$allocator@D@2@@std@@@2@@std@@QEAAX_K@Z 0000000140016980 f i Game.obj
 0001:00015980       ?__autoclassinit2@?$_Vector_iterator@V?$_Vector_val@U?$_Simple_types@PEAVEnemies@@@std@@@std@@@std@@QEAAX_K@Z 0000000140016980 f i Game.obj
 0001:000159c0       ?allocate@?$allocator@PEAVBullet@@@std@@QEAAPEAPEAVBullet@@_K@Z 00000001400169c0 f i Game.obj
 0001:000159c0       ?allocate@?$allocator@PEAVPotion@@@std@@QEAAPEAPEAVPotion@@_K@Z 00000001400169c0 f i Game.obj
 0001:000159c0       ?allocate@?$allocator@PEAVBlueEnemy@@@std@@QEAAPEAPEAVBlueEnemy@@_K@Z 00000001400169c0 f i Game.obj
 0001:000159c0       ?allocate@?$allocator@PEAVEnemies@@@std@@QEAAPEAPEAVEnemies@@_K@Z 00000001400169c0 f i Game.obj
 0001:000159c0       ?allocate@?$allocator@PEAVShield@@@std@@QEAAPEAPEAVShield@@_K@Z 00000001400169c0 f i Game.obj
 0001:000159c0       ?allocate@?$allocator@PEAVRedEnemy@@@std@@QEAAPEAPEAVRedEnemy@@_K@Z 00000001400169c0 f i Game.obj
 0001:00015a10       ?allocate@?$allocator@U?$_Tree_node@U?$pair@$$CBV?$basic_string@DU?$char_traits@D@std@@V?$allocator@D@2@@std@@PEAVTexture@sf@@@std@@PEAX@std@@@std@@QEAAPEAU?$_Tree_node@U?$pair@$$CBV?$basic_string@DU?$char_traits@D@std@@V?$allocator@D@2@@std@@PEAVTexture@sf@@@std@@PEAX@2@_K@Z 0000000140016a10 f i Game.obj
 0001:00015ab0       ?allocate@?$allocator@V?$basic_string@DU?$char_traits@D@std@@V?$allocator@D@2@@std@@@std@@QEAAPEAV?$basic_string@DU?$char_traits@D@std@@V?$allocator@D@2@@2@_K@Z 0000000140016ab0 f i Game.obj
 0001:00015b00       ?allocate@?$allocator@V?$vector@V?$basic_string@DU?$char_traits@D@std@@V?$allocator@D@2@@std@@V?$allocator@V?$basic_string@DU?$char_traits@D@std@@V?$allocator@D@2@@std@@@2@@std@@@std@@QEAAPEAV?$vector@V?$basic_string@DU?$char_traits@D@std@@V?$allocator@D@2@@std@@V?$allocator@V?$basic_string@DU?$char_traits@D@std@@V?$allocator@D@2@@std@@@2@@2@_K@Z 0000000140016b00 f i Game.obj
 0001:00015b50       ?append@?$basic_string@DU?$char_traits@D@std@@V?$allocator@D@2@@std@@QEAAAEAV12@QEBD@Z 0000000140016b50 f i Game.obj
 0001:00015bb0       ?append@?$basic_string@DU?$char_traits@D@std@@V?$allocator@D@2@@std@@QEAAAEAV12@QEBD_K@Z 0000000140016bb0 f i Game.obj
 0001:00015cd0       ?at@?$vector@PEAVEnemies@@V?$allocator@PEAVEnemies@@@std@@@std@@QEAAAEAPEAVEnemies@@_K@Z 0000000140016cd0 f i Game.obj
 0001:00015cd0       ?at@?$vector@PEAVRedEnemy@@V?$allocator@PEAVRedEnemy@@@std@@@std@@QEAAAEAPEAVRedEnemy@@_K@Z 0000000140016cd0 f i Game.obj
 0001:00015cd0       ?at@?$vector@PEAVBullet@@V?$allocator@PEAVBullet@@@std@@@std@@QEAAAEAPEAVBullet@@_K@Z 0000000140016cd0 f i Game.obj
 0001:00015cd0       ?at@?$vector@PEAVBlueEnemy@@V?$allocator@PEAVBlueEnemy@@@std@@@std@@QEAAAEAPEAVBlueEnemy@@_K@Z 0000000140016cd0 f i Game.obj
 0001:00015cd0       ?at@?$vector@PEAVPotion@@V?$allocator@PEAVPotion@@@std@@@std@@QEAAAEAPEAVPotion@@_K@Z 0000000140016cd0 f i Game.obj
 0001:00015cd0       ?at@?$vector@PEAVShield@@V?$allocator@PEAVShield@@@std@@@std@@QEAAAEAPEAVShield@@_K@Z 0000000140016cd0 f i Game.obj
 0001:00015d50       ?begin@?$vector@PEAVEnemies@@V?$allocator@PEAVEnemies@@@std@@@std@@QEAA?AV?$_Vector_iterator@V?$_Vector_val@U?$_Simple_types@PEAVEnemies@@@std@@@std@@@2@XZ 0000000140016d50 f i Game.obj
 0001:00015d50       ?begin@?$vector@PEAVBlueEnemy@@V?$allocator@PEAVBlueEnemy@@@std@@@std@@QEAA?AV?$_Vector_iterator@V?$_Vector_val@U?$_Simple_types@PEAVBlueEnemy@@@std@@@std@@@2@XZ 0000000140016d50 f i Game.obj
 0001:00015d50       ?begin@?$vector@PEAVPotion@@V?$allocator@PEAVPotion@@@std@@@std@@QEAA?AV?$_Vector_iterator@V?$_Vector_val@U?$_Simple_types@PEAVPotion@@@std@@@std@@@2@XZ 0000000140016d50 f i Game.obj
 0001:00015d50       ?begin@?$vector@PEAVRedEnemy@@V?$allocator@PEAVRedEnemy@@@std@@@std@@QEAA?AV?$_Vector_iterator@V?$_Vector_val@U?$_Simple_types@PEAVRedEnemy@@@std@@@std@@@2@XZ 0000000140016d50 f i Game.obj
 0001:00015d50       ?begin@?$vector@PEAVBullet@@V?$allocator@PEAVBullet@@@std@@@std@@QEAA?AV?$_Vector_iterator@V?$_Vector_val@U?$_Simple_types@PEAVBullet@@@std@@@std@@@2@XZ 0000000140016d50 f i Game.obj
 0001:00015d50       ?begin@?$vector@PEAVShield@@V?$allocator@PEAVShield@@@std@@@std@@QEAA?AV?$_Vector_iterator@V?$_Vector_val@U?$_Simple_types@PEAVShield@@@std@@@std@@@2@XZ 0000000140016d50 f i Game.obj
 0001:00015e30       ?c_str@?$basic_string@DU?$char_traits@D@std@@V?$allocator@D@2@@std@@QEBAPEBDXZ 0000000140016e30 f i Game.obj
 0001:00015e30       ?data@?$basic_string@DU?$char_traits@D@std@@V?$allocator@D@2@@std@@QEBAPEBDXZ 0000000140016e30 f i Game.obj
 0001:00015e70       ?capacity@?$vector@PEAVBullet@@V?$allocator@PEAVBullet@@@std@@@std@@QEBA_KXZ 0000000140016e70 f i Game.obj
 0001:00015e70       ?capacity@?$vector@PEAVEnemies@@V?$allocator@PEAVEnemies@@@std@@@std@@QEBA_KXZ 0000000140016e70 f i Game.obj
 0001:00015e70       ?capacity@?$vector@PEAVBlueEnemy@@V?$allocator@PEAVBlueEnemy@@@std@@@std@@QEBA_KXZ 0000000140016e70 f i Game.obj
 0001:00015e70       ?capacity@?$vector@PEAVRedEnemy@@V?$allocator@PEAVRedEnemy@@@std@@@std@@QEBA_KXZ 0000000140016e70 f i Game.obj
 0001:00015e70       ?capacity@?$vector@PEAVPotion@@V?$allocator@PEAVPotion@@@std@@@std@@QEBA_KXZ 0000000140016e70 f i Game.obj
 0001:00015e70       ?capacity@?$vector@PEAVShield@@V?$allocator@PEAVShield@@@std@@@std@@QEBA_KXZ 0000000140016e70 f i Game.obj
 0001:00015f30       ?capacity@?$vector@V?$basic_string@DU?$char_traits@D@std@@V?$allocator@D@2@@std@@V?$allocator@V?$basic_string@DU?$char_traits@D@std@@V?$allocator@D@2@@std@@@2@@std@@QEBA_KXZ 0000000140016f30 f i Game.obj
 0001:00015f90       ?capacity@?$vector@V?$vector@V?$basic_string@DU?$char_traits@D@std@@V?$allocator@D@2@@std@@V?$allocator@V?$basic_string@DU?$char_traits@D@std@@V?$allocator@D@2@@std@@@2@@std@@V?$allocator@V?$vector@V?$basic_string@DU?$char_traits@D@std@@V?$allocator@D@2@@std@@V?$allocator@V?$basic_string@DU?$char_traits@D@std@@V?$allocator@D@2@@std@@@2@@std@@@2@@std@@QEBA_KXZ 0000000140016f90 f i Game.obj
 0001:00015ff0       ?checkShield@Game@@QEAAXXZ 0000000140016ff0 f   Game.obj
 0001:000160d0       ?clear@?$basic_string@DU?$char_traits@D@std@@V?$allocator@D@2@@std@@QEAAXXZ 00000001400170d0 f i Game.obj
 0001:00016110       ?clear@?$vector@PEAVBullet@@V?$allocator@PEAVBullet@@@std@@@std@@QEAAXXZ 0000000140017110 f i Game.obj
 0001:00016110       ?clear@?$vector@PEAVBlueEnemy@@V?$allocator@PEAVBlueEnemy@@@std@@@std@@QEAAXXZ 0000000140017110 f i Game.obj
 0001:00016110       ?clear@?$vector@PEAVRedEnemy@@V?$allocator@PEAVRedEnemy@@@std@@@std@@QEAAXXZ 0000000140017110 f i Game.obj
 0001:00016110       ?clear@?$vector@PEAVEnemies@@V?$allocator@PEAVEnemies@@@std@@@std@@QEAAXXZ 0000000140017110 f i Game.obj
 0001:00016110       ?clear@?$vector@PEAVShield@@V?$allocator@PEAVShield@@@std@@@std@@QEAAXXZ 0000000140017110 f i Game.obj
 0001:00016110       ?clear@?$vector@PEAVPotion@@V?$allocator@PEAVPotion@@@std@@@std@@QEAAXXZ 0000000140017110 f i Game.obj
 0001:000161a0       ?close@?$basic_filebuf@DU?$char_traits@D@std@@@std@@QEAAPEAV12@XZ 00000001400171a0 f i Game.obj
 0001:00016250       ?close@?$basic_fstream@DU?$char_traits@D@std@@@std@@QEAAXXZ 0000000140017250 f i Game.obj
 0001:000162c0       ?close@?$basic_ifstream@DU?$char_traits@D@std@@@std@@QEAAXXZ 00000001400172c0 f i Game.obj
 0001:00016330       ?compare@?$_Narrow_char_traits@DH@std@@SAHQEBD0_K@Z 0000000140017330 f i Game.obj
 0001:00016380       ?compare@?$basic_string@DU?$char_traits@D@std@@V?$allocator@D@2@@std@@QEBAHAEBV12@@Z 0000000140017380 f i Game.obj
 0001:00016400       ?deallocate@?$_Default_allocator_traits@V?$allocator@U?$_Tree_node@U?$pair@$$CBV?$basic_string@DU?$char_traits@D@std@@V?$allocator@D@2@@std@@PEAVTexture@sf@@@std@@PEAX@std@@@std@@@std@@SAXAEAV?$allocator@U?$_Tree_node@U?$pair@$$CBV?$basic_string@DU?$char_traits@D@std@@V?$allocator@D@2@@std@@PEAVTexture@sf@@@std@@PEAX@std@@@2@QEAU?$_Tree_node@U?$pair@$$CBV?$basic_string@DU?$char_traits@D@std@@V?$allocator@D@2@@std@@PEAVTexture@sf@@@std@@PEAX@2@_K@Z 0000000140017400 f i Game.obj
 0001:00016400       ?deallocate@?$allocator@U?$_Tree_node@U?$pair@$$CBV?$basic_string@DU?$char_traits@D@std@@V?$allocator@D@2@@std@@PEAVTexture@sf@@@std@@PEAX@std@@@std@@QEAAXQEAU?$_Tree_node@U?$pair@$$CBV?$basic_string@DU?$char_traits@D@std@@V?$allocator@D@2@@std@@PEAVTexture@sf@@@std@@PEAX@2@_K@Z 0000000140017400 f i Game.obj
 0001:00016450       ?deallocate@?$allocator@PEAVBlueEnemy@@@std@@QEAAXQEAPEAVBlueEnemy@@_K@Z 0000000140017450 f i Game.obj
 0001:00016450       ?deallocate@?$allocator@PEAVEnemies@@@std@@QEAAXQEAPEAVEnemies@@_K@Z 0000000140017450 f i Game.obj
 0001:00016450       ?deallocate@?$allocator@PEAVShield@@@std@@QEAAXQEAPEAVShield@@_K@Z 0000000140017450 f i Game.obj
 0001:00016450       ?deallocate@?$allocator@PEAVPotion@@@std@@QEAAXQEAPEAVPotion@@_K@Z 0000000140017450 f i Game.obj
 0001:00016450       ?deallocate@?$allocator@PEAVRedEnemy@@@std@@QEAAXQEAPEAVRedEnemy@@_K@Z 0000000140017450 f i Game.obj
 0001:00016450       ?deallocate@?$allocator@PEAVBullet@@@std@@QEAAXQEAPEAVBullet@@_K@Z 0000000140017450 f i Game.obj
 0001:000164f0       ?deallocate@?$allocator@V?$basic_string@DU?$char_traits@D@std@@V?$allocator@D@2@@std@@@std@@QEAAXQEAV?$basic_string@DU?$char_traits@D@std@@V?$allocator@D@2@@2@_K@Z 00000001400174f0 f i Game.obj
 0001:00016540       ?deallocate@?$allocator@V?$vector@V?$basic_string@DU?$char_traits@D@std@@V?$allocator@D@2@@std@@V?$allocator@V?$basic_string@DU?$char_traits@D@std@@V?$allocator@D@2@@std@@@2@@std@@@std@@QEAAXQEAV?$vector@V?$basic_string@DU?$char_traits@D@std@@V?$allocator@D@2@@std@@V?$allocator@V?$basic_string@DU?$char_traits@D@std@@V?$allocator@D@2@@std@@@2@@2@_K@Z 0000000140017540 f i Game.obj
 0001:00016600       ?eq@?$_Narrow_char_traits@DH@std@@SA_NAEBD0@Z 0000000140017600 f i Game.obj
 0001:00016660       ?erase@?$basic_string@DU?$char_traits@D@std@@V?$allocator@D@2@@std@@QEAAAEAV12@_K0@Z 0000000140017660 f i Game.obj
 0001:000166c0       ?erase@?$basic_string@DU?$char_traits@D@std@@V?$allocator@D@2@@std@@QEAAAEAV12@_K@Z 00000001400176c0 f i Game.obj
 0001:00016720       ?erase@?$vector@PEAVBlueEnemy@@V?$allocator@PEAVBlueEnemy@@@std@@@std@@QEAA?AV?$_Vector_iterator@V?$_Vector_val@U?$_Simple_types@PEAVBlueEnemy@@@std@@@std@@@2@V?$_Vector_const_iterator@V?$_Vector_val@U?$_Simple_types@PEAVBlueEnemy@@@std@@@std@@@2@@Z 0000000140017720 f i Game.obj
 0001:000168f0       ?erase@?$vector@PEAVBullet@@V?$allocator@PEAVBullet@@@std@@@std@@QEAA?AV?$_Vector_iterator@V?$_Vector_val@U?$_Simple_types@PEAVBullet@@@std@@@std@@@2@V?$_Vector_const_iterator@V?$_Vector_val@U?$_Simple_types@PEAVBullet@@@std@@@std@@@2@@Z 00000001400178f0 f i Game.obj
 0001:00016ac0       ?erase@?$vector@PEAVEnemies@@V?$allocator@PEAVEnemies@@@std@@@std@@QEAA?AV?$_Vector_iterator@V?$_Vector_val@U?$_Simple_types@PEAVEnemies@@@std@@@std@@@2@V?$_Vector_const_iterator@V?$_Vector_val@U?$_Simple_types@PEAVEnemies@@@std@@@std@@@2@@Z 0000000140017ac0 f i Game.obj
 0001:00016c90       ?erase@?$vector@PEAVPotion@@V?$allocator@PEAVPotion@@@std@@@std@@QEAA?AV?$_Vector_iterator@V?$_Vector_val@U?$_Simple_types@PEAVPotion@@@std@@@std@@@2@V?$_Vector_const_iterator@V?$_Vector_val@U?$_Simple_types@PEAVPotion@@@std@@@std@@@2@@Z 0000000140017c90 f i Game.obj
 0001:00016e60       ?erase@?$vector@PEAVRedEnemy@@V?$allocator@PEAVRedEnemy@@@std@@@std@@QEAA?AV?$_Vector_iterator@V?$_Vector_val@U?$_Simple_types@PEAVRedEnemy@@@std@@@std@@@2@V?$_Vector_const_iterator@V?$_Vector_val@U?$_Simple_types@PEAVRedEnemy@@@std@@@std@@@2@@Z 0000000140017e60 f i Game.obj
 0001:00017030       ?erase@?$vector@PEAVShield@@V?$allocator@PEAVShield@@@std@@@std@@QEAA?AV?$_Vector_iterator@V?$_Vector_val@U?$_Simple_types@PEAVShield@@@std@@@std@@@2@V?$_Vector_const_iterator@V?$_Vector_val@U?$_Simple_types@PEAVShield@@@std@@@std@@@2@@Z 0000000140018030 f i Game.obj
 0001:00017200       ?front@?$basic_string@DU?$char_traits@D@std@@V?$allocator@D@2@@std@@QEAAAEADXZ 0000000140018200 f i Game.obj
 0001:000172d0       ?imbue@?$basic_filebuf@DU?$char_traits@D@std@@@std@@MEAAXAEBVlocale@2@@Z 00000001400182d0 f i Game.obj
 0001:00017320       ?initialBG1@Game@@AEAAXXZ  0000000140018320 f   Game.obj
 0001:00017470       ?initialBG@Game@@AEAAXXZ   0000000140018470 f   Game.obj
 0001:000175c0       ?initialBGMenu@Game@@AEAAXXZ 00000001400185c0 f   Game.obj
 0001:00017720       ?initialBGMenuSound@Game@@AEAAXXZ 0000000140018720 f   Game.obj
 0001:00017830       ?initialBGSound@Game@@AEAAXXZ 0000000140018830 f   Game.obj
 0001:00017940       ?initialBGtype@Game@@AEAAXXZ 0000000140018940 f   Game.obj
 0001:00017ad0       ?initialBlueEnemy@Game@@AEAAXXZ 0000000140018ad0 f   Game.obj
 0001:00017b30       ?initialBlueSound@Game@@AEAAXXZ 0000000140018b30 f   Game.obj
 0001:00017c50       ?initialCredit@Game@@AEAAXXZ 0000000140018c50 f   Game.obj
 0001:00017de0       ?initialEnemies@Game@@AEAAXXZ 0000000140018de0 f   Game.obj
 0001:00017e40       ?initialFlappySound@Game@@AEAAXXZ 0000000140018e40 f   Game.obj
 0001:00017f60       ?initialGUI@Game@@AEAAXXZ  0000000140018f60 f   Game.obj
 0001:00018750       ?initialHPsound@Game@@AEAAXXZ 0000000140019750 f   Game.obj
 0001:00018870       ?initialHaha@Game@@AEAAXXZ 0000000140019870 f   Game.obj
 0001:00018990       ?initialHealSound@Game@@AEAAXXZ 0000000140019990 f   Game.obj
 0001:00018ab0       ?initialHowTo@Game@@AEAAXXZ 0000000140019ab0 f   Game.obj
 0001:00018c40       ?initialHurtSound@Game@@AEAAXXZ 0000000140019c40 f   Game.obj
 0001:00018d60       ?initialPlayer@Game@@AEAAXXZ 0000000140019d60 f   Game.obj
 0001:00018de0       ?initialPotion@Game@@AEAAXXZ 0000000140019de0 f   Game.obj
 0001:00018e40       ?initialRedEnemy@Game@@AEAAXXZ 0000000140019e40 f   Game.obj
 0001:00018ea0       ?initialRedSound@Game@@AEAAXXZ 0000000140019ea0 f   Game.obj
 0001:00018fc0       ?initialScoreboard@Game@@AEAAXXZ 0000000140019fc0 f   Game.obj
 0001:00019150       ?initialShield@Game@@AEAAXXZ 000000014001a150 f   Game.obj
 0001:000191b0       ?initialShieldSound@Game@@AEAAXXZ 000000014001a1b0 f   Game.obj
 0001:000192d0       ?initialSound@Game@@AEAAXXZ 000000014001a2d0 f   Game.obj
 0001:000193f0       ?initialSystem@Game@@AEAAXXZ 000000014001a3f0 f   Game.obj
 0001:00019430       ?initialTextures@Game@@AEAAXXZ 000000014001a430 f   Game.obj
 0001:000195b0       ?initialWindow@Game@@AEAAXXZ 000000014001a5b0 f   Game.obj
 0001:00019910       ?intersects@?$Rect@M@sf@@QEBA_NAEBV12@@Z 000000014001a910 f i Game.obj
 0001:000199a0       ?intersects@?$Rect@M@sf@@QEBA_NAEBV12@AEAV12@@Z 000000014001a9a0 f i Game.obj
 0001:00019da0       ?is_open@?$basic_filebuf@DU?$char_traits@D@std@@@std@@QEBA_NXZ 000000014001ada0 f i Game.obj
 0001:00019df0       ?is_open@?$basic_ifstream@DU?$char_traits@D@std@@@std@@QEBA_NXZ 000000014001adf0 f i Game.obj
 0001:00019e40       ?max_size@?$_Default_allocator_traits@V?$allocator@PEAVBullet@@@std@@@std@@SA_KAEBV?$allocator@PEAVBullet@@@2@@Z 000000014001ae40 f i Game.obj
 0001:00019e40       ?max_size@?$_Default_allocator_traits@V?$allocator@PEAVEnemies@@@std@@@std@@SA_KAEBV?$allocator@PEAVEnemies@@@2@@Z 000000014001ae40 f i Game.obj
 0001:00019e40       ?max_size@?$_Default_allocator_traits@V?$allocator@PEAVPotion@@@std@@@std@@SA_KAEBV?$allocator@PEAVPotion@@@2@@Z 000000014001ae40 f i Game.obj
 0001:00019e40       ?max_size@?$_Default_allocator_traits@V?$allocator@PEAVRedEnemy@@@std@@@std@@SA_KAEBV?$allocator@PEAVRedEnemy@@@2@@Z 000000014001ae40 f i Game.obj
 0001:00019e40       ?max_size@?$_Default_allocator_traits@V?$allocator@PEAVBlueEnemy@@@std@@@std@@SA_KAEBV?$allocator@PEAVBlueEnemy@@@2@@Z 000000014001ae40 f i Game.obj
 0001:00019e40       ?max_size@?$_Default_allocator_traits@V?$allocator@PEAVShield@@@std@@@std@@SA_KAEBV?$allocator@PEAVShield@@@2@@Z 000000014001ae40 f i Game.obj
 0001:00019e80       ?max_size@?$_Default_allocator_traits@V?$allocator@U?$_Tree_node@U?$pair@$$CBV?$basic_string@DU?$char_traits@D@std@@V?$allocator@D@2@@std@@PEAVTexture@sf@@@std@@PEAX@std@@@std@@@std@@SA_KAEBV?$allocator@U?$_Tree_node@U?$pair@$$CBV?$basic_string@DU?$char_traits@D@std@@V?$allocator@D@2@@std@@PEAVTexture@sf@@@std@@PEAX@std@@@2@@Z 000000014001ae80 f i Game.obj
 0001:00019f00       ?max_size@?$_Default_allocator_traits@V?$allocator@V?$basic_string@DU?$char_traits@D@std@@V?$allocator@D@2@@std@@@std@@@std@@SA_KAEBV?$allocator@V?$basic_string@DU?$char_traits@D@std@@V?$allocator@D@2@@std@@@2@@Z 000000014001af00 f i Game.obj
 0001:00019f40       ?max_size@?$_Default_allocator_traits@V?$allocator@V?$vector@V?$basic_string@DU?$char_traits@D@std@@V?$allocator@D@2@@std@@V?$allocator@V?$basic_string@DU?$char_traits@D@std@@V?$allocator@D@2@@std@@@2@@std@@@std@@@std@@SA_KAEBV?$allocator@V?$vector@V?$basic_string@DU?$char_traits@D@std@@V?$allocator@D@2@@std@@V?$allocator@V?$basic_string@DU?$char_traits@D@std@@V?$allocator@D@2@@std@@@2@@std@@@2@@Z 000000014001af40 f i Game.obj
 0001:00019f80       ?max_size@?$_Tree@V?$_Tmap_traits@V?$basic_string@DU?$char_traits@D@std@@V?$allocator@D@2@@std@@PEAVTexture@sf@@U?$less@V?$basic_string@DU?$char_traits@D@std@@V?$allocator@D@2@@std@@@2@V?$allocator@U?$pair@$$CBV?$basic_string@DU?$char_traits@D@std@@V?$allocator@D@2@@std@@PEAVTexture@sf@@@std@@@2@$0A@@std@@@std@@QEBA_KXZ 000000014001af80 f i Game.obj
 0001:00019ff0       ?max_size@?$vector@PEAVShield@@V?$allocator@PEAVShield@@@std@@@std@@QEBA_KXZ 000000014001aff0 f i Game.obj
 0001:00019ff0       ?max_size@?$vector@PEAVBullet@@V?$allocator@PEAVBullet@@@std@@@std@@QEBA_KXZ 000000014001aff0 f i Game.obj
 0001:00019ff0       ?max_size@?$vector@PEAVEnemies@@V?$allocator@PEAVEnemies@@@std@@@std@@QEBA_KXZ 000000014001aff0 f i Game.obj
 0001:00019ff0       ?max_size@?$vector@PEAVRedEnemy@@V?$allocator@PEAVRedEnemy@@@std@@@std@@QEBA_KXZ 000000014001aff0 f i Game.obj
 0001:00019ff0       ?max_size@?$vector@PEAVBlueEnemy@@V?$allocator@PEAVBlueEnemy@@@std@@@std@@QEBA_KXZ 000000014001aff0 f i Game.obj
 0001:00019ff0       ?max_size@?$vector@PEAVPotion@@V?$allocator@PEAVPotion@@@std@@@std@@QEBA_KXZ 000000014001aff0 f i Game.obj
 0001:0001a0d0       ?max_size@?$vector@V?$basic_string@DU?$char_traits@D@std@@V?$allocator@D@2@@std@@V?$allocator@V?$basic_string@DU?$char_traits@D@std@@V?$allocator@D@2@@std@@@2@@std@@QEBA_KXZ 000000014001b0d0 f i Game.obj
 0001:0001a140       ?max_size@?$vector@V?$vector@V?$basic_string@DU?$char_traits@D@std@@V?$allocator@D@2@@std@@V?$allocator@V?$basic_string@DU?$char_traits@D@std@@V?$allocator@D@2@@std@@@2@@std@@V?$allocator@V?$vector@V?$basic_string@DU?$char_traits@D@std@@V?$allocator@D@2@@std@@V?$allocator@V?$basic_string@DU?$char_traits@D@std@@V?$allocator@D@2@@std@@@2@@std@@@2@@std@@QEBA_KXZ 000000014001b140 f i Game.obj
 0001:0001a1b0       ?not_eof@?$_Narrow_char_traits@DH@std@@SAHAEBH@Z 000000014001b1b0 f i Game.obj
 0001:0001a230       ?open@?$basic_filebuf@DU?$char_traits@D@std@@@std@@QEAAPEAV12@PEBDHH@Z 000000014001b230 f i Game.obj
 0001:0001a310       ?open@?$basic_fstream@DU?$char_traits@D@std@@@std@@QEAAXPEBDHH@Z 000000014001b310 f i Game.obj
 0001:0001a3d0       ?open@?$basic_ifstream@DU?$char_traits@D@std@@@std@@QEAAXPEBDHH@Z 000000014001b3d0 f i Game.obj
 0001:0001a490       ?overflow@?$basic_filebuf@DU?$char_traits@D@std@@@std@@MEAAHH@Z 000000014001b490 f i Game.obj
 0001:0001a7d0       ?overflow@?$basic_stringbuf@DU?$char_traits@D@std@@V?$allocator@D@2@@std@@MEAAHH@Z 000000014001b7d0 f i Game.obj
 0001:0001aa90       ?pbackfail@?$basic_filebuf@DU?$char_traits@D@std@@@std@@MEAAHH@Z 000000014001ba90 f i Game.obj
 0001:0001ac40       ?pbackfail@?$basic_stringbuf@DU?$char_traits@D@std@@V?$allocator@D@2@@std@@MEAAHH@Z 000000014001bc40 f i Game.obj
 0001:0001ad70       ?pointer_to@?$pointer_traits@PEAD@std@@SAPEADAEAD@Z 000000014001bd70 f i Game.obj
 0001:0001adb0       ?pop_back@?$basic_string@DU?$char_traits@D@std@@V?$allocator@D@2@@std@@QEAAXXZ 000000014001bdb0 f i Game.obj
 0001:0001ae80       ?push_back@?$basic_string@DU?$char_traits@D@std@@V?$allocator@D@2@@std@@QEAAXD@Z 000000014001be80 f i Game.obj
 0001:0001af70       ?push_back@?$vector@PEAVBlueEnemy@@V?$allocator@PEAVBlueEnemy@@@std@@@std@@QEAAX$$QEAPEAVBlueEnemy@@@Z 000000014001bf70 f i Game.obj
 0001:0001afc0       ?push_back@?$vector@PEAVBullet@@V?$allocator@PEAVBullet@@@std@@@std@@QEAAX$$QEAPEAVBullet@@@Z 000000014001bfc0 f i Game.obj
 0001:0001b010       ?push_back@?$vector@PEAVEnemies@@V?$allocator@PEAVEnemies@@@std@@@std@@QEAAX$$QEAPEAVEnemies@@@Z 000000014001c010 f i Game.obj
 0001:0001b060       ?push_back@?$vector@PEAVPotion@@V?$allocator@PEAVPotion@@@std@@@std@@QEAAX$$QEAPEAVPotion@@@Z 000000014001c060 f i Game.obj
 0001:0001b0b0       ?push_back@?$vector@PEAVRedEnemy@@V?$allocator@PEAVRedEnemy@@@std@@@std@@QEAAX$$QEAPEAVRedEnemy@@@Z 000000014001c0b0 f i Game.obj
 0001:0001b100       ?push_back@?$vector@PEAVShield@@V?$allocator@PEAVShield@@@std@@@std@@QEAAX$$QEAPEAVShield@@@Z 000000014001c100 f i Game.obj
 0001:0001b1a0       ?push_back@?$vector@V?$basic_string@DU?$char_traits@D@std@@V?$allocator@D@2@@std@@V?$allocator@V?$basic_string@DU?$char_traits@D@std@@V?$allocator@D@2@@std@@@2@@std@@QEAAX$$QEAV?$basic_string@DU?$char_traits@D@std@@V?$allocator@D@2@@2@@Z 000000014001c1a0 f i Game.obj
 0001:0001b1f0       ?push_back@?$vector@V?$vector@V?$basic_string@DU?$char_traits@D@std@@V?$allocator@D@2@@std@@V?$allocator@V?$basic_string@DU?$char_traits@D@std@@V?$allocator@D@2@@std@@@2@@std@@V?$allocator@V?$vector@V?$basic_string@DU?$char_traits@D@std@@V?$allocator@D@2@@std@@V?$allocator@V?$basic_string@DU?$char_traits@D@std@@V?$allocator@D@2@@std@@@2@@std@@@2@@std@@QEAAXAEBV?$vector@V?$basic_string@DU?$char_traits@D@std@@V?$allocator@D@2@@std@@V?$allocator@V?$basic_string@DU?$char_traits@D@std@@V?$allocator@D@2@@std@@@2@@2@@Z 000000014001c1f0 f i Game.obj
 0001:0001b240       ?readFileScore@Game@@AEAAXXZ 000000014001c240 f   Game.obj
 0001:0001bdb0       ?release@?$unique_ptr@V_Facet_base@std@@U?$default_delete@V_Facet_base@std@@@2@@std@@QEAAPEAV_Facet_base@2@XZ 000000014001cdb0 f i Game.obj
 0001:0001be00       ?render@Game@@QEAAXXZ      000000014001ce00 f   Game.obj
 0001:0001c650       ?renderBG1@Game@@QEAAXXZ   000000014001d650 f   Game.obj
 0001:0001c6b0       ?renderBG@Game@@QEAAXXZ    000000014001d6b0 f   Game.obj
 0001:0001c710       ?renderBGMenu@Game@@QEAAXXZ 000000014001d710 f   Game.obj
 0001:0001c770       ?renderBGtype@Game@@QEAAXXZ 000000014001d770 f   Game.obj
 0001:0001c7d0       ?renderCredit@Game@@QEAAXXZ 000000014001d7d0 f   Game.obj
 0001:0001c830       ?renderGUI@Game@@QEAAXXZ   000000014001d830 f   Game.obj
 0001:0001c8e0       ?renderHowTo@Game@@QEAAXXZ 000000014001d8e0 f   Game.obj
 0001:0001c940       ?renderNameBoxAndText@Game@@QEAAXXZ 000000014001d940 f   Game.obj
 0001:0001c9b0       ?renderPlayer@Game@@QEAAXXZ 000000014001d9b0 f   Game.obj
 0001:0001ca10       ?renderScoreboard@Game@@QEAAXXZ 000000014001da10 f   Game.obj
 0001:0001ca70       ?run@Game@@QEAAXXZ         000000014001da70 f   Game.obj
 0001:0001cb00       ?seekoff@?$basic_filebuf@DU?$char_traits@D@std@@@std@@MEAA?AV?$fpos@U_Mbstatet@@@2@_JHH@Z 000000014001db00 f i Game.obj
 0001:0001cc60       ?seekoff@?$basic_stringbuf@DU?$char_traits@D@std@@V?$allocator@D@2@@std@@MEAA?AV?$fpos@U_Mbstatet@@@2@_JHH@Z 000000014001dc60 f i Game.obj
 0001:0001cf30       ?seekpos@?$basic_filebuf@DU?$char_traits@D@std@@@std@@MEAA?AV?$fpos@U_Mbstatet@@@2@V32@H@Z 000000014001df30 f i Game.obj
 0001:0001d050       ?seekpos@?$basic_stringbuf@DU?$char_traits@D@std@@V?$allocator@D@2@@std@@MEAA?AV?$fpos@U_Mbstatet@@@2@V32@H@Z 000000014001e050 f i Game.obj
 0001:0001d210       ?setbuf@?$basic_filebuf@DU?$char_traits@D@std@@@std@@MEAAPEAV?$basic_streambuf@DU?$char_traits@D@std@@@2@PEAD_J@Z 000000014001e210 f i Game.obj
 0001:0001d2d0       ?size@?$basic_string@DU?$char_traits@D@std@@V?$allocator@D@2@@std@@QEBA_KXZ 000000014001e2d0 f i Game.obj
 0001:0001d310       ?size@?$vector@PEAVPotion@@V?$allocator@PEAVPotion@@@std@@@std@@QEBA_KXZ 000000014001e310 f i Game.obj
 0001:0001d310       ?size@?$vector@PEAVBlueEnemy@@V?$allocator@PEAVBlueEnemy@@@std@@@std@@QEBA_KXZ 000000014001e310 f i Game.obj
 0001:0001d310       ?size@?$vector@PEAVEnemies@@V?$allocator@PEAVEnemies@@@std@@@std@@QEBA_KXZ 000000014001e310 f i Game.obj
 0001:0001d310       ?size@?$vector@PEAVBullet@@V?$allocator@PEAVBullet@@@std@@@std@@QEBA_KXZ 000000014001e310 f i Game.obj
 0001:0001d310       ?size@?$vector@PEAVRedEnemy@@V?$allocator@PEAVRedEnemy@@@std@@@std@@QEBA_KXZ 000000014001e310 f i Game.obj
 0001:0001d370       ?state@?$fpos@U_Mbstatet@@@std@@QEBA?AU_Mbstatet@@XZ 000000014001e370 f i Game.obj
 0001:0001d3c0       ?stoi@std@@YAHAEBV?$basic_string@DU?$char_traits@D@std@@V?$allocator@D@2@@1@PEA_KH@Z 000000014001e3c0 f i Game.obj
 0001:0001d4e0       ?str@?$basic_stringbuf@DU?$char_traits@D@std@@V?$allocator@D@2@@std@@QEBA?AV?$basic_string@DU?$char_traits@D@std@@V?$allocator@D@2@@2@XZ 000000014001e4e0 f i Game.obj
 0001:0001d690       ?str@?$basic_stringstream@DU?$char_traits@D@std@@V?$allocator@D@2@@std@@QEBA?AV?$basic_string@DU?$char_traits@D@std@@V?$allocator@D@2@@2@XZ 000000014001e690 f i Game.obj
 0001:0001d700       ?sync@?$basic_filebuf@DU?$char_traits@D@std@@@std@@MEAAHXZ 000000014001e700 f i Game.obj
 0001:0001d7b0       ?to_int_type@?$_Narrow_char_traits@DH@std@@SAHAEBD@Z 000000014001e7b0 f i Game.obj
 0001:0001d7b0       ?to_char_type@?$_Narrow_char_traits@DH@std@@SADAEBH@Z 000000014001e7b0 f i Game.obj
 0001:0001d7f0       ?to_string@std@@YA?AV?$basic_string@DU?$char_traits@D@std@@V?$allocator@D@2@@1@H@Z 000000014001e7f0 f i Game.obj
 0001:0001d850       ?uflow@?$basic_filebuf@DU?$char_traits@D@std@@@std@@MEAAHXZ 000000014001e850 f i Game.obj
 0001:0001dc30       ?underflow@?$basic_filebuf@DU?$char_traits@D@std@@@std@@MEAAHXZ 000000014001ec30 f i Game.obj
 0001:0001dd30       ?underflow@?$basic_stringbuf@DU?$char_traits@D@std@@V?$allocator@D@2@@std@@MEAAHXZ 000000014001ed30 f i Game.obj
 0001:0001deb0       ?update@Game@@QEAAXXZ      000000014001eeb0 f   Game.obj
 0001:0001df80       ?updateAndSaveScore@Game@@QEAAXXZ 000000014001ef80 f   Game.obj
 0001:0001e470       ?updateBG@Game@@QEAAXXZ    000000014001f470 f   Game.obj
 0001:0001e4a0       ?updateBlueEnemy@Game@@QEAAXXZ 000000014001f4a0 f   Game.obj
 0001:0001ebd0       ?updateBullets@Game@@QEAAXXZ 000000014001fbd0 f   Game.obj
 0001:0001edf0       ?updateCollision@Game@@QEAAXXZ 000000014001fdf0 f   Game.obj
 0001:0001f3b0       ?updateCombat@Game@@QEAAXXZ 00000001400203b0 f   Game.obj
 0001:00020060       ?updateDt@Game@@QEAAXXZ    0000000140021060 f   Game.obj
 0001:000200c0       ?updateEnemies@Game@@QEAAXXZ 00000001400210c0 f   Game.obj
 0001:000207f0       ?updateGUI@Game@@QEAAXXZ   00000001400217f0 f   Game.obj
 0001:00020b60       ?updateInput@Game@@QEAAXXZ 0000000140021b60 f   Game.obj
 0001:00020dc0       ?updatePollEvents@Game@@QEAAXXZ 0000000140021dc0 f   Game.obj
 0001:00021380       ?updatePotion@Game@@QEAAXXZ 0000000140022380 f   Game.obj
 0001:00021940       ?updateRedEnemy@Game@@QEAAXXZ 0000000140022940 f   Game.obj
 0001:00022070       ?updateShield@Game@@QEAAXXZ 0000000140023070 f   Game.obj
 0001:000226c0       ?xsgetn@?$basic_filebuf@DU?$char_traits@D@std@@@std@@MEAA_JPEAD_J@Z 00000001400236c0 f i Game.obj
 0001:00022930       ?xsputn@?$basic_filebuf@DU?$char_traits@D@std@@@std@@MEAA_JPEBD_J@Z 0000000140023930 f i Game.obj
 0001:00022a80       ??$?XM@sf@@YAAEAV?$Vector2@M@0@AEAV10@M@Z 0000000140023a80 f i Player.obj
 0001:00022af0       ??0Player@@QEAA@XZ         0000000140023af0 f   Player.obj
 0001:00022c00       ??1Player@@UEAA@XZ         0000000140023c00 f   Player.obj
 0001:00022c90       ??_EPlayer@@UEAAPEAXI@Z    0000000140023c90 f i Player.obj
 0001:00022c90       ??_GPlayer@@UEAAPEAXI@Z    0000000140023c90 f i Player.obj
 0001:00022cf0       ?abs@@YAMM@Z               0000000140023cf0 f i Player.obj
 0001:00022d30       ?canAttack@Player@@QEAA?B_NXZ 0000000140023d30 f   Player.obj
 0001:00022da0       ?getBounds@Player@@QEBA?AV?$Rect@M@sf@@XZ 0000000140023da0 f   Player.obj
 0001:00022e00       ?getHp@Player@@QEBAAEBHXZ  0000000140023e00 f   Player.obj
 0001:00022e40       ?getHpMax@Player@@QEBAAEBHXZ 0000000140023e40 f   Player.obj
 0001:00022e80       ?getPos@Player@@QEBAAEBV?$Vector2@M@sf@@XZ 0000000140023e80 f   Player.obj
 0001:00022ed0       ?getShield@Player@@QEAAX_NMM@Z 0000000140023ed0 f   Player.obj
 0001:00023060       ?initialAnimations@Player@@AEAAXXZ 0000000140024060 f   Player.obj
 0001:000230b0       ?initialPhysics@Player@@AEAAXXZ 00000001400240b0 f   Player.obj
 0001:00023140       ?initialSprite@Player@@AEAAXXZ 0000000140024140 f   Player.obj
 0001:00023260       ?initialTexture@Player@@AEAAXXZ 0000000140024260 f   Player.obj
 0001:00023320       ?initialVariables@Player@@AEAAXXZ 0000000140024320 f   Player.obj
 0001:000233c0       ?loseHP@Player@@QEAAXH@Z   00000001400243c0 f   Player.obj
 0001:00023450       ?move@Player@@QEAAXMM@Z    0000000140024450 f   Player.obj
 0001:000235e0       ?render@Player@@QEAAXAEAVRenderTarget@sf@@@Z 00000001400245e0 f   Player.obj
 0001:00023670       ?setHP@Player@@QEAAXH@Z    0000000140024670 f   Player.obj
 0001:000236c0       ?setPosition@Player@@QEAAXMM@Z 00000001400246c0 f   Player.obj
 0001:00023720       ?update@Player@@QEAAXXZ    0000000140024720 f   Player.obj
 0001:00023780       ?updateAnimations@Player@@QEAAXXZ 0000000140024780 f   Player.obj
 0001:00023c80       ?updateAttack@Player@@QEAAXXZ 0000000140024c80 f   Player.obj
 0001:00023cf0       ?updateMovement@Player@@QEAAXXZ 0000000140024cf0 f   Player.obj
 0001:00023e10       ?updatePhysics@Player@@QEAAXXZ 0000000140024e10 f   Player.obj
 0001:00023f20       ?updateShield@Player@@QEAAXMM@Z 0000000140024f20 f   Player.obj
 0001:00023f90       fabsf                      0000000140024f90 f i Player.obj
 0001:00023fd0       ??0Potion@@QEAA@MM@Z       0000000140024fd0 f   Potion.obj
 0001:000240b0       ??1Potion@@UEAA@XZ         00000001400250b0 f   Potion.obj
 0001:00024130       ??_GPotion@@UEAAPEAXI@Z    0000000140025130 f i Potion.obj
 0001:00024130       ??_EPotion@@UEAAPEAXI@Z    0000000140025130 f i Potion.obj
 0001:00024190       ?getBounds@Potion@@QEBA?BV?$Rect@M@sf@@XZ 0000000140025190 f   Potion.obj
 0001:000241f0       ?getDamage@Potion@@QEBAAEBHXZ 00000001400251f0 f   Potion.obj
 0001:00024230       ?getPoints@Potion@@QEBAAEBHXZ 0000000140025230 f   Potion.obj
 0001:00024270       ?initialSprite@Potion@@AEAAXXZ 0000000140025270 f   Potion.obj
 0001:000242f0       ?initialTexture@Potion@@AEAAXXZ 00000001400252f0 f   Potion.obj
 0001:000243b0       ?initialVariables@Potion@@AEAAXXZ 00000001400253b0 f   Potion.obj
 0001:00024470       ?render@Potion@@QEAAXAEAVRenderTarget@sf@@@Z 0000000140025470 f   Potion.obj
 0001:000244d0       ?update@Potion@@QEAAXXZ    00000001400254d0 f   Potion.obj
 0001:00024530       ??0RedEnemy@@QEAA@MM@Z     0000000140025530 f   RedEnemy.obj
 0001:00024640       ??1RedEnemy@@UEAA@XZ       0000000140025640 f   RedEnemy.obj
 0001:000246c0       ??_ERedEnemy@@UEAAPEAXI@Z  00000001400256c0 f i RedEnemy.obj
 0001:000246c0       ??_GRedEnemy@@UEAAPEAXI@Z  00000001400256c0 f i RedEnemy.obj
 0001:00024720       ?getBounds@RedEnemy@@QEBA?BV?$Rect@M@sf@@XZ 0000000140025720 f   RedEnemy.obj
 0001:00024780       ?getDamage@RedEnemy@@QEBAAEBHXZ 0000000140025780 f   RedEnemy.obj
 0001:000247c0       ?getPoints@RedEnemy@@QEBAAEBHXZ 00000001400257c0 f   RedEnemy.obj
 0001:00024800       ?initialAnimations@RedEnemy@@AEAAXXZ 0000000140025800 f   RedEnemy.obj
 0001:00024850       ?initialSprite@RedEnemy@@AEAAXXZ 0000000140025850 f   RedEnemy.obj
 0001:00024920       ?initialTexture@RedEnemy@@AEAAXXZ 0000000140025920 f   RedEnemy.obj
 0001:000249e0       ?initialVariables@RedEnemy@@AEAAXXZ 00000001400259e0 f   RedEnemy.obj
 0001:00024ab0       ?render@RedEnemy@@QEAAXAEAVRenderTarget@sf@@@Z 0000000140025ab0 f   RedEnemy.obj
 0001:00024b10       ?update@RedEnemy@@QEAAXXZ  0000000140025b10 f   RedEnemy.obj
 0001:00024b60       ?updateAnimations@RedEnemy@@QEAAXXZ 0000000140025b60 f   RedEnemy.obj
 0001:00024c70       ?updateMovement@RedEnemy@@QEAAXXZ 0000000140025c70 f   RedEnemy.obj
 0001:00024d00       ??0Shield@@QEAA@MM@Z       0000000140025d00 f   Shield.obj
 0001:00024e10       ??1Shield@@UEAA@XZ         0000000140025e10 f   Shield.obj
 0001:00024e90       ??_GShield@@UEAAPEAXI@Z    0000000140025e90 f i Shield.obj
 0001:00024e90       ??_EShield@@UEAAPEAXI@Z    0000000140025e90 f i Shield.obj
 0001:00024ef0       ?getBounds@Shield@@QEBA?BV?$Rect@M@sf@@XZ 0000000140025ef0 f   Shield.obj
 0001:00024f50       ?getDamage@Shield@@QEBAAEBHXZ 0000000140025f50 f   Shield.obj
 0001:00024f90       ?initialAnimations@Shield@@AEAAXXZ 0000000140025f90 f   Shield.obj
 0001:00024fe0       ?initialSprite@Shield@@AEAAXXZ 0000000140025fe0 f   Shield.obj
 0001:000250b0       ?initialTexture@Shield@@AEAAXXZ 00000001400260b0 f   Shield.obj
 0001:00025170       ?initialVariables@Shield@@AEAAXXZ 0000000140026170 f   Shield.obj
 0001:00025240       ?render@Shield@@QEAAXAEAVRenderTarget@sf@@@Z 0000000140026240 f   Shield.obj
 0001:000252a0       ?update@Shield@@QEAAXXZ    00000001400262a0 f   Shield.obj
 0001:000252f0       ?updateAnimations@Shield@@QEAAXXZ 00000001400262f0 f   Shield.obj
 0001:00025400       ?updateMovement@Shield@@QEAAXXZ 0000000140026400 f   Shield.obj
 0001:00025490       main                       0000000140026490 f   tryTry.obj
 0001:0002558b       ?getSize@RenderWindow@sf@@UEBA?AV?$Vector2@I@2@XZ 000000014002658b f   sfml-graphics:sfml-graphics-2.dll
 0001:00025591       ?onCreate@RenderWindow@sf@@MEAAXXZ 0000000140026591 f   sfml-graphics:sfml-graphics-2.dll
 0001:00025597       ?onResize@RenderWindow@sf@@MEAAXXZ 0000000140026597 f   sfml-graphics:sfml-graphics-2.dll
 0001:0002559d       ?setActive@RenderWindow@sf@@UEAA_N_N@Z 000000014002659d f   sfml-graphics:sfml-graphics-2.dll
 0001:000255a3       ?_Xbad_alloc@std@@YAXXZ    00000001400265a3 f   msvcprtd:MSVCP140D.dll
 0001:000255a9       ?_Xlength_error@std@@YAXPEBD@Z 00000001400265a9 f   msvcprtd:MSVCP140D.dll
 0001:000255af       ?uncaught_exception@std@@YA_NXZ 00000001400265af f   msvcprtd:MSVCP140D.dll
 0001:000255b5       ?_Xinvalid_argument@std@@YAXPEBD@Z 00000001400265b5 f   msvcprtd:MSVCP140D.dll
 0001:000255bb       ?_Xout_of_range@std@@YAXPEBD@Z 00000001400265bb f   msvcprtd:MSVCP140D.dll
 0001:000255d0       ??0_Fac_node@std@@QEAA@PEAU01@PEAV_Facet_base@1@@Z 00000001400265d0 f i msvcprtd:locale0_implib.obj
 0001:00025600       ??1_Fac_node@std@@QEAA@XZ  0000000140026600 f i msvcprtd:locale0_implib.obj
 0001:00025690       ??1_Fac_tidy_reg_t@std@@QEAA@XZ 0000000140026690 f i msvcprtd:locale0_implib.obj
 0001:00025700       ??2_Fac_node@std@@SAPEAX_K@Z 0000000140026700 f i msvcprtd:locale0_implib.obj
 0001:00025760       ??3_Fac_node@std@@SAXPEAX@Z 0000000140026760 f i msvcprtd:locale0_implib.obj
 0001:00025780       ??_G_Fac_node@std@@QEAAPEAXI@Z 0000000140026780 f i msvcprtd:locale0_implib.obj
 0001:000257e0       ?_Facet_Register@std@@YAXPEAV_Facet_base@1@@Z 00000001400267e0 f   msvcprtd:locale0_implib.obj
 0001:00025841       ?_Init@locale@std@@CAPEAV_Locimp@12@_N@Z 0000000140026841 f   msvcprtd:MSVCP140D.dll
 0001:00025847       ?_Getgloballocale@locale@std@@CAPEAV_Locimp@12@XZ 0000000140026847 f   msvcprtd:MSVCP140D.dll
 0001:0002584d       ?xsgetn@?$basic_streambuf@DU?$char_traits@D@std@@@std@@MEAA_JPEAD_J@Z 000000014002684d f   msvcprtd:MSVCP140D.dll
 0001:00025853       ?xsputn@?$basic_streambuf@DU?$char_traits@D@std@@@std@@MEAA_JPEBD_J@Z 0000000140026853 f   msvcprtd:MSVCP140D.dll
 0001:00025859       ?_Fiopen@std@@YAPEAU_iobuf@@PEBDHH@Z 0000000140026859 f   msvcprtd:MSVCP140D.dll
 0001:0002585f       ?_Lock@?$basic_streambuf@DU?$char_traits@D@std@@@std@@UEAAXXZ 000000014002685f f   msvcprtd:MSVCP140D.dll
 0001:00025865       ?_Unlock@?$basic_streambuf@DU?$char_traits@D@std@@@std@@UEAAXXZ 0000000140026865 f   msvcprtd:MSVCP140D.dll
 0001:0002586b       ?imbue@?$basic_streambuf@DU?$char_traits@D@std@@@std@@MEAAXAEBVlocale@2@@Z 000000014002686b f   msvcprtd:MSVCP140D.dll
 0001:00025871       ?setbuf@?$basic_streambuf@DU?$char_traits@D@std@@@std@@MEAAPEAV12@PEAD_J@Z 0000000140026871 f   msvcprtd:MSVCP140D.dll
 0001:00025877       ?showmanyc@?$basic_streambuf@DU?$char_traits@D@std@@@std@@MEAA_JXZ 0000000140026877 f   msvcprtd:MSVCP140D.dll
 0001:0002587d       ?sync@?$basic_streambuf@DU?$char_traits@D@std@@@std@@MEAAHXZ 000000014002687d f   msvcprtd:MSVCP140D.dll
 0001:00025883       ?uflow@?$basic_streambuf@DU?$char_traits@D@std@@@std@@MEAAHXZ 0000000140026883 f   msvcprtd:MSVCP140D.dll
 0001:00025890       ??2@YAPEAX_K@Z             0000000140026890 f   MSVCRTD:new_scalar.obj
 0001:000258e0       ??3@YAXPEAX_K@Z            00000001400268e0 f   MSVCRTD:delete_scalar_size.obj
 0001:00025900       _RTC_CheckStackVars        0000000140026900 f   MSVCRTD:stack.obj
 0001:00025990       __CheckForDebuggerJustMyCode 0000000140026990 f   MSVCRTD:debugger_jmc.obj
 0001:000259d0       __GSHandlerCheck           00000001400269d0 f   MSVCRTD:gshandler.obj
 0001:00025a10       __GSHandlerCheckCommon     0000000140026a10 f   MSVCRTD:gshandler.obj
 0001:00025b10       __GSHandlerCheck_EH4       0000000140026b10 f   MSVCRTD:gshandlereh4.obj
 0001:00025bd0       __security_check_cookie    0000000140026bd0 f   MSVCRTD:amdsecgs.obj
 0001:00025c00       ??1type_info@@UEAA@XZ      0000000140026c00 f   MSVCRTD:std_type_info_static.obj
 0001:00025c20       ??_Etype_info@@UEAAPEAXI@Z 0000000140026c20 f i MSVCRTD:std_type_info_static.obj
 0001:00025c20       ??_Gtype_info@@UEAAPEAXI@Z 0000000140026c20 f i MSVCRTD:std_type_info_static.obj
 0001:00025c60       ??_L@YAXPEAX_K1P6AX0@Z2@Z  0000000140026c60 f   MSVCRTD:ehvecctr.obj
 0001:00025d10       ??_M@YAXPEAX_K1P6AX0@Z@Z   0000000140026d10 f   MSVCRTD:ehvecdtr.obj
 0001:00025e40       ?__ArrayUnwind@@YAXPEAX_K1P6AX0@Z@Z 0000000140026e40 f   MSVCRTD:ehvecdtr.obj
 0001:00025ed0       __chkstk                   0000000140026ed0 f   MSVCRTD:chkstk.obj
 0001:00025ed0       _alloca_probe              0000000140026ed0 f   MSVCRTD:chkstk.obj
 0001:000261e0       ?configure_argv@__scrt_narrow_argv_policy@@SAHXZ 00000001400271e0 f i MSVCRTD:exe_main.obj
 0001:00026200       ?initialize_environment@__scrt_narrow_environment_policy@@SAHXZ 0000000140027200 f i MSVCRTD:exe_main.obj
 0001:00026250       ?set_app_type@__scrt_main_policy@@SAXXZ 0000000140027250 f i MSVCRTD:exe_main.obj
 0001:00026270       ?set_commode@__scrt_file_policy@@SAXXZ 0000000140027270 f i MSVCRTD:exe_main.obj
 0001:00026290       ?set_fmode@__scrt_file_policy@@SAXXZ 0000000140027290 f i MSVCRTD:exe_main.obj
 0001:000262b0       mainCRTStartup             00000001400272b0 f   MSVCRTD:exe_main.obj
 0001:00026420       NtCurrentTeb               0000000140027420 f i MSVCRTD:utility.obj
 0001:00026430       __scrt_acquire_startup_lock 0000000140027430 f   MSVCRTD:utility.obj
 0001:000264a0       __scrt_initialize_crt      00000001400274a0 f   MSVCRTD:utility.obj
 0001:000264f0       __scrt_initialize_onexit_tables 00000001400274f0 f   MSVCRTD:utility.obj
 0001:00026600       __scrt_is_nonwritable_in_current_image 0000000140027600 f   MSVCRTD:utility.obj
 0001:00026690       __scrt_release_startup_lock 0000000140027690 f   MSVCRTD:utility.obj
 0001:000266c0       __scrt_uninitialize_crt    00000001400276c0 f   MSVCRTD:utility.obj
 0001:00026700       _onexit                    0000000140027700 f   MSVCRTD:utility.obj
 0001:00026780       atexit                     0000000140027780 f   MSVCRTD:utility.obj
 0001:000267c0       _guard_check_icall_nop     00000001400277c0 f i MSVCRTD:guard_support.obj
 0001:000267d0       ??0bad_alloc@std@@QEAA@XZ  00000001400277d0 f i MSVCRTD:throw_bad_alloc.obj
 0001:00026810       ?__scrt_throw_std_bad_alloc@@YAXXZ 0000000140027810 f   MSVCRTD:throw_bad_alloc.obj
 0001:00026840       ?__scrt_throw_std_bad_array_new_length@@YAXXZ 0000000140027840 f   MSVCRTD:throw_bad_alloc.obj
 0001:00026870       ??3@YAXPEAX@Z              0000000140027870 f   MSVCRTD:delete_scalar.obj
 0001:00026920       ?_RTC_StackFailure@@YAXPEAXPEBD@Z 0000000140027920 f   MSVCRTD:error.obj
 0001:00026c90       __local_stdio_printf_options 0000000140027c90 f i MSVCRTD:error.obj
 0001:00026ca0       ?_RTC_GetErrorFunc@@YAP6AHHPEBDH00ZZPEBX@Z 0000000140027ca0 f   MSVCRTD:userapi.obj
 0001:00026cb0       ?_RTC_GetErrorFuncW@@YAP6AHHPEB_WH00ZZPEBX@Z 0000000140027cb0 f   MSVCRTD:userapi.obj
 0001:00026cc0       __raise_securityfailure    0000000140027cc0 f   MSVCRTD:gs_report.obj
 0001:00026d00       __report_gsfailure         0000000140027d00 f   MSVCRTD:gs_report.obj
 0001:00026f60       __security_init_cookie     0000000140027f60 f   MSVCRTD:gs_support.obj
 0001:00026fe0       _matherr                   0000000140027fe0 f   MSVCRTD:matherr.obj
 0001:00026ff0       _get_startup_argv_mode     0000000140027ff0 f   MSVCRTD:argv_mode.obj
 0001:00027000       _get_startup_commit_mode   0000000140028000 f   MSVCRTD:commit_mode.obj
 0001:00027000       __scrt_exe_initialize_mta  0000000140028000 f   MSVCRTD:utility_desktop.obj
 0001:00027000       _get_startup_new_mode      0000000140028000 f   MSVCRTD:new_mode.obj
 0001:00027000       __scrt_stub_for_initialize_mta 0000000140028000 f   MSVCRTD:utility_desktop.obj
 0001:00027000       _get_startup_thread_locale_mode 0000000140028000 f   MSVCRTD:thread_locale.obj
 0001:00027000       __scrt_initialize_winrt    0000000140028000 f   MSVCRTD:utility_desktop.obj
 0001:00027010       _get_startup_file_mode     0000000140028010 f   MSVCRTD:file_mode.obj
 0001:00027020       ?__scrt_initialize_type_info@@YAXXZ 0000000140028020 f   MSVCRTD:tncleanup.obj
 0001:00027040       _should_initialize_environment 0000000140028040 f   MSVCRTD:env_mode.obj
 0001:00027040       __vcrt_initialize          0000000140028040 f   MSVCRTD:ucrt_stubs.obj
 0001:00027040       __acrt_initialize          0000000140028040 f   MSVCRTD:ucrt_stubs.obj
 0001:00027040       __scrt_stub_for_acrt_initialize 0000000140028040 f   MSVCRTD:ucrt_stubs.obj
 0001:00027050       _initialize_denormal_control 0000000140028050 f   MSVCRTD:denormal_control.obj
 0001:00027050       _initialize_invalid_parameter_handler 0000000140028050 f   MSVCRTD:invalid_parameter_handler.obj
 0001:00027060       __local_stdio_scanf_options 0000000140028060 f i MSVCRTD:default_local_stdio_options.obj
 0001:00027070       __scrt_initialize_default_local_stdio_options 0000000140028070 f   MSVCRTD:default_local_stdio_options.obj
 0001:000270c0       __scrt_is_user_matherr_present 00000001400280c0 f   MSVCRTD:matherr_detection.obj
 0001:000270f0       __scrt_get_dyn_tls_init_callback 00000001400280f0 f   MSVCRTD:dyn_tls_init.obj
 0001:00027100       __scrt_get_dyn_tls_dtor_callback 0000000140028100 f   MSVCRTD:dyn_tls_dtor.obj
 0001:00027110       __crt_debugger_hook        0000000140028110 f   MSVCRTD:utility_desktop.obj
 0001:00027120       __scrt_fastfail            0000000140028120 f   MSVCRTD:utility_desktop.obj
 0001:000272c0       __scrt_initialize_mta      00000001400282c0 f   MSVCRTD:utility_desktop.obj
 0001:000272d0       __scrt_is_managed_app      00000001400282d0 f   MSVCRTD:utility_desktop.obj
 0001:00027380       __scrt_set_unhandled_exception_filter 0000000140028380 f   MSVCRTD:utility_desktop.obj
 0001:000273a0       __scrt_unhandled_exception_filter 00000001400283a0 f   MSVCRTD:utility_desktop.obj
 0001:00027440       _RTC_Initialize            0000000140028440 f   MSVCRTD:initsect.obj
 0001:00027490       _RTC_Terminate             0000000140028490 f   MSVCRTD:initsect.obj
 0001:000274e0       __isa_available_init       00000001400284e0 f   MSVCRTD:cpu_disp.obj
 0001:00027880       __scrt_is_ucrt_dll_in_use  0000000140028880 f   MSVCRTD:ucrt_detection.obj
 0001:00027dc0       ?_RTC_GetSrcLine@@YAHPEAEPEA_WKPEAH1K@Z 0000000140028dc0 f   MSVCRTD:pdblkup.obj
 0001:00028185       __std_exception_copy       0000000140029185 f   vcruntimed:VCRUNTIME140D.dll
 0001:0002818b       __std_exception_destroy    000000014002918b f   vcruntimed:VCRUNTIME140D.dll
 0001:00028191       _CxxThrowException         0000000140029191 f   vcruntimed:VCRUNTIME140D.dll
 0001:00028197       __CxxFrameHandler4         0000000140029197 f   vcruntimed:VCRUNTIME140_1D.dll
 0001:0002819d       memmove                    000000014002919d f   vcruntimed:VCRUNTIME140D.dll
 0001:000281a3       memcmp                     00000001400291a3 f   vcruntimed:VCRUNTIME140D.dll
 0001:000281a9       __C_specific_handler       00000001400291a9 f   vcruntimed:VCRUNTIME140D.dll
 0001:000281af       __current_exception        00000001400291af f   vcruntimed:VCRUNTIME140D.dll
 0001:000281b5       __current_exception_context 00000001400291b5 f   vcruntimed:VCRUNTIME140D.dll
 0001:000281bb       __C_specific_handler_noexcept 00000001400291bb f   vcruntimed:VCRUNTIME140D.dll
 0001:000281c1       __vcrt_GetModuleFileNameW  00000001400291c1 f   vcruntimed:VCRUNTIME140D.dll
 0001:000281c7       __vcrt_GetModuleHandleW    00000001400291c7 f   vcruntimed:VCRUNTIME140D.dll
 0001:000281cd       __vcrt_LoadLibraryExW      00000001400291cd f   vcruntimed:VCRUNTIME140D.dll
 0001:000281d3       _free_dbg                  00000001400291d3 f   ucrtd:ucrtbased.dll
 0001:000281d9       _callnewh                  00000001400291d9 f   ucrtd:ucrtbased.dll
 0001:000281df       malloc                     00000001400291df f   ucrtd:ucrtbased.dll
 0001:000281e5       terminate                  00000001400291e5 f   ucrtd:ucrtbased.dll
 0001:000281eb       _seh_filter_exe            00000001400291eb f   ucrtd:ucrtbased.dll
 0001:000281f1       _set_app_type              00000001400291f1 f   ucrtd:ucrtbased.dll
 0001:000281f7       __setusermatherr           00000001400291f7 f   ucrtd:ucrtbased.dll
 0001:000281fd       _configure_narrow_argv     00000001400291fd f   ucrtd:ucrtbased.dll
 0001:00028203       _initialize_narrow_environment 0000000140029203 f   ucrtd:ucrtbased.dll
 0001:00028209       _get_initial_narrow_environment 0000000140029209 f   ucrtd:ucrtbased.dll
 0001:0002820f       _initterm                  000000014002920f f   ucrtd:ucrtbased.dll
 0001:00028215       _initterm_e                0000000140029215 f   ucrtd:ucrtbased.dll
 0001:0002821b       exit                       000000014002921b f   ucrtd:ucrtbased.dll
 0001:00028221       _exit                      0000000140029221 f   ucrtd:ucrtbased.dll
 0001:00028227       _set_fmode                 0000000140029227 f   ucrtd:ucrtbased.dll
 0001:0002822d       __p___argc                 000000014002922d f   ucrtd:ucrtbased.dll
 0001:00028233       __p___argv                 0000000140029233 f   ucrtd:ucrtbased.dll
 0001:00028239       _cexit                     0000000140029239 f   ucrtd:ucrtbased.dll
 0001:0002823f       _c_exit                    000000014002923f f   ucrtd:ucrtbased.dll
 0001:00028245       _register_thread_local_exe_atexit_callback 0000000140029245 f   ucrtd:ucrtbased.dll
 0001:0002824b       _configthreadlocale        000000014002924b f   ucrtd:ucrtbased.dll
 0001:00028251       _set_new_mode              0000000140029251 f   ucrtd:ucrtbased.dll
 0001:00028257       __p__commode               0000000140029257 f   ucrtd:ucrtbased.dll
 0001:0002825d       _initialize_onexit_table   000000014002925d f   ucrtd:ucrtbased.dll
 0001:00028263       _register_onexit_function  0000000140029263 f   ucrtd:ucrtbased.dll
 0001:00028269       _crt_atexit                0000000140029269 f   ucrtd:ucrtbased.dll
 0001:0002826f       strcpy_s                   000000014002926f f   ucrtd:ucrtbased.dll
 0001:00028275       strcat_s                   0000000140029275 f   ucrtd:ucrtbased.dll
 0001:0002827b       _wmakepath_s               000000014002927b f   ucrtd:ucrtbased.dll
 0001:00028281       _wsplitpath_s              0000000140029281 f   ucrtd:ucrtbased.dll
 0001:00028287       wcscpy_s                   0000000140029287 f   ucrtd:ucrtbased.dll
 0001:0002828d       IsProcessorFeaturePresent  000000014002928d f   kernel32:KERNEL32.dll
 0001:000282a0       __vcrt_uninitialize        00000001400292a0 f   MSVCRTD:ucrt_stubs.obj
 0001:000282a0       __scrt_stub_for_acrt_uninitialize 00000001400292a0 f   MSVCRTD:ucrt_stubs.obj
 0001:000282a0       __acrt_uninitialize        00000001400292a0 f   MSVCRTD:ucrt_stubs.obj
 0001:000282c0       _guard_dispatch_icall_nop  00000001400292c0 f   MSVCRTD:guard_dispatch.obj
 0001:000282e0       _guard_xfg_dispatch_icall_nop 00000001400292e0 f   MSVCRTD:guard_xfg_dispatch.obj
 0002:00000000       __imp_QueryPerformanceCounter 000000014002c000     kernel32:KERNEL32.dll
 0002:00000008       __imp_GetProcAddress       000000014002c008     kernel32:KERNEL32.dll
 0002:00000010       __imp_FreeLibrary          000000014002c010     kernel32:KERNEL32.dll
 0002:00000018       __imp_VirtualQuery         000000014002c018     kernel32:KERNEL32.dll
 0002:00000020       __imp_GetProcessHeap       000000014002c020     kernel32:KERNEL32.dll
 0002:00000028       __imp_HeapFree             000000014002c028     kernel32:KERNEL32.dll
 0002:00000030       __imp_HeapAlloc            000000014002c030     kernel32:KERNEL32.dll
 0002:00000038       __imp_GetLastError         000000014002c038     kernel32:KERNEL32.dll
 0002:00000040       __imp_GetModuleHandleW     000000014002c040     kernel32:KERNEL32.dll
 0002:00000048       __imp_InitializeSListHead  000000014002c048     kernel32:KERNEL32.dll
 0002:00000050       __imp_GetSystemTimeAsFileTime 000000014002c050     kernel32:KERNEL32.dll
 0002:00000058       __imp_GetCurrentProcessId  000000014002c058     kernel32:KERNEL32.dll
 0002:00000060       __imp_GetCurrentThreadId   000000014002c060     kernel32:KERNEL32.dll
 0002:00000068       __imp_IsProcessorFeaturePresent 000000014002c068     kernel32:KERNEL32.dll
 0002:00000070       __imp_TerminateProcess     000000014002c070     kernel32:KERNEL32.dll
 0002:00000078       __imp_GetCurrentProcess    000000014002c078     kernel32:KERNEL32.dll
 0002:00000080       __imp_SetUnhandledExceptionFilter 000000014002c080     kernel32:KERNEL32.dll
 0002:00000088       __imp_UnhandledExceptionFilter 000000014002c088     kernel32:KERNEL32.dll
 0002:00000090       __imp_RtlVirtualUnwind     000000014002c090     kernel32:KERNEL32.dll
 0002:00000098       __imp_RtlLookupFunctionEntry 000000014002c098     kernel32:KERNEL32.dll
 0002:000000a0       __imp_RtlCaptureContext    000000014002c0a0     kernel32:KERNEL32.dll
 0002:000000a8       __imp_WideCharToMultiByte  000000014002c0a8     kernel32:KERNEL32.dll
 0002:000000b0       __imp_MultiByteToWideChar  000000014002c0b0     kernel32:KERNEL32.dll
 0002:000000b8       __imp_RaiseException       000000014002c0b8     kernel32:KERNEL32.dll
 0002:000000c0       __imp_IsDebuggerPresent    000000014002c0c0     kernel32:KERNEL32.dll
 0002:000000c8       \177KERNEL32_NULL_THUNK_DATA 000000014002c0c8     kernel32:KERNEL32.dll
 0002:000000d0       __imp_?id@?$codecvt@DDU_Mbstatet@@@std@@2V0locale@2@A 000000014002c0d0     msvcprtd:MSVCP140D.dll
 0002:000000d8       __imp_?id@?$ctype@D@std@@2V0locale@2@A 000000014002c0d8     msvcprtd:MSVCP140D.dll
 0002:000000e0       __imp_?uflow@?$basic_streambuf@DU?$char_traits@D@std@@@std@@MEAAHXZ 000000014002c0e0     msvcprtd:MSVCP140D.dll
 0002:000000e8       __imp_?sync@?$basic_streambuf@DU?$char_traits@D@std@@@std@@MEAAHXZ 000000014002c0e8     msvcprtd:MSVCP140D.dll
 0002:000000f0       __imp_?showmanyc@?$basic_streambuf@DU?$char_traits@D@std@@@std@@MEAA_JXZ 000000014002c0f0     msvcprtd:MSVCP140D.dll
 0002:000000f8       __imp_?setbuf@?$basic_streambuf@DU?$char_traits@D@std@@@std@@MEAAPEAV12@PEAD_J@Z 000000014002c0f8     msvcprtd:MSVCP140D.dll
 0002:00000100       __imp_?imbue@?$basic_streambuf@DU?$char_traits@D@std@@@std@@MEAAXAEBVlocale@2@@Z 000000014002c100     msvcprtd:MSVCP140D.dll
 0002:00000108       __imp_?_Unlock@?$basic_streambuf@DU?$char_traits@D@std@@@std@@UEAAXXZ 000000014002c108     msvcprtd:MSVCP140D.dll
 0002:00000110       __imp_?_Lock@?$basic_streambuf@DU?$char_traits@D@std@@@std@@UEAAXXZ 000000014002c110     msvcprtd:MSVCP140D.dll
 0002:00000118       __imp_?_Fiopen@std@@YAPEAU_iobuf@@PEBDHH@Z 000000014002c118     msvcprtd:MSVCP140D.dll
 0002:00000120       __imp_??1?$basic_iostream@DU?$char_traits@D@std@@@std@@UEAA@XZ 000000014002c120     msvcprtd:MSVCP140D.dll
 0002:00000128       __imp_??0?$basic_iostream@DU?$char_traits@D@std@@@std@@QEAA@PEAV?$basic_streambuf@DU?$char_traits@D@std@@@1@@Z 000000014002c128     msvcprtd:MSVCP140D.dll
 0002:00000130       __imp_?_Ipfx@?$basic_istream@DU?$char_traits@D@std@@@std@@QEAA_N_N@Z 000000014002c130     msvcprtd:MSVCP140D.dll
 0002:00000138       __imp_??1?$basic_istream@DU?$char_traits@D@std@@@std@@UEAA@XZ 000000014002c138     msvcprtd:MSVCP140D.dll
 0002:00000140       __imp_??0?$basic_istream@DU?$char_traits@D@std@@@std@@QEAA@PEAV?$basic_streambuf@DU?$char_traits@D@std@@@1@_N@Z 000000014002c140     msvcprtd:MSVCP140D.dll
 0002:00000148       __imp_?put@?$basic_ostream@DU?$char_traits@D@std@@@std@@QEAAAEAV12@D@Z 000000014002c148     msvcprtd:MSVCP140D.dll
 0002:00000150       __imp_??6?$basic_ostream@DU?$char_traits@D@std@@@std@@QEAAAEAV01@H@Z 000000014002c150     msvcprtd:MSVCP140D.dll
 0002:00000158       __imp_??6?$basic_ostream@DU?$char_traits@D@std@@@std@@QEAAAEAV01@P6AAEAV01@AEAV01@@Z@Z 000000014002c158     msvcprtd:MSVCP140D.dll
 0002:00000160       __imp_??0?$basic_ios@DU?$char_traits@D@std@@@std@@IEAA@XZ 000000014002c160     msvcprtd:MSVCP140D.dll
 0002:00000168       __imp_?widen@?$basic_ios@DU?$char_traits@D@std@@@std@@QEBADD@Z 000000014002c168     msvcprtd:MSVCP140D.dll
 0002:00000170       __imp_?clear@?$basic_ios@DU?$char_traits@D@std@@@std@@QEAAXH_N@Z 000000014002c170     msvcprtd:MSVCP140D.dll
 0002:00000178       __imp_??1?$basic_ios@DU?$char_traits@D@std@@@std@@UEAA@XZ 000000014002c178     msvcprtd:MSVCP140D.dll
 0002:00000180       __imp_?xsputn@?$basic_streambuf@DU?$char_traits@D@std@@@std@@MEAA_JPEBD_J@Z 000000014002c180     msvcprtd:MSVCP140D.dll
 0002:00000188       __imp_?xsgetn@?$basic_streambuf@DU?$char_traits@D@std@@@std@@MEAA_JPEAD_J@Z 000000014002c188     msvcprtd:MSVCP140D.dll
 0002:00000190       __imp_?_Init@?$basic_streambuf@DU?$char_traits@D@std@@@std@@IEAAXPEAPEAD0PEAH001@Z 000000014002c190     msvcprtd:MSVCP140D.dll
 0002:00000198       __imp_?_Init@?$basic_streambuf@DU?$char_traits@D@std@@@std@@IEAAXXZ 000000014002c198     msvcprtd:MSVCP140D.dll
 0002:000001a0       __imp_?_Pnavail@?$basic_streambuf@DU?$char_traits@D@std@@@std@@IEBA_JXZ 000000014002c1a0     msvcprtd:MSVCP140D.dll
 0002:000001a8       __imp_?_Pninc@?$basic_streambuf@DU?$char_traits@D@std@@@std@@IEAAPEADXZ 000000014002c1a8     msvcprtd:MSVCP140D.dll
 0002:000001b0       __imp_?setp@?$basic_streambuf@DU?$char_traits@D@std@@@std@@IEAAXPEAD00@Z 000000014002c1b0     msvcprtd:MSVCP140D.dll
 0002:000001b8       __imp_?setp@?$basic_streambuf@DU?$char_traits@D@std@@@std@@IEAAXPEAD0@Z 000000014002c1b8     msvcprtd:MSVCP140D.dll
 0002:000001c0       __imp_?pbump@?$basic_streambuf@DU?$char_traits@D@std@@@std@@IEAAXH@Z 000000014002c1c0     msvcprtd:MSVCP140D.dll
 0002:000001c8       __imp_?_Gnavail@?$basic_streambuf@DU?$char_traits@D@std@@@std@@IEBA_JXZ 000000014002c1c8     msvcprtd:MSVCP140D.dll
 0002:000001d0       __imp_?_Gninc@?$basic_streambuf@DU?$char_traits@D@std@@@std@@IEAAPEADXZ 000000014002c1d0     msvcprtd:MSVCP140D.dll
 0002:000001d8       __imp_?_Gndec@?$basic_streambuf@DU?$char_traits@D@std@@@std@@IEAAPEADXZ 000000014002c1d8     msvcprtd:MSVCP140D.dll
 0002:000001e0       __imp_?epptr@?$basic_streambuf@DU?$char_traits@D@std@@@std@@IEBAPEADXZ 000000014002c1e0     msvcprtd:MSVCP140D.dll
 0002:000001e8       __imp_?setg@?$basic_streambuf@DU?$char_traits@D@std@@@std@@IEAAXPEAD00@Z 000000014002c1e8     msvcprtd:MSVCP140D.dll
 0002:000001f0       __imp_?gbump@?$basic_streambuf@DU?$char_traits@D@std@@@std@@IEAAXH@Z 000000014002c1f0     msvcprtd:MSVCP140D.dll
 0002:000001f8       __imp_?egptr@?$basic_streambuf@DU?$char_traits@D@std@@@std@@IEBAPEADXZ 000000014002c1f8     msvcprtd:MSVCP140D.dll
 0002:00000200       __imp_?pptr@?$basic_streambuf@DU?$char_traits@D@std@@@std@@IEBAPEADXZ 000000014002c200     msvcprtd:MSVCP140D.dll
 0002:00000208       __imp_?pbase@?$basic_streambuf@DU?$char_traits@D@std@@@std@@IEBAPEADXZ 000000014002c208     msvcprtd:MSVCP140D.dll
 0002:00000210       __imp_?gptr@?$basic_streambuf@DU?$char_traits@D@std@@@std@@IEBAPEADXZ 000000014002c210     msvcprtd:MSVCP140D.dll
 0002:00000218       __imp_?eback@?$basic_streambuf@DU?$char_traits@D@std@@@std@@IEBAPEADXZ 000000014002c218     msvcprtd:MSVCP140D.dll
 0002:00000220       __imp_?snextc@?$basic_streambuf@DU?$char_traits@D@std@@@std@@QEAAHXZ 000000014002c220     msvcprtd:MSVCP140D.dll
 0002:00000228       __imp_?sgetc@?$basic_streambuf@DU?$char_traits@D@std@@@std@@QEAAHXZ 000000014002c228     msvcprtd:MSVCP140D.dll
 0002:00000230       __imp_?getloc@?$basic_streambuf@DU?$char_traits@D@std@@@std@@QEBA?AVlocale@2@XZ 000000014002c230     msvcprtd:MSVCP140D.dll
 0002:00000238       __imp_??1?$basic_streambuf@DU?$char_traits@D@std@@@std@@UEAA@XZ 000000014002c238     msvcprtd:MSVCP140D.dll
 0002:00000240       __imp_??0?$basic_streambuf@DU?$char_traits@D@std@@@std@@IEAA@XZ 000000014002c240     msvcprtd:MSVCP140D.dll
 0002:00000248       __imp_?getloc@ios_base@std@@QEBA?AVlocale@2@XZ 000000014002c248     msvcprtd:MSVCP140D.dll
 0002:00000250       __imp_??Bios_base@std@@QEBA_NXZ 000000014002c250     msvcprtd:MSVCP140D.dll
 0002:00000258       __imp_?_Getcat@?$codecvt@DDU_Mbstatet@@@std@@SA_KPEAPEBVfacet@locale@2@PEBV42@@Z 000000014002c258     msvcprtd:MSVCP140D.dll
 0002:00000260       __imp_?unshift@?$codecvt@DDU_Mbstatet@@@std@@QEBAHAEAU_Mbstatet@@PEAD1AEAPEAD@Z 000000014002c260     msvcprtd:MSVCP140D.dll
 0002:00000268       __imp_?out@?$codecvt@DDU_Mbstatet@@@std@@QEBAHAEAU_Mbstatet@@PEBD1AEAPEBDPEAD3AEAPEAD@Z 000000014002c268     msvcprtd:MSVCP140D.dll
 0002:00000270       __imp_?in@?$codecvt@DDU_Mbstatet@@@std@@QEBAHAEAU_Mbstatet@@PEBD1AEAPEBDPEAD3AEAPEAD@Z 000000014002c270     msvcprtd:MSVCP140D.dll
 0002:00000278       __imp_?_Getcat@?$ctype@D@std@@SA_KPEAPEBVfacet@locale@2@PEBV42@@Z 000000014002c278     msvcprtd:MSVCP140D.dll
 0002:00000280       __imp_?is@?$ctype@D@std@@QEBA_NFD@Z 000000014002c280     msvcprtd:MSVCP140D.dll
 0002:00000288       __imp_?always_noconv@codecvt_base@std@@QEBA_NXZ 000000014002c288     msvcprtd:MSVCP140D.dll
 0002:00000290       __imp_?_Getgloballocale@locale@std@@CAPEAV_Locimp@12@XZ 000000014002c290     msvcprtd:MSVCP140D.dll
 0002:00000298       __imp_??0_Lockit@std@@QEAA@H@Z 000000014002c298     msvcprtd:MSVCP140D.dll
 0002:000002a0       __imp_??1_Lockit@std@@QEAA@XZ 000000014002c2a0     msvcprtd:MSVCP140D.dll
 0002:000002a8       __imp_?_Xbad_alloc@std@@YAXXZ 000000014002c2a8     msvcprtd:MSVCP140D.dll
 0002:000002b0       __imp_?_Xlength_error@std@@YAXPEBD@Z 000000014002c2b0     msvcprtd:MSVCP140D.dll
 0002:000002b8       __imp_?uncaught_exception@std@@YA_NXZ 000000014002c2b8     msvcprtd:MSVCP140D.dll
 0002:000002c0       __imp_?good@ios_base@std@@QEBA_NXZ 000000014002c2c0     msvcprtd:MSVCP140D.dll
 0002:000002c8       __imp_?flags@ios_base@std@@QEBAHXZ 000000014002c2c8     msvcprtd:MSVCP140D.dll
 0002:000002d0       __imp_?width@ios_base@std@@QEBA_JXZ 000000014002c2d0     msvcprtd:MSVCP140D.dll
 0002:000002d8       __imp_?width@ios_base@std@@QEAA_J_J@Z 000000014002c2d8     msvcprtd:MSVCP140D.dll
 0002:000002e0       __imp_?sputc@?$basic_streambuf@DU?$char_traits@D@std@@@std@@QEAAHD@Z 000000014002c2e0     msvcprtd:MSVCP140D.dll
 0002:000002e8       __imp_?sputn@?$basic_streambuf@DU?$char_traits@D@std@@@std@@QEAA_JPEBD_J@Z 000000014002c2e8     msvcprtd:MSVCP140D.dll
 0002:000002f0       __imp_?setstate@?$basic_ios@DU?$char_traits@D@std@@@std@@QEAAXH_N@Z 000000014002c2f0     msvcprtd:MSVCP140D.dll
 0002:000002f8       __imp_?tie@?$basic_ios@DU?$char_traits@D@std@@@std@@QEBAPEAV?$basic_ostream@DU?$char_traits@D@std@@@2@XZ 000000014002c2f8     msvcprtd:MSVCP140D.dll
 0002:00000300       __imp_?rdbuf@?$basic_ios@DU?$char_traits@D@std@@@std@@QEBAPEAV?$basic_streambuf@DU?$char_traits@D@std@@@2@XZ 000000014002c300     msvcprtd:MSVCP140D.dll
 0002:00000308       __imp_?fill@?$basic_ios@DU?$char_traits@D@std@@@std@@QEBADXZ 000000014002c308     msvcprtd:MSVCP140D.dll
 0002:00000310       __imp_?_Osfx@?$basic_ostream@DU?$char_traits@D@std@@@std@@QEAAXXZ 000000014002c310     msvcprtd:MSVCP140D.dll
 0002:00000318       __imp_?flush@?$basic_ostream@DU?$char_traits@D@std@@@std@@QEAAAEAV12@XZ 000000014002c318     msvcprtd:MSVCP140D.dll
 0002:00000320       __imp_?cout@std@@3V?$basic_ostream@DU?$char_traits@D@std@@@1@A 000000014002c320     msvcprtd:MSVCP140D.dll
 0002:00000328       __imp_?_Xinvalid_argument@std@@YAXPEBD@Z 000000014002c328     msvcprtd:MSVCP140D.dll
 0002:00000330       __imp_?_Xout_of_range@std@@YAXPEBD@Z 000000014002c330     msvcprtd:MSVCP140D.dll
 0002:00000338       __imp_??Bid@locale@std@@QEAA_KXZ 000000014002c338     msvcprtd:MSVCP140D.dll
 0002:00000340       __imp_?_Init@locale@std@@CAPEAV_Locimp@12@_N@Z 000000014002c340     msvcprtd:MSVCP140D.dll
 0002:00000348       \177MSVCP140D_NULL_THUNK_DATA 000000014002c348     msvcprtd:MSVCP140D.dll
 0002:00000350       __imp___std_exception_copy 000000014002c350     vcruntimed:VCRUNTIME140D.dll
 0002:00000358       __imp___std_exception_destroy 000000014002c358     vcruntimed:VCRUNTIME140D.dll
 0002:00000360       __imp__CxxThrowException   000000014002c360     vcruntimed:VCRUNTIME140D.dll
 0002:00000368       __imp_memmove              000000014002c368     vcruntimed:VCRUNTIME140D.dll
 0002:00000370       __imp_memcmp               000000014002c370     vcruntimed:VCRUNTIME140D.dll
 0002:00000378       __imp___C_specific_handler 000000014002c378     vcruntimed:VCRUNTIME140D.dll
 0002:00000380       __imp___current_exception  000000014002c380     vcruntimed:VCRUNTIME140D.dll
 0002:00000388       __imp___current_exception_context 000000014002c388     vcruntimed:VCRUNTIME140D.dll
 0002:00000390       __imp___C_specific_handler_noexcept 000000014002c390     vcruntimed:VCRUNTIME140D.dll
 0002:00000398       __imp___vcrt_GetModuleFileNameW 000000014002c398     vcruntimed:VCRUNTIME140D.dll
 0002:000003a0       __imp___vcrt_GetModuleHandleW 000000014002c3a0     vcruntimed:VCRUNTIME140D.dll
 0002:000003a8       __imp___vcrt_LoadLibraryExW 000000014002c3a8     vcruntimed:VCRUNTIME140D.dll
 0002:000003b0       \177VCRUNTIME140D_NULL_THUNK_DATA 000000014002c3b0     vcruntimed:VCRUNTIME140D.dll
 0002:000003b8       __imp___CxxFrameHandler4   000000014002c3b8     vcruntimed:VCRUNTIME140_1D.dll
 0002:000003c0       \177VCRUNTIME140_1D_NULL_THUNK_DATA 000000014002c3c0     vcruntimed:VCRUNTIME140_1D.dll
 0002:000003c8       __imp_??0Music@sf@@QEAA@XZ 000000014002c3c8     sfml-audio:sfml-audio-2.dll
 0002:000003d0       __imp_??1Music@sf@@UEAA@XZ 000000014002c3d0     sfml-audio:sfml-audio-2.dll
 0002:000003d8       __imp_?openFromFile@Music@sf@@QEAA_NAEBV?$basic_string@DU?$char_traits@D@std@@V?$allocator@D@2@@std@@@Z 000000014002c3d8     sfml-audio:sfml-audio-2.dll
 0002:000003e0       __imp_??0Sound@sf@@QEAA@XZ 000000014002c3e0     sfml-audio:sfml-audio-2.dll
 0002:000003e8       __imp_?setLoop@SoundStream@sf@@QEAAX_N@Z 000000014002c3e8     sfml-audio:sfml-audio-2.dll
 0002:000003f0       __imp_?setBuffer@Sound@sf@@QEAAXAEBVSoundBuffer@2@@Z 000000014002c3f0     sfml-audio:sfml-audio-2.dll
 0002:000003f8       __imp_?setVolume@SoundSource@sf@@QEAAXM@Z 000000014002c3f8     sfml-audio:sfml-audio-2.dll
 0002:00000400       __imp_??0SoundBuffer@sf@@QEAA@XZ 000000014002c400     sfml-audio:sfml-audio-2.dll
 0002:00000408       __imp_??1SoundBuffer@sf@@QEAA@XZ 000000014002c408     sfml-audio:sfml-audio-2.dll
 0002:00000410       __imp_?loadFromFile@SoundBuffer@sf@@QEAA_NAEBV?$basic_string@DU?$char_traits@D@std@@V?$allocator@D@2@@std@@@Z 000000014002c410     sfml-audio:sfml-audio-2.dll
 0002:00000418       __imp_??1Sound@sf@@UEAA@XZ 000000014002c418     sfml-audio:sfml-audio-2.dll
 0002:00000420       \177sfml-audio-2_NULL_THUNK_DATA 000000014002c420     sfml-audio:sfml-audio-2.dll
 0002:00000428       __imp_?onCreate@RenderWindow@sf@@MEAAXXZ 000000014002c428     sfml-graphics:sfml-graphics-2.dll
 0002:00000430       __imp_?getSize@RenderWindow@sf@@UEBA?AV?$Vector2@I@2@XZ 000000014002c430     sfml-graphics:sfml-graphics-2.dll
 0002:00000438       __imp_??1Text@sf@@UEAA@XZ  000000014002c438     sfml-graphics:sfml-graphics-2.dll
 0002:00000440       __imp_?setFillColor@Text@sf@@QEAAXAEBVColor@2@@Z 000000014002c440     sfml-graphics:sfml-graphics-2.dll
 0002:00000448       __imp_?setStyle@Text@sf@@QEAAXI@Z 000000014002c448     sfml-graphics:sfml-graphics-2.dll
 0002:00000450       __imp_?setCharacterSize@Text@sf@@QEAAXI@Z 000000014002c450     sfml-graphics:sfml-graphics-2.dll
 0002:00000458       __imp_?setFont@Text@sf@@QEAAXAEBVFont@2@@Z 000000014002c458     sfml-graphics:sfml-graphics-2.dll
 0002:00000460       __imp_?setString@Text@sf@@QEAAXAEBVString@2@@Z 000000014002c460     sfml-graphics:sfml-graphics-2.dll
 0002:00000468       __imp_??0Text@sf@@QEAA@XZ  000000014002c468     sfml-graphics:sfml-graphics-2.dll
 0002:00000470       __imp_?onResize@RenderWindow@sf@@MEAAXXZ 000000014002c470     sfml-graphics:sfml-graphics-2.dll
 0002:00000478       __imp_??0RenderWindow@sf@@QEAA@VVideoMode@1@AEBVString@1@IAEBUContextSettings@1@@Z 000000014002c478     sfml-graphics:sfml-graphics-2.dll
 0002:00000480       __imp_?clear@RenderTarget@sf@@QEAAXAEBVColor@2@@Z 000000014002c480     sfml-graphics:sfml-graphics-2.dll
 0002:00000488       __imp_??4RectangleShape@sf@@QEAAAEAV01@AEBV01@@Z 000000014002c488     sfml-graphics:sfml-graphics-2.dll
 0002:00000490       __imp_??1RectangleShape@sf@@UEAA@XZ 000000014002c490     sfml-graphics:sfml-graphics-2.dll
 0002:00000498       __imp_?getSize@RectangleShape@sf@@QEBAAEBV?$Vector2@M@2@XZ 000000014002c498     sfml-graphics:sfml-graphics-2.dll
 0002:000004a0       __imp_?setSize@RectangleShape@sf@@QEAAXAEBV?$Vector2@M@2@@Z 000000014002c4a0     sfml-graphics:sfml-graphics-2.dll
 0002:000004a8       __imp_??0RectangleShape@sf@@QEAA@AEBV?$Vector2@M@1@@Z 000000014002c4a8     sfml-graphics:sfml-graphics-2.dll
 0002:000004b0       __imp_?loadFromFile@Font@sf@@QEAA_NAEBV?$basic_string@DU?$char_traits@D@std@@V?$allocator@D@2@@std@@@Z 000000014002c4b0     sfml-graphics:sfml-graphics-2.dll
 0002:000004b8       __imp_??1Font@sf@@QEAA@XZ  000000014002c4b8     sfml-graphics:sfml-graphics-2.dll
 0002:000004c0       __imp_??0Font@sf@@QEAA@XZ  000000014002c4c0     sfml-graphics:sfml-graphics-2.dll
 0002:000004c8       __imp_?getPixelsPtr@Image@sf@@QEBAPEBEXZ 000000014002c4c8     sfml-graphics:sfml-graphics-2.dll
 0002:000004d0       __imp_?getSize@Image@sf@@QEBA?AV?$Vector2@I@2@XZ 000000014002c4d0     sfml-graphics:sfml-graphics-2.dll
 0002:000004d8       __imp_?loadFromFile@Image@sf@@QEAA_NAEBV?$basic_string@DU?$char_traits@D@std@@V?$allocator@D@2@@std@@@Z 000000014002c4d8     sfml-graphics:sfml-graphics-2.dll
 0002:000004e0       __imp_??1Image@sf@@QEAA@XZ 000000014002c4e0     sfml-graphics:sfml-graphics-2.dll
 0002:000004e8       __imp_??0Image@sf@@QEAA@XZ 000000014002c4e8     sfml-graphics:sfml-graphics-2.dll
 0002:000004f0       __imp_?setOutlineThickness@Shape@sf@@QEAAXM@Z 000000014002c4f0     sfml-graphics:sfml-graphics-2.dll
 0002:000004f8       __imp_?setOutlineColor@Shape@sf@@QEAAXAEBVColor@2@@Z 000000014002c4f8     sfml-graphics:sfml-graphics-2.dll
 0002:00000500       __imp_?setFillColor@Shape@sf@@QEAAXAEBVColor@2@@Z 000000014002c500     sfml-graphics:sfml-graphics-2.dll
 0002:00000508       __imp_?setTexture@Shape@sf@@QEAAXPEBVTexture@2@_N@Z 000000014002c508     sfml-graphics:sfml-graphics-2.dll
 0002:00000510       __imp_??0Color@sf@@QEAA@EEEE@Z 000000014002c510     sfml-graphics:sfml-graphics-2.dll
 0002:00000518       __imp_?setActive@RenderWindow@sf@@UEAA_N_N@Z 000000014002c518     sfml-graphics:sfml-graphics-2.dll
 0002:00000520       __imp_?Black@Color@sf@@2V12@B 000000014002c520     sfml-graphics:sfml-graphics-2.dll
 0002:00000528       __imp_?Red@Color@sf@@2V12@B 000000014002c528     sfml-graphics:sfml-graphics-2.dll
 0002:00000530       __imp_?Yellow@Color@sf@@2V12@B 000000014002c530     sfml-graphics:sfml-graphics-2.dll
 0002:00000538       __imp_?setScale@Transformable@sf@@QEAAXMM@Z 000000014002c538     sfml-graphics:sfml-graphics-2.dll
 0002:00000540       __imp_??0Sprite@sf@@QEAA@XZ 000000014002c540     sfml-graphics:sfml-graphics-2.dll
 0002:00000548       __imp_?scale@Transformable@sf@@QEAAXMM@Z 000000014002c548     sfml-graphics:sfml-graphics-2.dll
 0002:00000550       __imp_?move@Transformable@sf@@QEAAXMM@Z 000000014002c550     sfml-graphics:sfml-graphics-2.dll
 0002:00000558       __imp_?setPosition@Transformable@sf@@QEAAXMM@Z 000000014002c558     sfml-graphics:sfml-graphics-2.dll
 0002:00000560       __imp_?setTexture@Sprite@sf@@QEAAXAEBVTexture@2@_N@Z 000000014002c560     sfml-graphics:sfml-graphics-2.dll
 0002:00000568       __imp_?setTextureRect@Sprite@sf@@QEAAXAEBV?$Rect@H@2@@Z 000000014002c568     sfml-graphics:sfml-graphics-2.dll
 0002:00000570       __imp_?getGlobalBounds@Sprite@sf@@QEBA?AV?$Rect@M@2@XZ 000000014002c570     sfml-graphics:sfml-graphics-2.dll
 0002:00000578       __imp_??1Sprite@sf@@UEAA@XZ 000000014002c578     sfml-graphics:sfml-graphics-2.dll
 0002:00000580       __imp_?Default@RenderStates@sf@@2V12@B 000000014002c580     sfml-graphics:sfml-graphics-2.dll
 0002:00000588       __imp_?move@Transformable@sf@@QEAAXAEBV?$Vector2@M@2@@Z 000000014002c588     sfml-graphics:sfml-graphics-2.dll
 0002:00000590       __imp_?setPosition@Transformable@sf@@QEAAXAEBV?$Vector2@M@2@@Z 000000014002c590     sfml-graphics:sfml-graphics-2.dll
 0002:00000598       __imp_??1RenderWindow@sf@@UEAA@XZ 000000014002c598     sfml-graphics:sfml-graphics-2.dll
 0002:000005a0       __imp_??0CircleShape@sf@@QEAA@M_K@Z 000000014002c5a0     sfml-graphics:sfml-graphics-2.dll
 0002:000005a8       __imp_??1CircleShape@sf@@UEAA@XZ 000000014002c5a8     sfml-graphics:sfml-graphics-2.dll
 0002:000005b0       __imp_??0Texture@sf@@QEAA@XZ 000000014002c5b0     sfml-graphics:sfml-graphics-2.dll
 0002:000005b8       __imp_??1Texture@sf@@QEAA@XZ 000000014002c5b8     sfml-graphics:sfml-graphics-2.dll
 0002:000005c0       __imp_?loadFromFile@Texture@sf@@QEAA_NAEBV?$basic_string@DU?$char_traits@D@std@@V?$allocator@D@2@@std@@AEBV?$Rect@H@2@@Z 000000014002c5c0     sfml-graphics:sfml-graphics-2.dll
 0002:000005c8       __imp_?draw@RenderTarget@sf@@QEAAXAEBVDrawable@2@AEBVRenderStates@2@@Z 000000014002c5c8     sfml-graphics:sfml-graphics-2.dll
 0002:000005d0       __imp_?getPosition@Transformable@sf@@QEBAAEBV?$Vector2@M@2@XZ 000000014002c5d0     sfml-graphics:sfml-graphics-2.dll
 0002:000005d8       \177sfml-graphics-2_NULL_THUNK_DATA 000000014002c5d8     sfml-graphics:sfml-graphics-2.dll
 0002:000005e0       __imp_??1String@sf@@QEAA@XZ 000000014002c5e0     sfml-system:sfml-system-2.dll
 0002:000005e8       __imp_??0String@sf@@QEAA@AEBV?$basic_string@DU?$char_traits@D@std@@V?$allocator@D@2@@std@@AEBVlocale@3@@Z 000000014002c5e8     sfml-system:sfml-system-2.dll
 0002:000005f0       __imp_??0String@sf@@QEAA@PEBDAEBVlocale@std@@@Z 000000014002c5f0     sfml-system:sfml-system-2.dll
 0002:000005f8       __imp_?seconds@sf@@YA?AVTime@1@M@Z 000000014002c5f8     sfml-system:sfml-system-2.dll
 0002:00000600       __imp_?restart@Clock@sf@@QEAA?AVTime@2@XZ 000000014002c600     sfml-system:sfml-system-2.dll
 0002:00000608       __imp_?getElapsedTime@Clock@sf@@QEBA?AVTime@2@XZ 000000014002c608     sfml-system:sfml-system-2.dll
 0002:00000610       __imp_??0Clock@sf@@QEAA@XZ 000000014002c610     sfml-system:sfml-system-2.dll
 0002:00000618       __imp_?asSeconds@Time@sf@@QEBAMXZ 000000014002c618     sfml-system:sfml-system-2.dll
 0002:00000620       \177sfml-system-2_NULL_THUNK_DATA 000000014002c620     sfml-system:sfml-system-2.dll
 0002:00000628       __imp_?setIcon@Window@sf@@QEAAXIIPEBE@Z 000000014002c628     sfml-window:sfml-window-2.dll
 0002:00000630       __imp_?pollEvent@Window@sf@@QEAA_NAEAVEvent@2@@Z 000000014002c630     sfml-window:sfml-window-2.dll
 0002:00000638       __imp_?isOpen@Window@sf@@QEBA_NXZ 000000014002c638     sfml-window:sfml-window-2.dll
 0002:00000640       __imp_?setVerticalSyncEnabled@Window@sf@@QEAAX_N@Z 000000014002c640     sfml-window:sfml-window-2.dll
 0002:00000648       __imp_?display@Window@sf@@QEAAXXZ 000000014002c648     sfml-window:sfml-window-2.dll
 0002:00000650       __imp_?close@Window@sf@@QEAAXXZ 000000014002c650     sfml-window:sfml-window-2.dll
 0002:00000658       __imp_??0VideoMode@sf@@QEAA@III@Z 000000014002c658     sfml-window:sfml-window-2.dll
 0002:00000660       __imp_?isKeyPressed@Keyboard@sf@@SA_NW4Key@12@@Z 000000014002c660     sfml-window:sfml-window-2.dll
 0002:00000668       __imp_?setFramerateLimit@Window@sf@@QEAAXI@Z 000000014002c668     sfml-window:sfml-window-2.dll
 0002:00000670       \177sfml-window-2_NULL_THUNK_DATA 000000014002c670     sfml-window:sfml-window-2.dll
 0002:00000678       __imp_terminate            000000014002c678     ucrtd:ucrtbased.dll
 0002:00000680       __imp__seh_filter_exe      000000014002c680     ucrtd:ucrtbased.dll
 0002:00000688       __imp__set_app_type        000000014002c688     ucrtd:ucrtbased.dll
 0002:00000690       __imp___setusermatherr     000000014002c690     ucrtd:ucrtbased.dll
 0002:00000698       __imp__configure_narrow_argv 000000014002c698     ucrtd:ucrtbased.dll
 0002:000006a0       __imp__initialize_narrow_environment 000000014002c6a0     ucrtd:ucrtbased.dll
 0002:000006a8       __imp__get_initial_narrow_environment 000000014002c6a8     ucrtd:ucrtbased.dll
 0002:000006b0       __imp__initterm            000000014002c6b0     ucrtd:ucrtbased.dll
 0002:000006b8       __imp__initterm_e          000000014002c6b8     ucrtd:ucrtbased.dll
 0002:000006c0       __imp_exit                 000000014002c6c0     ucrtd:ucrtbased.dll
 0002:000006c8       __imp__exit                000000014002c6c8     ucrtd:ucrtbased.dll
 0002:000006d0       __imp__set_fmode           000000014002c6d0     ucrtd:ucrtbased.dll
 0002:000006d8       __imp___p___argc           000000014002c6d8     ucrtd:ucrtbased.dll
 0002:000006e0       __imp___p___argv           000000014002c6e0     ucrtd:ucrtbased.dll
 0002:000006e8       __imp__cexit               000000014002c6e8     ucrtd:ucrtbased.dll
 0002:000006f0       __imp__c_exit              000000014002c6f0     ucrtd:ucrtbased.dll
 0002:000006f8       __imp__register_thread_local_exe_atexit_callback 000000014002c6f8     ucrtd:ucrtbased.dll
 0002:00000700       __imp__configthreadlocale  000000014002c700     ucrtd:ucrtbased.dll
 0002:00000708       __imp__set_new_mode        000000014002c708     ucrtd:ucrtbased.dll
 0002:00000710       __imp___p__commode         000000014002c710     ucrtd:ucrtbased.dll
 0002:00000718       __imp__initialize_onexit_table 000000014002c718     ucrtd:ucrtbased.dll
 0002:00000720       __imp__register_onexit_function 000000014002c720     ucrtd:ucrtbased.dll
 0002:00000728       __imp_malloc               000000014002c728     ucrtd:ucrtbased.dll
 0002:00000730       __imp__crt_atexit          000000014002c730     ucrtd:ucrtbased.dll
 0002:00000738       __imp_strcpy_s             000000014002c738     ucrtd:ucrtbased.dll
 0002:00000740       __imp_strcat_s             000000014002c740     ucrtd:ucrtbased.dll
 0002:00000748       __imp__wmakepath_s         000000014002c748     ucrtd:ucrtbased.dll
 0002:00000750       __imp__wsplitpath_s        000000014002c750     ucrtd:ucrtbased.dll
 0002:00000758       __imp_wcscpy_s             000000014002c758     ucrtd:ucrtbased.dll
 0002:00000760       __imp_fwrite               000000014002c760     ucrtd:ucrtbased.dll
 0002:00000768       __imp__fseeki64            000000014002c768     ucrtd:ucrtbased.dll
 0002:00000770       __imp_fsetpos              000000014002c770     ucrtd:ucrtbased.dll
 0002:00000778       __imp_fread                000000014002c778     ucrtd:ucrtbased.dll
 0002:00000780       __imp_fputc                000000014002c780     ucrtd:ucrtbased.dll
 0002:00000788       __imp_fgetpos              000000014002c788     ucrtd:ucrtbased.dll
 0002:00000790       __imp_fgetc                000000014002c790     ucrtd:ucrtbased.dll
 0002:00000798       __imp_fflush               000000014002c798     ucrtd:ucrtbased.dll
 0002:000007a0       __imp_fclose               000000014002c7a0     ucrtd:ucrtbased.dll
 0002:000007a8       __imp__get_stream_buffer_pointers 000000014002c7a8     ucrtd:ucrtbased.dll
 0002:000007b0       __imp__errno               000000014002c7b0     ucrtd:ucrtbased.dll
 0002:000007b8       __imp_rand                 000000014002c7b8     ucrtd:ucrtbased.dll
 0002:000007c0       __imp__CrtDbgReport        000000014002c7c0     ucrtd:ucrtbased.dll
 0002:000007c8       __imp__invalid_parameter   000000014002c7c8     ucrtd:ucrtbased.dll
 0002:000007d0       __imp__callnewh            000000014002c7d0     ucrtd:ucrtbased.dll
 0002:000007d8       __imp__malloc_dbg          000000014002c7d8     ucrtd:ucrtbased.dll
 0002:000007e0       __imp__free_dbg            000000014002c7e0     ucrtd:ucrtbased.dll
 0002:000007e8       __imp__time64              000000014002c7e8     ucrtd:ucrtbased.dll
 0002:000007f0       __imp_srand                000000014002c7f0     ucrtd:ucrtbased.dll
 0002:000007f8       __imp__unlock_file         000000014002c7f8     ucrtd:ucrtbased.dll
 0002:00000800       __imp__lock_file           000000014002c800     ucrtd:ucrtbased.dll
 0002:00000808       __imp_ungetc               000000014002c808     ucrtd:ucrtbased.dll
 0002:00000810       __imp_setvbuf              000000014002c810     ucrtd:ucrtbased.dll
 0002:00000818       __imp_strtol               000000014002c818     ucrtd:ucrtbased.dll
 0002:00000820       \177ucrtbased_NULL_THUNK_DATA 000000014002c820     ucrtd:ucrtbased.dll
 0002:00000828       __guard_check_icall_fptr   000000014002c828     MSVCRTD:guard_support.obj
 0002:00000830       __guard_xfg_check_icall_fptr 000000014002c830     MSVCRTD:guard_support.obj
 0002:00000838       __guard_dispatch_icall_fptr 000000014002c838     MSVCRTD:guard_support.obj
 0002:00000840       __guard_xfg_dispatch_icall_fptr 000000014002c840     MSVCRTD:guard_support.obj
 0002:00000848       __guard_xfg_table_dispatch_icall_fptr 000000014002c848     MSVCRTD:guard_support.obj
 0002:00000850       __xc_a                     000000014002c850     MSVCRTD:initializers.obj
 0002:00000868       __xc_z                     000000014002c868     MSVCRTD:initializers.obj
 0002:00000870       __xi_a                     000000014002c870     MSVCRTD:initializers.obj
 0002:00000888       __xi_z                     000000014002c888     MSVCRTD:initializers.obj
 0002:00000890       __xp_a                     000000014002c890     MSVCRTD:initializers.obj
 0002:00000898       __xp_z                     000000014002c898     MSVCRTD:initializers.obj
 0002:000008a0       __xt_a                     000000014002c8a0     MSVCRTD:initializers.obj
 0002:000008a8       __xt_z                     000000014002c8a8     MSVCRTD:initializers.obj
 0002:00000e28       ??_7exception@std@@6B@     000000014002ce28     BlueEnemy.obj
 0002:00000e38       ??_C@_0BC@EOODALEL@Unknown?5exception@ 000000014002ce38     BlueEnemy.obj
 0002:00000e58       ??_7bad_alloc@std@@6B@     000000014002ce58     BlueEnemy.obj
 0002:00000e70       ??_7bad_array_new_length@std@@6B@ 000000014002ce70     BlueEnemy.obj
 0002:00000e80       ??_C@_0BF@KINCDENJ@bad?5array?5new?5length@ 000000014002ce80     BlueEnemy.obj
 0002:00000e98       ??_C@_0BB@FCMFBGOM@invalid?5argument@ 000000014002ce98     BlueEnemy.obj
 0002:00000eac       ??_C@_02DKCKIIND@?$CFs@    000000014002ceac     BlueEnemy.obj
 0002:00000eb0       ??_C@_0GI@CLKHGMEI@C?3?2Program?5Files?5?$CIx86?$CJ?2Microsof@ 000000014002ceb0     BlueEnemy.obj
 0002:00000f20       ??_C@_1NA@PDNNFCLD@?$AAC?$AA?3?$AA?2?$AAP?$AAr?$AAo?$AAg?$AAr?$AAa?$AAm?$AA?5?$AAF?$AAi?$AAl?$AAe@ 000000014002cf20     BlueEnemy.obj
 0002:00000ff0       ??_C@_1EK@NIFDJFDG@?$AAs?$AAt?$AAd?$AA?3?$AA?3?$AA_?$AAA?$AAd?$AAj?$AAu?$AAs?$AAt?$AA_?$AAm?$AAa@ 000000014002cff0     BlueEnemy.obj
 0002:00001040       ??_C@_1CG@JNLFBNGN@?$AA?$CC?$AAi?$AAn?$AAv?$AAa?$AAl?$AAi?$AAd?$AA?5?$AAa?$AAr?$AAg?$AAu?$AAm?$AAe@ 000000014002d040     BlueEnemy.obj
 0002:00001068       ??_C@_0BA@JFNIOLAK@string?5too?5long@ 000000014002d068     BlueEnemy.obj
 0002:00001080       ??_7BlueEnemy@@6B@         000000014002d080     BlueEnemy.obj
 0002:00001088       __real@3dcccccd            000000014002d088     BlueEnemy.obj
 0002:0000108c       __real@3f99999a            000000014002d08c     BlueEnemy.obj
 0002:00001090       __real@40c00000            000000014002d090     BlueEnemy.obj
 0002:00001094       __real@41700000            000000014002d094     BlueEnemy.obj
 0002:00001098       __real@42fe0000            000000014002d098     BlueEnemy.obj
 0002:0000109c       __real@448ee000            000000014002d09c     BlueEnemy.obj
 0002:000010a0       __xmm@80000000800000008000000080000000 000000014002d0a0     BlueEnemy.obj
 0002:000012f0       ??_7Bullet@@6B@            000000014002d2f0     Bullet.obj
 0002:00001588       ??_7Enemies@@6B@           000000014002d588     Enemies.obj
 0002:00001590       __real@3f000000            000000014002d590     Enemies.obj
 0002:00001594       __real@41000000            000000014002d594     Enemies.obj
 0002:00004b50       ??_C@_0BJ@LFDBABJJ@ITERATOR?5LIST?5CORRUPTED?$CB@ 0000000140030b50     Game.obj
 0002:00004b70       ??_C@_1EE@KLDMFDFL@?$AAs?$AAt?$AAd?$AA?3?$AA?3?$AA_?$AAI?$AAt?$AAe?$AAr?$AAa?$AAt?$AAo?$AAr?$AA_@ 0000000140030b70     Game.obj
 0002:00004bb8       ??_C@_1DG@PLBPCAEM@?$AA?$CC?$AAI?$AAT?$AAE?$AAR?$AAA?$AAT?$AAO?$AAR?$AA?5?$AAL?$AAI?$AAS?$AAT?$AA?5@ 0000000140030bb8     Game.obj
 0002:00004bf8       ??_7bad_cast@std@@6B@      0000000140030bf8     Game.obj
 0002:00004c08       ??_C@_08EPJLHIJG@bad?5cast@ 0000000140030c08     Game.obj
 0002:00004c18       ??_C@_0BG@HGEDEDEC@invalid?5stoi?5argument@ 0000000140030c18     Game.obj
 0002:00004c30       ??_C@_0BL@MFFNMGGC@stoi?5argument?5out?5of?5range@ 0000000140030c30     Game.obj
 0002:00004c50       ??_C@_0BB@GCADKGJO@map?1set?5too?5long@ 0000000140030c50     Game.obj
 0002:00004c70       ??_SRenderWindow@sf@@6BWindow@1@@ 0000000140030c70     Game.obj
 0002:00004c90       ??_SRenderWindow@sf@@6BRenderTarget@1@@ 0000000140030c90     Game.obj
 0002:00004cb0       ??_7Game@@6B@              0000000140030cb0     Game.obj
 0002:00004cc0       ??_7?$basic_filebuf@DU?$char_traits@D@std@@@std@@6B@ 0000000140030cc0     Game.obj
 0002:00004d40       ??_7?$basic_fstream@DU?$char_traits@D@std@@@std@@6B@ 0000000140030d40     Game.obj
 0002:00004d48       ??_8?$basic_fstream@DU?$char_traits@D@std@@@std@@7B?$basic_istream@DU?$char_traits@D@std@@@1@@ 0000000140030d48     Game.obj
 0002:00004d50       ??_8?$basic_fstream@DU?$char_traits@D@std@@@std@@7B?$basic_ostream@DU?$char_traits@D@std@@@1@@ 0000000140030d50     Game.obj
 0002:00004d60       ??_7?$basic_stringbuf@DU?$char_traits@D@std@@V?$allocator@D@2@@std@@6B@ 0000000140030d60     Game.obj
 0002:00004de0       ??_7?$basic_stringstream@DU?$char_traits@D@std@@V?$allocator@D@2@@std@@6B@ 0000000140030de0     Game.obj
 0002:00004de8       ??_8?$basic_stringstream@DU?$char_traits@D@std@@V?$allocator@D@2@@std@@7B?$basic_istream@DU?$char_traits@D@std@@@1@@ 0000000140030de8     Game.obj
 0002:00004df0       ??_8?$basic_stringstream@DU?$char_traits@D@std@@V?$allocator@D@2@@std@@7B?$basic_ostream@DU?$char_traits@D@std@@@1@@ 0000000140030df0     Game.obj
 0002:00004e00       ??_7?$basic_ifstream@DU?$char_traits@D@std@@@std@@6B@ 0000000140030e00     Game.obj
 0002:00004e08       ??_8?$basic_ifstream@DU?$char_traits@D@std@@@std@@7B@ 0000000140030e08     Game.obj
 0002:00004e10       ??_C@_0BO@PFKOHNJC@vector?5subscript?5out?5of?5range@ 0000000140030e10     Game.obj
 0002:00004e30       ??_C@_0GH@CENCAHKH@C?3?2Program?5Files?5?$CIx86?$CJ?2Microsof@ 0000000140030e30     Game.obj
 0002:00004ea0       ??_C@_1MO@BFNDGJJP@?$AAC?$AA?3?$AA?2?$AAP?$AAr?$AAo?$AAg?$AAr?$AAa?$AAm?$AA?5?$AAF?$AAi?$AAl?$AAe@ 0000000140030ea0     Game.obj
 0002:00004f70       ??_C@_1DNA@LCACHEIG@?$AAs?$AAt?$AAd?$AA?3?$AA?3?$AAv?$AAe?$AAc?$AAt?$AAo?$AAr?$AA?$DM?$AAc?$AAl?$AAa@ 0000000140030f70     Game.obj
 0002:00005340       ??_C@_1EA@LEKOKFNB@?$AA?$CC?$AAv?$AAe?$AAc?$AAt?$AAo?$AAr?$AA?5?$AAs?$AAu?$AAb?$AAs?$AAc?$AAr?$AAi@ 0000000140031340     Game.obj
 0002:00005380       ??_C@_0CE@EAMOGAIE@vector?5erase?5iterator?5outside?5r@ 0000000140031380     Game.obj
 0002:000053b0       ??_C@_1JC@BDOIPOJ@?$AAs?$AAt?$AAd?$AA?3?$AA?3?$AAv?$AAe?$AAc?$AAt?$AAo?$AAr?$AA?$DM?$AAc?$AAl?$AAa@ 00000001400313b0     Game.obj
 0002:00005450       ??_C@_1EM@BEMPOGMM@?$AA?$CC?$AAv?$AAe?$AAc?$AAt?$AAo?$AAr?$AA?5?$AAe?$AAr?$AAa?$AAs?$AAe?$AA?5?$AAi@ 0000000140031450     Game.obj
 0002:000054a0       ??_C@_1JO@MFFCJPIC@?$AAs?$AAt?$AAd?$AA?3?$AA?3?$AAv?$AAe?$AAc?$AAt?$AAo?$AAr?$AA?$DM?$AAc?$AAl?$AAa@ 00000001400314a0     Game.obj
 0002:00005540       ??_C@_1JC@COPPNNN@?$AAs?$AAt?$AAd?$AA?3?$AA?3?$AAv?$AAe?$AAc?$AAt?$AAo?$AAr?$AA?$DM?$AAc?$AAl?$AAa@ 0000000140031540     Game.obj
 0002:000055e0       ??_C@_1KK@BDOPLGLA@?$AAs?$AAt?$AAd?$AA?3?$AA?3?$AAv?$AAe?$AAc?$AAt?$AAo?$AAr?$AA?$DM?$AAc?$AAl?$AAa@ 00000001400315e0     Game.obj
 0002:00005690       ??_C@_1JO@PLINMIFN@?$AAs?$AAt?$AAd?$AA?3?$AA?3?$AAv?$AAe?$AAc?$AAt?$AAo?$AAr?$AA?$DM?$AAc?$AAl?$AAa@ 0000000140031690     Game.obj
 0002:00005730       ??_C@_1KG@PJHMMHJF@?$AAs?$AAt?$AAd?$AA?3?$AA?3?$AAv?$AAe?$AAc?$AAt?$AAo?$AAr?$AA?$DM?$AAc?$AAl?$AAa@ 0000000140031730     Game.obj
 0002:000057e0       ??_C@_1JK@GPOAFIMP@?$AAs?$AAt?$AAd?$AA?3?$AA?3?$AAv?$AAe?$AAc?$AAt?$AAo?$AAr?$AA?$DM?$AAc?$AAl?$AAa@ 00000001400317e0     Game.obj
 0002:00005880       ??_C@_1KC@OJNPGHMO@?$AAs?$AAt?$AAd?$AA?3?$AA?3?$AAv?$AAe?$AAc?$AAt?$AAo?$AAr?$AA?$DM?$AAc?$AAl?$AAa@ 0000000140031880     Game.obj
 0002:00005930       ??_C@_1JG@KFGJAMMJ@?$AAs?$AAt?$AAd?$AA?3?$AA?3?$AAv?$AAe?$AAc?$AAt?$AAo?$AAr?$AA?$DM?$AAc?$AAl?$AAa@ 0000000140031930     Game.obj
 0002:000059d0       ??_C@_1JO@DMPMMILD@?$AAs?$AAt?$AAd?$AA?3?$AA?3?$AAv?$AAe?$AAc?$AAt?$AAo?$AAr?$AA?$DM?$AAc?$AAl?$AAa@ 00000001400319d0     Game.obj
 0002:00005a70       ??_C@_1JC@KPKHAPAP@?$AAs?$AAt?$AAd?$AA?3?$AA?3?$AAv?$AAe?$AAc?$AAt?$AAo?$AAr?$AA?$DM?$AAc?$AAl?$AAa@ 0000000140031a70     Game.obj
 0002:00005b10       ??_C@_1BME@NCIPHHDN@?$AAs?$AAt?$AAd?$AA?3?$AA?3?$AAv?$AAe?$AAc?$AAt?$AAo?$AAr?$AA?$DM?$AAc?$AAl?$AAa@ 0000000140031b10     Game.obj
 0002:00005ce0       ??_C@_0GI@NCGKGAKB@C?3?2Program?5Files?5?$CIx86?$CJ?2Microsof@ 0000000140031ce0     Game.obj
 0002:00005d50       ??_C@_1NA@BNFBKLGC@?$AAC?$AA?3?$AA?2?$AAP?$AAr?$AAo?$AAg?$AAr?$AAa?$AAm?$AA?5?$AAF?$AAi?$AAl?$AAe@ 0000000140031d50     Game.obj
 0002:00005e20       ??_C@_0CB@EJBNKHHC@invalid?5to?5pop_back?5empty?5strin@ 0000000140031e20     Game.obj
 0002:00005e50       ??_C@_1LI@HCBEBID@?$AAs?$AAt?$AAd?$AA?3?$AA?3?$AAb?$AAa?$AAs?$AAi?$AAc?$AA_?$AAs?$AAt?$AAr?$AAi@ 0000000140031e50     Game.obj
 0002:00005f10       ??_C@_1EG@GNALHNOG@?$AA?$CC?$AAi?$AAn?$AAv?$AAa?$AAl?$AAi?$AAd?$AA?5?$AAt?$AAo?$AA?5?$AAp?$AAo?$AAp@ 0000000140031f10     Game.obj
 0002:00005f58       ??_C@_0BJ@DHFDPMIM@invalid?5vector?5subscript@ 0000000140031f58     Game.obj
 0002:00005f78       ??_C@_0BP@PFIPNLNI@front?$CI?$CJ?5called?5on?5empty?5string@ 0000000140031f78     Game.obj
 0002:00005fa0       ??_C@_1LC@BJDDPGPA@?$AAs?$AAt?$AAd?$AA?3?$AA?3?$AAb?$AAa?$AAs?$AAi?$AAc?$AA_?$AAs?$AAt?$AAr?$AAi@ 0000000140031fa0     Game.obj
 0002:00006060       ??_C@_1EC@DINNLDHA@?$AA?$CC?$AAf?$AAr?$AAo?$AAn?$AAt?$AA?$CI?$AA?$CJ?$AA?5?$AAc?$AAa?$AAl?$AAl?$AAe?$AAd@ 0000000140032060     Game.obj
 0002:000060a8       ??_C@_0CO@LHPFLLJB@cannot?5seek?5value?9initialized?5v@ 00000001400320a8     Game.obj
 0002:000060e0       ??_C@_1OC@GKGOLHLA@?$AAs?$AAt?$AAd?$AA?3?$AA?3?$AA_?$AAV?$AAe?$AAc?$AAt?$AAo?$AAr?$AA_?$AAc?$AAo@ 00000001400320e0     Game.obj
 0002:000061d0       ??_C@_1GA@EIHBFEJD@?$AA?$CC?$AAc?$AAa?$AAn?$AAn?$AAo?$AAt?$AA?5?$AAs?$AAe?$AAe?$AAk?$AA?5?$AAv?$AAa@ 00000001400321d0     Game.obj
 0002:00006230       ??_C@_0CJ@DIFMEJBE@cannot?5seek?5vector?5iterator?5bef@ 0000000140032230     Game.obj
 0002:00006260       ??_C@_1FG@JCGKNFIB@?$AA?$CC?$AAc?$AAa?$AAn?$AAn?$AAo?$AAt?$AA?5?$AAs?$AAe?$AAe?$AAk?$AA?5?$AAv?$AAe@ 0000000140032260     Game.obj
 0002:000062b8       ??_C@_0CG@JDIOCKHH@cannot?5seek?5vector?5iterator?5aft@ 00000001400322b8     Game.obj
 0002:000062e0       ??_C@_1FA@LCODAPOP@?$AA?$CC?$AAc?$AAa?$AAn?$AAn?$AAo?$AAt?$AA?5?$AAs?$AAe?$AAe?$AAk?$AA?5?$AAv?$AAe@ 00000001400322e0     Game.obj
 0002:00006330       ??_C@_1OC@NMFFPDAI@?$AAs?$AAt?$AAd?$AA?3?$AA?3?$AA_?$AAV?$AAe?$AAc?$AAt?$AAo?$AAr?$AA_?$AAc?$AAo@ 0000000140032330     Game.obj
 0002:00006420       ??_C@_1OI@MGGLNJCH@?$AAs?$AAt?$AAd?$AA?3?$AA?3?$AA_?$AAV?$AAe?$AAc?$AAt?$AAo?$AAr?$AA_?$AAc?$AAo@ 0000000140032420     Game.obj
 0002:00006510       ??_C@_1OG@DEILOFLK@?$AAs?$AAt?$AAd?$AA?3?$AA?3?$AA_?$AAV?$AAe?$AAc?$AAt?$AAo?$AAr?$AA_?$AAc?$AAo@ 0000000140032510     Game.obj
 0002:00006600       ??_C@_1OE@HLBKFCCL@?$AAs?$AAt?$AAd?$AA?3?$AA?3?$AA_?$AAV?$AAe?$AAc?$AAt?$AAo?$AAr?$AA_?$AAc?$AAo@ 0000000140032600     Game.obj
 0002:000066f0       ??_C@_1OC@JFOFFOEA@?$AAs?$AAt?$AAd?$AA?3?$AA?3?$AA_?$AAV?$AAe?$AAc?$AAt?$AAo?$AAr?$AA_?$AAc?$AAo@ 00000001400326f0     Game.obj
 0002:000067d8       ??_C@_0BI@CFPLBAOH@invalid?5string?5position@ 00000001400327d8     Game.obj
 0002:000067f0       ??_C@_0BA@FOIKENOD@vector?5too?5long@ 00000001400327f0     Game.obj
 0002:00006800       ??_C@_0BJ@HAJGEHKO@transposed?5pointer?5range@ 0000000140032800     Game.obj
 0002:00006820       ??_C@_0GJ@LLNHGKJO@C?3?2Program?5Files?5?$CIx86?$CJ?2Microsof@ 0000000140032820     Game.obj
 0002:00006890       ??_C@_1NC@EHENBDHM@?$AAC?$AA?3?$AA?2?$AAP?$AAr?$AAo?$AAg?$AAr?$AAa?$AAm?$AA?5?$AAF?$AAi?$AAl?$AAe@ 0000000140032890     Game.obj
 0002:00006968       ??_C@_1CG@LJCPDKEJ@?$AAs?$AAt?$AAd?$AA?3?$AA?3?$AA_?$AAV?$AAe?$AAr?$AAi?$AAf?$AAy?$AA_?$AAr?$AAa@ 0000000140032968     Game.obj
 0002:00006990       ??_C@_1DG@FJIKMGFD@?$AA?$CC?$AAt?$AAr?$AAa?$AAn?$AAs?$AAp?$AAo?$AAs?$AAe?$AAd?$AA?5?$AAp?$AAo?$AAi@ 0000000140032990     Game.obj
 0002:000069c8       ??_C@_0DI@PBEELKIF@vector?5iterators?5in?5range?5are?5f@ 00000001400329c8     Game.obj
 0002:00006a00       ??_C@_1HE@KBMFDAFB@?$AA?$CC?$AAv?$AAe?$AAc?$AAt?$AAo?$AAr?$AA?5?$AAi?$AAt?$AAe?$AAr?$AAa?$AAt?$AAo@ 0000000140032a00     Game.obj
 0002:00006a78       ??_C@_0CB@LIAHLBAO@vector?5iterator?5range?5transpose@ 0000000140032a78     Game.obj
 0002:00006aa0       ??_C@_1EG@ODKBEHFN@?$AA?$CC?$AAv?$AAe?$AAc?$AAt?$AAo?$AAr?$AA?5?$AAi?$AAt?$AAe?$AAr?$AAa?$AAt?$AAo@ 0000000140032aa0     Game.obj
 0002:00006ae8       ??_C@_0BD@FEEMDEPI@invalid?5comparator@ 0000000140032ae8     Game.obj
 0002:00006b00       ??_C@_1CI@JONCLBEJ@?$AAs?$AAt?$AAd?$AA?3?$AA?3?$AA_?$AAD?$AAe?$AAb?$AAu?$AAg?$AA_?$AAl?$AAt?$AA_@ 0000000140032b00     Game.obj
 0002:00006b28       ??_C@_1CK@NDNHPKPI@?$AA?$CC?$AAi?$AAn?$AAv?$AAa?$AAl?$AAi?$AAd?$AA?5?$AAc?$AAo?$AAm?$AAp?$AAa?$AAr@ 0000000140032b28     Game.obj
 0002:00006b54       __real@3f800000            0000000140032b54     Game.obj
 0002:00006b58       __real@40000000            0000000140032b58     Game.obj
 0002:00006b5c       __real@40a00000            0000000140032b5c     Game.obj
 0002:00006b60       __real@40e00000            0000000140032b60     Game.obj
 0002:00006b64       __real@41200000            0000000140032b64     Game.obj
 0002:00006b68       __real@41a00000            0000000140032b68     Game.obj
 0002:00006b6c       __real@41f00000            0000000140032b6c     Game.obj
 0002:00006b70       __real@42480000            0000000140032b70     Game.obj
 0002:00006b74       __real@428c0000            0000000140032b74     Game.obj
 0002:00006b78       __real@42960000            0000000140032b78     Game.obj
 0002:00006b7c       __real@42a00000            0000000140032b7c     Game.obj
 0002:00006b80       __real@42c80000            0000000140032b80     Game.obj
 0002:00006b84       __real@43160000            0000000140032b84     Game.obj
 0002:00006b88       __real@43480000            0000000140032b88     Game.obj
 0002:00006b8c       __real@43820000            0000000140032b8c     Game.obj
 0002:00006b90       __real@43898000            0000000140032b90     Game.obj
 0002:00006b94       __real@43a50000            0000000140032b94     Game.obj
 0002:00006b98       __real@43c80000            0000000140032b98     Game.obj
 0002:00006b9c       __real@43e10000            0000000140032b9c     Game.obj
 0002:00006ba0       __real@43fa0000            0000000140032ba0     Game.obj
 0002:00006ba4       __real@44070000            0000000140032ba4     Game.obj
 0002:00006ba8       __real@44160000            0000000140032ba8     Game.obj
 0002:00006bac       __real@44408000            0000000140032bac     Game.obj
 0002:00006bb0       __real@44610000            0000000140032bb0     Game.obj
 0002:00006bb4       __real@448fc000            0000000140032bb4     Game.obj
 0002:00006bb8       __real@44d48000            0000000140032bb8     Game.obj
 0002:00006bbc       __real@45d48000            0000000140032bbc     Game.obj
 0002:00006bc0       __real@45d49000            0000000140032bc0     Game.obj
 0002:00006bc4       __real@bfc00000            0000000140032bc4     Game.obj
 0002:00006bc8       __real@c5d48000            0000000140032bc8     Game.obj
 0002:00006e98       ??_7Player@@6B@            0000000140032e98     Player.obj
 0002:00006ea0       __real@3e800000            0000000140032ea0     Player.obj
 0002:00006ea4       __real@3f6e147b            0000000140032ea4     Player.obj
 0002:00006ea8       __real@42200000            0000000140032ea8     Player.obj
 0002:00006eac       __real@43020000            0000000140032eac     Player.obj
 0002:00006eb0       __real@431d0000            0000000140032eb0     Player.obj
 0002:00006eb4       __real@43af0000            0000000140032eb4     Player.obj
 0002:00006eb8       __real@441d0000            0000000140032eb8     Player.obj
 0002:00006ebc       __real@bf800000            0000000140032ebc     Player.obj
 0002:00006ec0       __xmm@7fffffffffffffff7fffffffffffffff 0000000140032ec0     Player.obj
 0002:00007158       ??_7Potion@@6B@            0000000140033158     Potion.obj
 0002:00007160       __real@40800000            0000000140033160     Potion.obj
 0002:00007408       ??_7RedEnemy@@6B@          0000000140033408     RedEnemy.obj
 0002:00007410       __real@3f666666            0000000140033410     RedEnemy.obj
 0002:00007414       __real@42b40000            0000000140033414     RedEnemy.obj
 0002:00007418       __real@449d8000            0000000140033418     RedEnemy.obj
 0002:000076a8       ??_7Shield@@6B@            00000001400336a8     Shield.obj
 0002:000076b0       __real@42fa0000            00000001400336b0     Shield.obj
 0002:000076b4       __real@44dac000            00000001400336b4     Shield.obj
 0002:00007960       ??_C@_0DP@DBGHFHEL@d?3?2agent?2_work?263?2s?2src?2vctools@ 0000000140033960     msvcprtd:locale0_implib.obj
 0002:000079a8       ??_7type_info@@6B@         00000001400339a8     MSVCRTD:std_type_info_static.obj
 0002:000079b0       ??_C@_0P@GHFPNOJB@bad?5allocation@ 00000001400339b0     MSVCRTD:throw_bad_alloc.obj
 0002:00007a80       ??_C@_0NN@JMPELKLB@The?5value?5of?5ESP?5was?5not?5proper@ 0000000140033a80     MSVCRTD:error.obj
 0002:00007b60       ??_C@_0BBN@ELNNILBE@A?5cast?5to?5a?5smaller?5data?5type?5h@ 0000000140033b60     MSVCRTD:error.obj
 0002:00007c80       ??_C@_0BN@BPOGFMJL@Stack?5memory?5was?5corrupted?$AN?6@ 0000000140033c80     MSVCRTD:error.obj
 0002:00007ca0       ??_C@_0DG@DAJCDLPN@A?5local?5variable?5was?5used?5befor@ 0000000140033ca0     MSVCRTD:error.obj
 0002:00007cd8       ??_C@_0CM@JMIDGKLA@Stack?5memory?5around?5_alloca?5was@ 0000000140033cd8     MSVCRTD:error.obj
 0002:00007d08       ??_C@_0BO@CHIONIOI@Unknown?5Runtime?5Check?5Error?$AN?6@ 0000000140033d08     MSVCRTD:error.obj
 0002:00007d30       ??_C@_1GM@CNOOJIHC@?$AAR?$AAu?$AAn?$AAt?$AAi?$AAm?$AAe?$AA?5?$AAC?$AAh?$AAe?$AAc?$AAk?$AA?5?$AAE@ 0000000140033d30     MSVCRTD:error.obj
 0002:00007da0       ??_C@_1EA@NFKNIFJP@?$AAR?$AAu?$AAn?$AA?9?$AAT?$AAi?$AAm?$AAe?$AA?5?$AAC?$AAh?$AAe?$AAc?$AAk?$AA?5@ 0000000140033da0     MSVCRTD:error.obj
 0002:00007de0       ??_C@_0BB@PFFGGCJP@Unknown?5Filename@ 0000000140033de0     MSVCRTD:error.obj
 0002:00007df8       ??_C@_0BE@GNBOBNCK@Unknown?5Module?5Name@ 0000000140033df8     MSVCRTD:error.obj
 0002:00007e10       ??_C@_0CA@IODNCDPG@Run?9Time?5Check?5Failure?5?$CD?$CFd?5?9?5?$CFs@ 0000000140033e10     MSVCRTD:error.obj
 0002:00007e30       ??_C@_0CG@IAFNJNEE@Stack?5corrupted?5near?5unknown?5va@ 0000000140033e30     MSVCRTD:error.obj
 0002:00007e80       ??_C@_0BJ@HEGAHDFO@Stack?5pointer?5corruption@ 0000000140033e80     MSVCRTD:userapi.obj
 0002:00007ea0       ??_C@_0CK@FEGOIOPB@Cast?5to?5smaller?5type?5causing?5lo@ 0000000140033ea0     MSVCRTD:userapi.obj
 0002:00007ed0       ??_C@_0BI@CIGMDCBH@Stack?5memory?5corruption@ 0000000140033ed0     MSVCRTD:userapi.obj
 0002:00007ee8       ??_C@_0CK@CNLNOEPB@Local?5variable?5used?5before?5init@ 0000000140033ee8     MSVCRTD:userapi.obj
 0002:00007f18       ??_C@_0BP@OGBCLIBO@Stack?5around?5_alloca?5corrupted@ 0000000140033f18     MSVCRTD:userapi.obj
 0002:00007fa0       ??_C@_1EI@MLPKHBGE@?$AAa?$AAp?$AAi?$AA?9?$AAm?$AAs?$AA?9?$AAw?$AAi?$AAn?$AA?9?$AAc?$AAo?$AAr?$AAe@ 0000000140033fa0     MSVCRTD:pdblkup.obj
 0002:00007fe8       ??_C@_1BK@JHLNAEJL@?$AAa?$AAd?$AAv?$AAa?$AAp?$AAi?$AA3?$AA2?$AA?4?$AAd?$AAl?$AAl@ 0000000140033fe8     MSVCRTD:pdblkup.obj
 0002:00008008       ??_C@_0O@COHOBMLB@RegOpenKeyExW@ 0000000140034008     MSVCRTD:pdblkup.obj
 0002:00008018       ??_C@_0BB@GLNAEDBD@RegQueryValueExW@ 0000000140034018     MSVCRTD:pdblkup.obj
 0002:00008030       ??_C@_0M@HLOHPNFA@RegCloseKey@ 0000000140034030     MSVCRTD:pdblkup.obj
 0002:00008040       ??_C@_1HE@EBEAGLFB@?$AAS?$AAO?$AAF?$AAT?$AAW?$AAA?$AAR?$AAE?$AA?2?$AAW?$AAo?$AAw?$AA6?$AA4?$AA3@ 0000000140034040     MSVCRTD:pdblkup.obj
 0002:000080b8       ??_C@_1BG@EABPBLLF@?$AAP?$AAr?$AAo?$AAd?$AAu?$AAc?$AAt?$AAD?$AAi?$AAr@ 00000001400340b8     MSVCRTD:pdblkup.obj
 0002:000080f0       ??_C@_1BC@JINFINNJ@?$AAM?$AAS?$AAP?$AAD?$AAB?$AA1?$AA4?$AA0@ 00000001400340f0     MSVCRTD:pdblkup.obj
 0002:00008108       ??_C@_0BB@KCIACLNC@PDBOpenValidate5@ 0000000140034108     MSVCRTD:pdblkup.obj
 0002:0000811c       ??_C@_01KDCPPGHE@r@        000000014003411c     MSVCRTD:pdblkup.obj
 0002:00008180       _load_config_used          0000000140034180     MSVCRTD:loadcfg.obj
 0002:00008300       ??_R4exception@std@@6B@    0000000140034300     BlueEnemy.obj
 0002:00008328       ??_R3exception@std@@8      0000000140034328     BlueEnemy.obj
 0002:00008340       ??_R2exception@std@@8      0000000140034340     BlueEnemy.obj
 0002:00008350       ??_R1A@?0A@EA@exception@std@@8 0000000140034350     BlueEnemy.obj
 0002:00008378       ??_R4bad_alloc@std@@6B@    0000000140034378     BlueEnemy.obj
 0002:000083a0       ??_R3bad_alloc@std@@8      00000001400343a0     BlueEnemy.obj
 0002:000083b8       ??_R2bad_alloc@std@@8      00000001400343b8     BlueEnemy.obj
 0002:000083d0       ??_R1A@?0A@EA@bad_alloc@std@@8 00000001400343d0     BlueEnemy.obj
 0002:000083f8       ??_R4bad_array_new_length@std@@6B@ 00000001400343f8     BlueEnemy.obj
 0002:00008420       ??_R3bad_array_new_length@std@@8 0000000140034420     BlueEnemy.obj
 0002:00008438       ??_R2bad_array_new_length@std@@8 0000000140034438     BlueEnemy.obj
 0002:00008458       ??_R1A@?0A@EA@bad_array_new_length@std@@8 0000000140034458     BlueEnemy.obj
 0002:00008480       ??_R4BlueEnemy@@6B@        0000000140034480     BlueEnemy.obj
 0002:000084a8       ??_R3BlueEnemy@@8          00000001400344a8     BlueEnemy.obj
 0002:000084c0       ??_R2BlueEnemy@@8          00000001400344c0     BlueEnemy.obj
 0002:000084d0       ??_R1A@?0A@EA@BlueEnemy@@8 00000001400344d0     BlueEnemy.obj
 0002:000084f8       ??_R4Bullet@@6B@           00000001400344f8     Bullet.obj
 0002:00008520       ??_R3Bullet@@8             0000000140034520     Bullet.obj
 0002:00008538       ??_R2Bullet@@8             0000000140034538     Bullet.obj
 0002:00008548       ??_R1A@?0A@EA@Bullet@@8    0000000140034548     Bullet.obj
 0002:00008570       ??_R4Enemies@@6B@          0000000140034570     Enemies.obj
 0002:00008598       ??_R3Enemies@@8            0000000140034598     Enemies.obj
 0002:000085b0       ??_R2Enemies@@8            00000001400345b0     Enemies.obj
 0002:000085c0       ??_R1A@?0A@EA@Enemies@@8   00000001400345c0     Enemies.obj
 0002:000085e8       ??_R4?$basic_stringbuf@DU?$char_traits@D@std@@V?$allocator@D@2@@std@@6B@ 00000001400345e8     Game.obj
 0002:00008610       ??_R3?$basic_stringbuf@DU?$char_traits@D@std@@V?$allocator@D@2@@std@@8 0000000140034610     Game.obj
 0002:00008628       ??_R2?$basic_stringbuf@DU?$char_traits@D@std@@V?$allocator@D@2@@std@@8 0000000140034628     Game.obj
 0002:00008640       ??_R1A@?0A@EA@?$basic_stringbuf@DU?$char_traits@D@std@@V?$allocator@D@2@@std@@8 0000000140034640     Game.obj
 0002:00008668       ??_R1A@?0A@EA@?$basic_streambuf@DU?$char_traits@D@std@@@std@@8 0000000140034668     Game.obj
 0002:00008690       ??_R3?$basic_streambuf@DU?$char_traits@D@std@@@std@@8 0000000140034690     Game.obj
 0002:000086a8       ??_R2?$basic_streambuf@DU?$char_traits@D@std@@@std@@8 00000001400346a8     Game.obj
 0002:000086b8       ??_R4?$basic_stringstream@DU?$char_traits@D@std@@V?$allocator@D@2@@std@@6B@ 00000001400346b8     Game.obj
 0002:000086e0       ??_R3?$basic_stringstream@DU?$char_traits@D@std@@V?$allocator@D@2@@std@@8 00000001400346e0     Game.obj
 0002:00008700       ??_R2?$basic_stringstream@DU?$char_traits@D@std@@V?$allocator@D@2@@std@@8 0000000140034700     Game.obj
 0002:00008758       ??_R1A@?0A@EA@?$basic_stringstream@DU?$char_traits@D@std@@V?$allocator@D@2@@std@@8 0000000140034758     Game.obj
 0002:00008780       ??_R1A@?0A@EA@?$basic_iostream@DU?$char_traits@D@std@@@std@@8 0000000140034780     Game.obj
 0002:000087a8       ??_R3?$basic_iostream@DU?$char_traits@D@std@@@std@@8 00000001400347a8     Game.obj
 0002:000087c0       ??_R2?$basic_iostream@DU?$char_traits@D@std@@@std@@8 00000001400347c0     Game.obj
 0002:00008810       ??_R1A@?0A@EA@?$basic_istream@DU?$char_traits@D@std@@@std@@8 0000000140034810     Game.obj
 0002:00008838       ??_R3?$basic_istream@DU?$char_traits@D@std@@@std@@8 0000000140034838     Game.obj
 0002:00008850       ??_R2?$basic_istream@DU?$char_traits@D@std@@@std@@8 0000000140034850     Game.obj
 0002:00008878       ??_R1A@A@3FA@?$basic_ios@DU?$char_traits@D@std@@@std@@8 0000000140034878     Game.obj
 0002:000088a0       ??_R3?$basic_ios@DU?$char_traits@D@std@@@std@@8 00000001400348a0     Game.obj
 0002:000088b8       ??_R2?$basic_ios@DU?$char_traits@D@std@@@std@@8 00000001400348b8     Game.obj
 0002:000088d8       ??_R1A@?0A@EA@?$basic_ios@DU?$char_traits@D@std@@@std@@8 00000001400348d8     Game.obj
 0002:00008900       ??_R1A@?0A@EA@ios_base@std@@8 0000000140034900     Game.obj
 0002:00008928       ??_R3ios_base@std@@8       0000000140034928     Game.obj
 0002:00008940       ??_R2ios_base@std@@8       0000000140034940     Game.obj
 0002:00008958       ??_R17?0A@EA@?$_Iosb@H@std@@8 0000000140034958     Game.obj
 0002:00008980       ??_R3?$_Iosb@H@std@@8      0000000140034980     Game.obj
 0002:00008998       ??_R2?$_Iosb@H@std@@8      0000000140034998     Game.obj
 0002:000089a8       ??_R1A@?0A@EA@?$_Iosb@H@std@@8 00000001400349a8     Game.obj
 0002:000089d0       ??_R1A@A@3EA@ios_base@std@@8 00000001400349d0     Game.obj
 0002:000089f8       ??_R17A@3EA@?$_Iosb@H@std@@8 00000001400349f8     Game.obj
 0002:00008a20       ??_R1BA@?0A@EA@?$basic_ostream@DU?$char_traits@D@std@@@std@@8 0000000140034a20     Game.obj
 0002:00008a48       ??_R3?$basic_ostream@DU?$char_traits@D@std@@@std@@8 0000000140034a48     Game.obj
 0002:00008a60       ??_R2?$basic_ostream@DU?$char_traits@D@std@@@std@@8 0000000140034a60     Game.obj
 0002:00008a88       ??_R1A@?0A@EA@?$basic_ostream@DU?$char_traits@D@std@@@std@@8 0000000140034a88     Game.obj
 0002:00008ab0       ??_R4?$basic_filebuf@DU?$char_traits@D@std@@@std@@6B@ 0000000140034ab0     Game.obj
 0002:00008ad8       ??_R3?$basic_filebuf@DU?$char_traits@D@std@@@std@@8 0000000140034ad8     Game.obj
 0002:00008af0       ??_R2?$basic_filebuf@DU?$char_traits@D@std@@@std@@8 0000000140034af0     Game.obj
 0002:00008b08       ??_R1A@?0A@EA@?$basic_filebuf@DU?$char_traits@D@std@@@std@@8 0000000140034b08     Game.obj
 0002:00008b30       ??_R4?$basic_ifstream@DU?$char_traits@D@std@@@std@@6B@ 0000000140034b30     Game.obj
 0002:00008b58       ??_R3?$basic_ifstream@DU?$char_traits@D@std@@@std@@8 0000000140034b58     Game.obj
 0002:00008b70       ??_R2?$basic_ifstream@DU?$char_traits@D@std@@@std@@8 0000000140034b70     Game.obj
 0002:00008ba0       ??_R1A@?0A@EA@?$basic_ifstream@DU?$char_traits@D@std@@@std@@8 0000000140034ba0     Game.obj
 0002:00008bc8       ??_R4?$basic_fstream@DU?$char_traits@D@std@@@std@@6B@ 0000000140034bc8     Game.obj
 0002:00008bf0       ??_R3?$basic_fstream@DU?$char_traits@D@std@@@std@@8 0000000140034bf0     Game.obj
 0002:00008c10       ??_R2?$basic_fstream@DU?$char_traits@D@std@@@std@@8 0000000140034c10     Game.obj
 0002:00008c68       ??_R1A@?0A@EA@?$basic_fstream@DU?$char_traits@D@std@@@std@@8 0000000140034c68     Game.obj
 0002:00008c90       ??_R4bad_cast@std@@6B@     0000000140034c90     Game.obj
 0002:00008cb8       ??_R3bad_cast@std@@8       0000000140034cb8     Game.obj
 0002:00008cd0       ??_R2bad_cast@std@@8       0000000140034cd0     Game.obj
 0002:00008ce8       ??_R1A@?0A@EA@bad_cast@std@@8 0000000140034ce8     Game.obj
 0002:00008d10       ??_R4RenderWindow@sf@@6BWindow@1@@ 0000000140034d10     Game.obj
 0002:00008d38       ??_R3RenderWindow@sf@@8    0000000140034d38     Game.obj
 0002:00008d50       ??_R2RenderWindow@sf@@8    0000000140034d50     Game.obj
 0002:00008d88       ??_R1A@?0A@EA@RenderWindow@sf@@8 0000000140034d88     Game.obj
 0002:00008db0       ??_R1A@?0A@EA@Window@sf@@8 0000000140034db0     Game.obj
 0002:00008dd8       ??_R3Window@sf@@8          0000000140034dd8     Game.obj
 0002:00008df0       ??_R2Window@sf@@8          0000000140034df0     Game.obj
 0002:00008e10       ??_R17?0A@EN@GlResource@sf@@8 0000000140034e10     Game.obj
 0002:00008e38       ??_R3GlResource@sf@@8      0000000140034e38     Game.obj
 0002:00008e50       ??_R2GlResource@sf@@8      0000000140034e50     Game.obj
 0002:00008e60       ??_R1A@?0A@EA@GlResource@sf@@8 0000000140034e60     Game.obj
 0002:00008e88       ??_R18?0A@EN@NonCopyable@sf@@8 0000000140034e88     Game.obj
 0002:00008eb0       ??_R3NonCopyable@sf@@8     0000000140034eb0     Game.obj
 0002:00008ec8       ??_R2NonCopyable@sf@@8     0000000140034ec8     Game.obj
 0002:00008ed8       ??_R1A@?0A@EA@NonCopyable@sf@@8 0000000140034ed8     Game.obj
 0002:00008f00       ??_R18?0A@EP@NonCopyable@sf@@8 0000000140034f00     Game.obj
 0002:00008f28       ??_R1DI@?0A@EA@RenderTarget@sf@@8 0000000140034f28     Game.obj
 0002:00008f50       ??_R3RenderTarget@sf@@8    0000000140034f50     Game.obj
 0002:00008f68       ??_R2RenderTarget@sf@@8    0000000140034f68     Game.obj
 0002:00008f80       ??_R1A@?0A@EA@RenderTarget@sf@@8 0000000140034f80     Game.obj
 0002:00008fa8       ??_R17?0A@EN@NonCopyable@sf@@8 0000000140034fa8     Game.obj
 0002:00008fd0       ??_R1EA@?0A@EP@NonCopyable@sf@@8 0000000140034fd0     Game.obj
 0002:00008ff8       ??_R4RenderWindow@sf@@6BRenderTarget@1@@ 0000000140034ff8     Game.obj
 0002:00009020       ??_R4Game@@6B@             0000000140035020     Game.obj
 0002:00009048       ??_R3Game@@8               0000000140035048     Game.obj
 0002:00009060       ??_R2Game@@8               0000000140035060     Game.obj
 0002:00009070       ??_R1A@?0A@EA@Game@@8      0000000140035070     Game.obj
 0002:00009098       ??_R4Player@@6B@           0000000140035098     Player.obj
 0002:000090c0       ??_R3Player@@8             00000001400350c0     Player.obj
 0002:000090d8       ??_R2Player@@8             00000001400350d8     Player.obj
 0002:000090e8       ??_R1A@?0A@EA@Player@@8    00000001400350e8     Player.obj
 0002:00009110       ??_R4Potion@@6B@           0000000140035110     Potion.obj
 0002:00009138       ??_R3Potion@@8             0000000140035138     Potion.obj
 0002:00009150       ??_R2Potion@@8             0000000140035150     Potion.obj
 0002:00009160       ??_R1A@?0A@EA@Potion@@8    0000000140035160     Potion.obj
 0002:00009188       ??_R4RedEnemy@@6B@         0000000140035188     RedEnemy.obj
 0002:000091b0       ??_R3RedEnemy@@8           00000001400351b0     RedEnemy.obj
 0002:000091c8       ??_R2RedEnemy@@8           00000001400351c8     RedEnemy.obj
 0002:000091d8       ??_R1A@?0A@EA@RedEnemy@@8  00000001400351d8     RedEnemy.obj
 0002:00009200       ??_R4Shield@@6B@           0000000140035200     Shield.obj
 0002:00009228       ??_R3Shield@@8             0000000140035228     Shield.obj
 0002:00009240       ??_R2Shield@@8             0000000140035240     Shield.obj
 0002:00009250       ??_R1A@?0A@EA@Shield@@8    0000000140035250     Shield.obj
 0002:00009278       ??_R4type_info@@6B@        0000000140035278     MSVCRTD:std_type_info_static.obj
 0002:000092a0       ??_R3type_info@@8          00000001400352a0     MSVCRTD:std_type_info_static.obj
 0002:000092b8       ??_R2type_info@@8          00000001400352b8     MSVCRTD:std_type_info_static.obj
 0002:000092c8       ??_R1A@?0A@EA@type_info@@8 00000001400352c8     MSVCRTD:std_type_info_static.obj
 0002:00009688       __rtc_iaa                  0000000140035688     MSVCRTD:initsect.obj
 0002:00009690       __rtc_izz                  0000000140035690     MSVCRTD:initsect.obj
 0002:00009698       __rtc_taa                  0000000140035698     MSVCRTD:initsect.obj
 0002:000096a0       __rtc_tzz                  00000001400356a0     MSVCRTD:initsect.obj
 0002:0000aca0       _TI3?AVbad_array_new_length@std@@ 0000000140036ca0     BlueEnemy.obj
 0002:0000acc0       _CTA3?AVbad_array_new_length@std@@ 0000000140036cc0     BlueEnemy.obj
 0002:0000ace0       _CT??_R0?AVbad_array_new_length@std@@@8??0bad_array_new_length@std@@QEAA@AEBV01@@Z24 0000000140036ce0     BlueEnemy.obj
 0002:0000ad08       _CT??_R0?AVbad_alloc@std@@@8??0bad_alloc@std@@QEAA@AEBV01@@Z24 0000000140036d08     BlueEnemy.obj
 0002:0000ad30       _CT??_R0?AVexception@std@@@8??0exception@std@@QEAA@AEBV01@@Z24 0000000140036d30     BlueEnemy.obj
 0002:0000ad58       _TI2?AVbad_cast@std@@      0000000140036d58     Game.obj
 0002:0000ad78       _CTA2?AVbad_cast@std@@     0000000140036d78     Game.obj
 0002:0000ad90       _CT??_R0?AVbad_cast@std@@@8??0bad_cast@std@@QEAA@AEBV01@@Z24 0000000140036d90     Game.obj
 0002:0000adb8       _TI2?AVbad_alloc@std@@     0000000140036db8     MSVCRTD:throw_bad_alloc.obj
 0002:0000add8       _CTA2?AVbad_alloc@std@@    0000000140036dd8     MSVCRTD:throw_bad_alloc.obj
 0002:0000adec       __IMPORT_DESCRIPTOR_sfml-system-2 0000000140036dec     sfml-system:sfml-system-2.dll
 0002:0000ae00       __IMPORT_DESCRIPTOR_sfml-graphics-2 0000000140036e00     sfml-graphics:sfml-graphics-2.dll
 0002:0000ae14       __IMPORT_DESCRIPTOR_sfml-window-2 0000000140036e14     sfml-window:sfml-window-2.dll
 0002:0000ae28       __IMPORT_DESCRIPTOR_sfml-audio-2 0000000140036e28     sfml-audio:sfml-audio-2.dll
 0002:0000ae3c       __IMPORT_DESCRIPTOR_MSVCP140D 0000000140036e3c     msvcprtd:MSVCP140D.dll
 0002:0000ae50       __IMPORT_DESCRIPTOR_VCRUNTIME140D 0000000140036e50     vcruntimed:VCRUNTIME140D.dll
 0002:0000ae64       __IMPORT_DESCRIPTOR_VCRUNTIME140_1D 0000000140036e64     vcruntimed:VCRUNTIME140_1D.dll
 0002:0000ae78       __IMPORT_DESCRIPTOR_ucrtbased 0000000140036e78     ucrtd:ucrtbased.dll
 0002:0000ae8c       __IMPORT_DESCRIPTOR_KERNEL32 0000000140036e8c     kernel32:KERNEL32.dll
 0002:0000aea0       __NULL_IMPORT_DESCRIPTOR   0000000140036ea0     sfml-system:sfml-system-2.dll
 0003:00000000       __security_cookie_complement 000000014003a000     MSVCRTD:gs_cookie.obj
 0003:00000008       __security_cookie          000000014003a008     MSVCRTD:gs_cookie.obj
 0003:00000010       _fltused                   000000014003a010     MSVCRTD:fltused.obj
 0003:00000020       __scrt_native_dllmain_reason 000000014003a020     MSVCRTD:utility.obj
 0003:00000028       ?_RTC_ErrorLevels@@3PAHA   000000014003a028     MSVCRTD:error.obj
 0003:0000003c       __scrt_default_matherr     000000014003a03c     MSVCRTD:matherr.obj
 0003:00000040       __isa_available            000000014003a040     MSVCRTD:cpu_disp.obj
 0003:00000044       __isa_enabled              000000014003a044     MSVCRTD:cpu_disp.obj
 0003:00000048       __memcpy_nt_iters          000000014003a048     MSVCRTD:cpu_disp.obj
 0003:00000050       __memset_nt_iters          000000014003a050     MSVCRTD:cpu_disp.obj
 0003:00000060       __scrt_ucrt_dll_is_in_use  000000014003a060     MSVCRTD:ucrt_stubs.obj
 0003:00000068       ??_R0?AVbad_array_new_length@std@@@8 000000014003a068     BlueEnemy.obj
 0003:00000098       ??_R0?AVbad_alloc@std@@@8  000000014003a098     BlueEnemy.obj
 0003:000000c0       ??_R0?AVexception@std@@@8  000000014003a0c0     BlueEnemy.obj
 0003:000000e8       ??_R0?AVbad_cast@std@@@8   000000014003a0e8     Game.obj
 0003:00000110       ??_R0?AVtype_info@@@8      000000014003a110     MSVCRTD:std_type_info_static.obj
 0003:00000130       ??_R0?AVBlueEnemy@@@8      000000014003a130     BlueEnemy.obj
 0003:00000150       ??_R0?AVBullet@@@8         000000014003a150     Bullet.obj
 0003:00000170       ??_R0?AVEnemies@@@8        000000014003a170     Enemies.obj
 0003:00000190       ??_R0?AV?$basic_stringbuf@DU?$char_traits@D@std@@V?$allocator@D@2@@std@@@8 000000014003a190     Game.obj
 0003:000001f0       ??_R0?AV?$basic_streambuf@DU?$char_traits@D@std@@@std@@@8 000000014003a1f0     Game.obj
 0003:00000240       ??_R0?AV?$basic_stringstream@DU?$char_traits@D@std@@V?$allocator@D@2@@std@@@8 000000014003a240     Game.obj
 0003:000002a0       ??_R0?AV?$basic_iostream@DU?$char_traits@D@std@@@std@@@8 000000014003a2a0     Game.obj
 0003:000002f0       ??_R0?AV?$basic_istream@DU?$char_traits@D@std@@@std@@@8 000000014003a2f0     Game.obj
 0003:00000338       ??_R0?AV?$basic_ios@DU?$char_traits@D@std@@@std@@@8 000000014003a338     Game.obj
 0003:00000378       ??_R0?AVios_base@std@@@8   000000014003a378     Game.obj
 0003:000003a0       ??_R0?AV?$_Iosb@H@std@@@8  000000014003a3a0     Game.obj
 0003:000003d0       ??_R0?AV?$basic_ostream@DU?$char_traits@D@std@@@std@@@8 000000014003a3d0     Game.obj
 0003:00000420       ??_R0?AV?$basic_filebuf@DU?$char_traits@D@std@@@std@@@8 000000014003a420     Game.obj
 0003:00000470       ??_R0?AV?$basic_ifstream@DU?$char_traits@D@std@@@std@@@8 000000014003a470     Game.obj
 0003:000004c0       ??_R0?AV?$basic_fstream@DU?$char_traits@D@std@@@std@@@8 000000014003a4c0     Game.obj
 0003:00000508       ??_R0?AVRenderWindow@sf@@@8 000000014003a508     Game.obj
 0003:00000530       ??_R0?AVWindow@sf@@@8      000000014003a530     Game.obj
 0003:00000550       ??_R0?AVGlResource@sf@@@8  000000014003a550     Game.obj
 0003:00000578       ??_R0?AVNonCopyable@sf@@@8 000000014003a578     Game.obj
 0003:000005a0       ??_R0?AVRenderTarget@sf@@@8 000000014003a5a0     Game.obj
 0003:000005c8       ??_R0?AVGame@@@8           000000014003a5c8     Game.obj
 0003:000005e8       ??_R0?AVPlayer@@@8         000000014003a5e8     Player.obj
 0003:00000608       ??_R0?AVPotion@@@8         000000014003a608     Potion.obj
 0003:00000628       ??_R0?AVRedEnemy@@@8       000000014003a628     RedEnemy.obj
 0003:00000648       ??_R0?AVShield@@@8         000000014003a648     Shield.obj
 0003:00000670       ?_Stinit@?1??_Init@?$basic_filebuf@DU?$char_traits@D@std@@@std@@IEAAXPEAU_iobuf@@W4_Initfl@23@@Z@4U_Mbstatet@@A 000000014003a670     Game.obj
 0003:00000678       ?_Psave@?$_Facetptr@V?$ctype@D@std@@@std@@2PEBVfacet@locale@2@EB 000000014003a678     Game.obj
 0003:00000680       ?_Psave@?$_Facetptr@V?$codecvt@DDU_Mbstatet@@@std@@@std@@2PEBVfacet@locale@2@EB 000000014003a680     Game.obj
 0003:00000698       __scrt_current_native_startup_state 000000014003a698     MSVCRTD:utility.obj
 0003:000006a0       __scrt_native_startup_lock 000000014003a6a0     MSVCRTD:utility.obj
 0003:000006e0       __castguard_check_failure_os_handled_fptr 000000014003a6e0     MSVCRTD:guard_support.obj
 0003:000006e8       ?_OptionsStorage@?1??__local_stdio_printf_options@@9@4_KA 000000014003a6e8     MSVCRTD:error.obj
 0003:00000c70       ?__type_info_root_node@@3U__type_info_node@@A 000000014003ac70     MSVCRTD:tncleanup.obj
 0003:00000c80       ?_OptionsStorage@?1??__local_stdio_scanf_options@@9@4_KA 000000014003ac80     MSVCRTD:default_local_stdio_options.obj
 0003:00000c88       __scrt_debugger_hook_flag  000000014003ac88     MSVCRTD:utility_desktop.obj
 0003:00000c8c       __favor                    000000014003ac8c     MSVCRTD:cpu_disp.obj
 0003:00000ca0       __dyn_tls_dtor_callback    000000014003aca0     <common>
 0003:00000ca8       __dyn_tls_init_callback    000000014003aca8     <common>
 0003:00000cb0       __DebuggerCurrentSteppingThreadId 000000014003acb0     <common>

 entry point at        0001:000262b0

 Static symbols

 0000:fffbf000       .debug$S                   0000000140000000     msvcprtd:MSVCP140D.dll
 0000:fffbf000       .debug$S                   0000000140000000     msvcprtd:MSVCP140D.dll
 0000:fffbf000       .debug$S                   0000000140000000     msvcprtd:MSVCP140D.dll
 0000:fffbf000       .debug$S                   0000000140000000     msvcprtd:MSVCP140D.dll
 0000:fffbf000       .debug$S                   0000000140000000     msvcprtd:MSVCP140D.dll
 0000:fffbf000       .debug$S                   0000000140000000     msvcprtd:MSVCP140D.dll
 0000:fffbf000       .debug$S                   0000000140000000     msvcprtd:MSVCP140D.dll
 0000:fffbf000       .debug$S                   0000000140000000     msvcprtd:MSVCP140D.dll
 0000:fffbf000       .debug$S                   0000000140000000     msvcprtd:MSVCP140D.dll
 0000:fffbf000       .debug$S                   0000000140000000     msvcprtd:MSVCP140D.dll
 0000:fffbf000       .debug$S                   0000000140000000     msvcprtd:MSVCP140D.dll
 0000:fffbf000       .debug$S                   0000000140000000     msvcprtd:MSVCP140D.dll
 0000:fffbf000       .debug$S                   0000000140000000     msvcprtd:MSVCP140D.dll
 0000:fffbf000       .debug$S                   0000000140000000     msvcprtd:MSVCP140D.dll
 0000:fffbf000       .debug$S                   0000000140000000     msvcprtd:MSVCP140D.dll
 0000:fffbf000       .debug$S                   0000000140000000     msvcprtd:MSVCP140D.dll
 0000:fffbf000       .debug$S                   0000000140000000     msvcprtd:MSVCP140D.dll
 0000:fffbf000       .debug$S                   0000000140000000     msvcprtd:MSVCP140D.dll
 0000:fffbf000       .debug$S                   0000000140000000     msvcprtd:MSVCP140D.dll
 0000:fffbf000       .debug$S                   0000000140000000     msvcprtd:MSVCP140D.dll
 0000:fffbf000       .debug$S                   0000000140000000     msvcprtd:MSVCP140D.dll
 0000:fffbf000       .debug$S                   0000000140000000     msvcprtd:MSVCP140D.dll
 0000:fffbf000       .debug$S                   0000000140000000     msvcprtd:MSVCP140D.dll
 0000:fffbf000       .debug$S                   0000000140000000     msvcprtd:MSVCP140D.dll
 0000:fffbf000       .debug$S                   0000000140000000     msvcprtd:MSVCP140D.dll
 0000:fffbf000       .debug$S                   0000000140000000     msvcprtd:MSVCP140D.dll
 0000:fffbf000       .debug$S                   0000000140000000     msvcprtd:MSVCP140D.dll
 0000:fffbf000       .debug$S                   0000000140000000     msvcprtd:MSVCP140D.dll
 0000:fffbf000       .debug$S                   0000000140000000     msvcprtd:MSVCP140D.dll
 0000:fffbf000       .debug$S                   0000000140000000     msvcprtd:MSVCP140D.dll
 0000:fffbf000       .debug$S                   0000000140000000     msvcprtd:MSVCP140D.dll
 0000:fffbf000       .debug$S                   0000000140000000     msvcprtd:MSVCP140D.dll
 0000:fffbf000       .debug$S                   0000000140000000     msvcprtd:MSVCP140D.dll
 0000:fffbf000       .debug$S                   0000000140000000     msvcprtd:MSVCP140D.dll
 0000:fffbf000       .debug$S                   0000000140000000     msvcprtd:MSVCP140D.dll
 0000:fffbf000       .debug$S                   0000000140000000     msvcprtd:MSVCP140D.dll
 0000:fffbf000       .debug$S                   0000000140000000     msvcprtd:MSVCP140D.dll
 0000:fffbf000       .debug$S                   0000000140000000     msvcprtd:MSVCP140D.dll
 0000:fffbf000       .debug$S                   0000000140000000     msvcprtd:MSVCP140D.dll
 0000:fffbf000       .debug$S                   0000000140000000     msvcprtd:MSVCP140D.dll
 0000:fffbf000       .debug$S                   0000000140000000     msvcprtd:MSVCP140D.dll
 0000:fffbf000       .debug$S                   0000000140000000     msvcprtd:MSVCP140D.dll
 0000:fffbf000       .debug$S                   0000000140000000     msvcprtd:MSVCP140D.dll
 0000:fffbf000       .debug$S                   0000000140000000     msvcprtd:MSVCP140D.dll
 0000:fffbf000       .debug$S                   0000000140000000     msvcprtd:MSVCP140D.dll
 0000:fffbf000       .debug$S                   0000000140000000     msvcprtd:MSVCP140D.dll
 0000:fffbf000       .debug$S                   0000000140000000     msvcprtd:MSVCP140D.dll
 0000:fffbf000       .debug$S                   0000000140000000     msvcprtd:MSVCP140D.dll
 0000:fffbf000       .debug$S                   0000000140000000     msvcprtd:MSVCP140D.dll
 0000:fffbf000       .debug$S                   0000000140000000     msvcprtd:MSVCP140D.dll
 0000:fffbf000       .debug$S                   0000000140000000     msvcprtd:MSVCP140D.dll
 0000:fffbf000       .debug$S                   0000000140000000     msvcprtd:MSVCP140D.dll
 0000:fffbf000       .debug$S                   0000000140000000     msvcprtd:MSVCP140D.dll
 0000:fffbf000       .debug$S                   0000000140000000     msvcprtd:MSVCP140D.dll
 0000:fffbf000       .debug$S                   0000000140000000     msvcprtd:MSVCP140D.dll
 0000:fffbf000       .debug$S                   0000000140000000     msvcprtd:MSVCP140D.dll
 0000:fffbf000       .debug$S                   0000000140000000     msvcprtd:MSVCP140D.dll
 0000:fffbf000       .debug$S                   0000000140000000     msvcprtd:MSVCP140D.dll
 0000:fffbf000       .debug$S                   0000000140000000     msvcprtd:MSVCP140D.dll
 0000:fffbf000       .debug$S                   0000000140000000     msvcprtd:MSVCP140D.dll
 0000:fffbf000       .debug$S                   0000000140000000     msvcprtd:MSVCP140D.dll
 0000:fffbf000       .debug$S                   0000000140000000     msvcprtd:MSVCP140D.dll
 0000:fffbf000       .debug$S                   0000000140000000     msvcprtd:MSVCP140D.dll
 0000:fffbf000       .debug$S                   0000000140000000     msvcprtd:MSVCP140D.dll
 0000:fffbf000       .debug$S                   0000000140000000     msvcprtd:MSVCP140D.dll
 0000:fffbf000       .debug$S                   0000000140000000     msvcprtd:MSVCP140D.dll
 0000:fffbf000       .debug$S                   0000000140000000     msvcprtd:MSVCP140D.dll
 0000:fffbf000       .debug$S                   0000000140000000     msvcprtd:MSVCP140D.dll
 0000:fffbf000       .debug$S                   0000000140000000     msvcprtd:MSVCP140D.dll
 0000:fffbf000       .debug$S                   0000000140000000     msvcprtd:MSVCP140D.dll
 0000:fffbf000       .debug$S                   0000000140000000     msvcprtd:MSVCP140D.dll
 0000:fffbf000       .debug$S                   0000000140000000     msvcprtd:MSVCP140D.dll
 0000:fffbf000       .debug$S                   0000000140000000     msvcprtd:MSVCP140D.dll
 0000:fffbf000       .debug$S                   0000000140000000     msvcprtd:MSVCP140D.dll
 0000:fffbf000       .debug$S                   0000000140000000     msvcprtd:MSVCP140D.dll
 0000:fffbf000       .debug$S                   0000000140000000     msvcprtd:MSVCP140D.dll
 0000:fffbf000       .debug$S                   0000000140000000     msvcprtd:MSVCP140D.dll
 0000:fffbf000       .debug$S                   0000000140000000     msvcprtd:MSVCP140D.dll
 0000:fffbf000       .debug$S                   0000000140000000     msvcprtd:MSVCP140D.dll
 0000:fffbf000       .debug$S                   0000000140000000     msvcprtd:MSVCP140D.dll
 0000:fffbf000       .debug$S                   0000000140000000     msvcprtd:MSVCP140D.dll
 0000:fffbf000       .debug$S                   0000000140000000     msvcprtd:MSVCP140D.dll
 0000:fffbf000       .debug$S                   0000000140000000     msvcprtd:MSVCP140D.dll
 0000:fffbf000       .debug$S                   0000000140000000     msvcprtd:MSVCP140D.dll
 0000:fffbf000       .debug$S                   0000000140000000     msvcprtd:MSVCP140D.dll
 0000:fffbf000       .debug$S                   0000000140000000     msvcprtd:MSVCP140D.dll
 0000:fffbf000       .debug$S                   0000000140000000     msvcprtd:MSVCP140D.dll
 0000:fffbf000       .debug$S                   0000000140000000     vcruntimed:VCRUNTIME140D.dll
 0000:fffbf000       .debug$S                   0000000140000000     vcruntimed:VCRUNTIME140D.dll
 0000:fffbf000       .debug$S                   0000000140000000     vcruntimed:VCRUNTIME140D.dll
 0000:fffbf000       .debug$S                   0000000140000000     vcruntimed:VCRUNTIME140D.dll
 0000:fffbf000       .debug$S                   0000000140000000     vcruntimed:VCRUNTIME140D.dll
 0000:fffbf000       .debug$S                   0000000140000000     vcruntimed:VCRUNTIME140D.dll
 0000:fffbf000       .debug$S                   0000000140000000     vcruntimed:VCRUNTIME140D.dll
 0000:fffbf000       .debug$S                   0000000140000000     vcruntimed:VCRUNTIME140D.dll
 0000:fffbf000       .debug$S                   0000000140000000     vcruntimed:VCRUNTIME140D.dll
 0000:fffbf000       .debug$S                   0000000140000000     vcruntimed:VCRUNTIME140D.dll
 0000:fffbf000       .debug$S                   0000000140000000     vcruntimed:VCRUNTIME140D.dll
 0000:fffbf000       .debug$S                   0000000140000000     vcruntimed:VCRUNTIME140D.dll
 0000:fffbf000       .debug$S                   0000000140000000     vcruntimed:VCRUNTIME140D.dll
 0000:fffbf000       .debug$S                   0000000140000000     vcruntimed:VCRUNTIME140_1D.dll
 0000:fffbf000       .debug$S                   0000000140000000     ucrtd:ucrtbased.dll
 0000:fffbf000       .debug$S                   0000000140000000     ucrtd:ucrtbased.dll
 0000:fffbf000       .debug$S                   0000000140000000     ucrtd:ucrtbased.dll
 0000:fffbf000       .debug$S                   0000000140000000     ucrtd:ucrtbased.dll
 0000:fffbf000       .debug$S                   0000000140000000     ucrtd:ucrtbased.dll
 0000:fffbf000       .debug$S                   0000000140000000     ucrtd:ucrtbased.dll
 0000:fffbf000       .debug$S                   0000000140000000     ucrtd:ucrtbased.dll
 0000:fffbf000       .debug$S                   0000000140000000     ucrtd:ucrtbased.dll
 0000:fffbf000       .debug$S                   0000000140000000     ucrtd:ucrtbased.dll
 0000:fffbf000       .debug$S                   0000000140000000     ucrtd:ucrtbased.dll
 0000:fffbf000       .debug$S                   0000000140000000     ucrtd:ucrtbased.dll
 0000:fffbf000       .debug$S                   0000000140000000     ucrtd:ucrtbased.dll
 0000:fffbf000       .debug$S                   0000000140000000     ucrtd:ucrtbased.dll
 0000:fffbf000       .debug$S                   0000000140000000     ucrtd:ucrtbased.dll
 0000:fffbf000       .debug$S                   0000000140000000     ucrtd:ucrtbased.dll
 0000:fffbf000       .debug$S                   0000000140000000     ucrtd:ucrtbased.dll
 0000:fffbf000       .debug$S                   0000000140000000     ucrtd:ucrtbased.dll
 0000:fffbf000       .debug$S                   0000000140000000     ucrtd:ucrtbased.dll
 0000:fffbf000       .debug$S                   0000000140000000     ucrtd:ucrtbased.dll
 0000:fffbf000       .debug$S                   0000000140000000     ucrtd:ucrtbased.dll
 0000:fffbf000       .debug$S                   0000000140000000     ucrtd:ucrtbased.dll
 0000:fffbf000       .debug$S                   0000000140000000     ucrtd:ucrtbased.dll
 0000:fffbf000       .debug$S                   0000000140000000     ucrtd:ucrtbased.dll
 0000:fffbf000       .debug$S                   0000000140000000     ucrtd:ucrtbased.dll
 0000:fffbf000       .debug$S                   0000000140000000     ucrtd:ucrtbased.dll
 0000:fffbf000       .debug$S                   0000000140000000     ucrtd:ucrtbased.dll
 0000:fffbf000       .debug$S                   0000000140000000     ucrtd:ucrtbased.dll
 0000:fffbf000       .debug$S                   0000000140000000     ucrtd:ucrtbased.dll
 0000:fffbf000       .debug$S                   0000000140000000     ucrtd:ucrtbased.dll
 0000:fffbf000       .debug$S                   0000000140000000     ucrtd:ucrtbased.dll
 0000:fffbf000       .debug$S                   0000000140000000     ucrtd:ucrtbased.dll
 0000:fffbf000       .debug$S                   0000000140000000     ucrtd:ucrtbased.dll
 0000:fffbf000       .debug$S                   0000000140000000     ucrtd:ucrtbased.dll
 0000:fffbf000       .debug$S                   0000000140000000     ucrtd:ucrtbased.dll
 0000:fffbf000       .debug$S                   0000000140000000     ucrtd:ucrtbased.dll
 0000:fffbf000       .debug$S                   0000000140000000     ucrtd:ucrtbased.dll
 0000:fffbf000       .debug$S                   0000000140000000     ucrtd:ucrtbased.dll
 0000:fffbf000       .debug$S                   0000000140000000     ucrtd:ucrtbased.dll
 0000:fffbf000       .debug$S                   0000000140000000     ucrtd:ucrtbased.dll
 0000:fffbf000       .debug$S                   0000000140000000     ucrtd:ucrtbased.dll
 0000:fffbf000       .debug$S                   0000000140000000     ucrtd:ucrtbased.dll
 0000:fffbf000       .debug$S                   0000000140000000     ucrtd:ucrtbased.dll
 0000:fffbf000       .debug$S                   0000000140000000     ucrtd:ucrtbased.dll
 0000:fffbf000       .debug$S                   0000000140000000     ucrtd:ucrtbased.dll
 0000:fffbf000       .debug$S                   0000000140000000     ucrtd:ucrtbased.dll
 0000:fffbf000       .debug$S                   0000000140000000     ucrtd:ucrtbased.dll
 0000:fffbf000       .debug$S                   0000000140000000     ucrtd:ucrtbased.dll
 0000:fffbf000       .debug$S                   0000000140000000     ucrtd:ucrtbased.dll
 0000:fffbf000       .debug$S                   0000000140000000     ucrtd:ucrtbased.dll
 0000:fffbf000       .debug$S                   0000000140000000     ucrtd:ucrtbased.dll
 0000:fffbf000       .debug$S                   0000000140000000     ucrtd:ucrtbased.dll
 0000:fffbf000       .debug$S                   0000000140000000     ucrtd:ucrtbased.dll
 0000:fffbf000       .debug$S                   0000000140000000     ucrtd:ucrtbased.dll
 0000:fffbf000       .debug$S                   0000000140000000     ucrtd:ucrtbased.dll
 0000:fffbf000       .debug$S                   0000000140000000     ucrtd:ucrtbased.dll
 0000:fffbf000       .debug$S                   0000000140000000     ucrtd:ucrtbased.dll
 0000:fffbf000       .debug$S                   0000000140000000     ucrtd:ucrtbased.dll
 0000:fffbf000       .debug$S                   0000000140000000     ucrtd:ucrtbased.dll
 0000:fffbf000       .debug$S                   0000000140000000     ucrtd:ucrtbased.dll
 0000:fffbf000       .debug$S                   0000000140000000     kernel32:KERNEL32.dll
 0000:fffbf000       .debug$S                   0000000140000000     kernel32:KERNEL32.dll
 0000:fffbf000       .debug$S                   0000000140000000     kernel32:KERNEL32.dll
 0000:fffbf000       .debug$S                   0000000140000000     kernel32:KERNEL32.dll
 0000:fffbf000       .debug$S                   0000000140000000     kernel32:KERNEL32.dll
 0000:fffbf000       .debug$S                   0000000140000000     kernel32:KERNEL32.dll
 0000:fffbf000       .debug$S                   0000000140000000     kernel32:KERNEL32.dll
 0000:fffbf000       .debug$S                   0000000140000000     kernel32:KERNEL32.dll
 0000:fffbf000       .debug$S                   0000000140000000     kernel32:KERNEL32.dll
 0000:fffbf000       .debug$S                   0000000140000000     kernel32:KERNEL32.dll
 0000:fffbf000       .debug$S                   0000000140000000     kernel32:KERNEL32.dll
 0000:fffbf000       .debug$S                   0000000140000000     kernel32:KERNEL32.dll
 0000:fffbf000       .debug$S                   0000000140000000     kernel32:KERNEL32.dll
 0000:fffbf000       .debug$S                   0000000140000000     kernel32:KERNEL32.dll
 0000:fffbf000       .debug$S                   0000000140000000     kernel32:KERNEL32.dll
 0000:fffbf000       .debug$S                   0000000140000000     kernel32:KERNEL32.dll
 0000:fffbf000       .debug$S                   0000000140000000     kernel32:KERNEL32.dll
 0000:fffbf000       .debug$S                   0000000140000000     kernel32:KERNEL32.dll
 0000:fffbf000       .debug$S                   0000000140000000     kernel32:KERNEL32.dll
 0000:fffbf000       .debug$S                   0000000140000000     kernel32:KERNEL32.dll
 0000:fffbf000       .debug$S                   0000000140000000     kernel32:KERNEL32.dll
 0000:fffbf000       .debug$S                   0000000140000000     kernel32:KERNEL32.dll
 0000:fffbf000       .debug$S                   0000000140000000     kernel32:KERNEL32.dll
 0000:fffbf000       .debug$S                   0000000140000000     kernel32:KERNEL32.dll
 0000:fffbf000       .debug$S                   0000000140000000     kernel32:KERNEL32.dll
 0000:fffbf000       .debug$S                   0000000140000000     kernel32:KERNEL32.dll
 0000:fffbf000       .debug$S                   0000000140000000     sfml-audio:sfml-audio-2.dll
 0000:fffbf000       .debug$S                   0000000140000000     sfml-audio:sfml-audio-2.dll
 0000:fffbf000       .debug$S                   0000000140000000     sfml-audio:sfml-audio-2.dll
 0000:fffbf000       .debug$S                   0000000140000000     sfml-audio:sfml-audio-2.dll
 0000:fffbf000       .debug$S                   0000000140000000     sfml-audio:sfml-audio-2.dll
 0000:fffbf000       .debug$S                   0000000140000000     sfml-audio:sfml-audio-2.dll
 0000:fffbf000       .debug$S                   0000000140000000     sfml-audio:sfml-audio-2.dll
 0000:fffbf000       .debug$S                   0000000140000000     sfml-audio:sfml-audio-2.dll
 0000:fffbf000       .debug$S                   0000000140000000     sfml-audio:sfml-audio-2.dll
 0000:fffbf000       .debug$S                   0000000140000000     sfml-audio:sfml-audio-2.dll
 0000:fffbf000       .debug$S                   0000000140000000     sfml-audio:sfml-audio-2.dll
 0000:fffbf000       .debug$S                   0000000140000000     sfml-graphics:sfml-graphics-2.dll
 0000:fffbf000       .debug$S                   0000000140000000     sfml-graphics:sfml-graphics-2.dll
 0000:fffbf000       .debug$S                   0000000140000000     sfml-graphics:sfml-graphics-2.dll
 0000:fffbf000       .debug$S                   0000000140000000     sfml-graphics:sfml-graphics-2.dll
 0000:fffbf000       .debug$S                   0000000140000000     sfml-graphics:sfml-graphics-2.dll
 0000:fffbf000       .debug$S                   0000000140000000     sfml-graphics:sfml-graphics-2.dll
 0000:fffbf000       .debug$S                   0000000140000000     sfml-graphics:sfml-graphics-2.dll
 0000:fffbf000       .debug$S                   0000000140000000     sfml-graphics:sfml-graphics-2.dll
 0000:fffbf000       .debug$S                   0000000140000000     sfml-graphics:sfml-graphics-2.dll
 0000:fffbf000       .debug$S                   0000000140000000     sfml-graphics:sfml-graphics-2.dll
 0000:fffbf000       .debug$S                   0000000140000000     sfml-graphics:sfml-graphics-2.dll
 0000:fffbf000       .debug$S                   0000000140000000     sfml-graphics:sfml-graphics-2.dll
 0000:fffbf000       .debug$S                   0000000140000000     sfml-graphics:sfml-graphics-2.dll
 0000:fffbf000       .debug$S                   0000000140000000     sfml-graphics:sfml-graphics-2.dll
 0000:fffbf000       .debug$S                   0000000140000000     sfml-graphics:sfml-graphics-2.dll
 0000:fffbf000       .debug$S                   0000000140000000     sfml-graphics:sfml-graphics-2.dll
 0000:fffbf000       .debug$S                   0000000140000000     sfml-graphics:sfml-graphics-2.dll
 0000:fffbf000       .debug$S                   0000000140000000     sfml-graphics:sfml-graphics-2.dll
 0000:fffbf000       .debug$S                   0000000140000000     sfml-graphics:sfml-graphics-2.dll
 0000:fffbf000       .debug$S                   0000000140000000     sfml-graphics:sfml-graphics-2.dll
 0000:fffbf000       .debug$S                   0000000140000000     sfml-graphics:sfml-graphics-2.dll
 0000:fffbf000       .debug$S                   0000000140000000     sfml-graphics:sfml-graphics-2.dll
 0000:fffbf000       .debug$S                   0000000140000000     sfml-graphics:sfml-graphics-2.dll
 0000:fffbf000       .debug$S                   0000000140000000     sfml-graphics:sfml-graphics-2.dll
 0000:fffbf000       .debug$S                   0000000140000000     sfml-graphics:sfml-graphics-2.dll
 0000:fffbf000       .debug$S                   0000000140000000     sfml-graphics:sfml-graphics-2.dll
 0000:fffbf000       .debug$S                   0000000140000000     sfml-graphics:sfml-graphics-2.dll
 0000:fffbf000       .debug$S                   0000000140000000     sfml-graphics:sfml-graphics-2.dll
 0000:fffbf000       .debug$S                   0000000140000000     sfml-graphics:sfml-graphics-2.dll
 0000:fffbf000       .debug$S                   0000000140000000     sfml-graphics:sfml-graphics-2.dll
 0000:fffbf000       .debug$S                   0000000140000000     sfml-graphics:sfml-graphics-2.dll
 0000:fffbf000       .debug$S                   0000000140000000     sfml-graphics:sfml-graphics-2.dll
 0000:fffbf000       .debug$S                   0000000140000000     sfml-graphics:sfml-graphics-2.dll
 0000:fffbf000       .debug$S                   0000000140000000     sfml-graphics:sfml-graphics-2.dll
 0000:fffbf000       .debug$S                   0000000140000000     sfml-graphics:sfml-graphics-2.dll
 0000:fffbf000       .debug$S                   0000000140000000     sfml-graphics:sfml-graphics-2.dll
 0000:fffbf000       .debug$S                   0000000140000000     sfml-graphics:sfml-graphics-2.dll
 0000:fffbf000       .debug$S                   0000000140000000     sfml-graphics:sfml-graphics-2.dll
 0000:fffbf000       .debug$S                   0000000140000000     sfml-graphics:sfml-graphics-2.dll
 0000:fffbf000       .debug$S                   0000000140000000     sfml-graphics:sfml-graphics-2.dll
 0000:fffbf000       .debug$S                   0000000140000000     sfml-graphics:sfml-graphics-2.dll
 0000:fffbf000       .debug$S                   0000000140000000     sfml-graphics:sfml-graphics-2.dll
 0000:fffbf000       .debug$S                   0000000140000000     sfml-graphics:sfml-graphics-2.dll
 0000:fffbf000       .debug$S                   0000000140000000     sfml-graphics:sfml-graphics-2.dll
 0000:fffbf000       .debug$S                   0000000140000000     sfml-graphics:sfml-graphics-2.dll
 0000:fffbf000       .debug$S                   0000000140000000     sfml-graphics:sfml-graphics-2.dll
 0000:fffbf000       .debug$S                   0000000140000000     sfml-graphics:sfml-graphics-2.dll
 0000:fffbf000       .debug$S                   0000000140000000     sfml-graphics:sfml-graphics-2.dll
 0000:fffbf000       .debug$S                   0000000140000000     sfml-graphics:sfml-graphics-2.dll
 0000:fffbf000       .debug$S                   0000000140000000     sfml-graphics:sfml-graphics-2.dll
 0000:fffbf000       .debug$S                   0000000140000000     sfml-graphics:sfml-graphics-2.dll
 0000:fffbf000       .debug$S                   0000000140000000     sfml-graphics:sfml-graphics-2.dll
 0000:fffbf000       .debug$S                   0000000140000000     sfml-graphics:sfml-graphics-2.dll
 0000:fffbf000       .debug$S                   0000000140000000     sfml-graphics:sfml-graphics-2.dll
 0000:fffbf000       .debug$S                   0000000140000000     sfml-system:sfml-system-2.dll
 0000:fffbf000       .debug$S                   0000000140000000     sfml-system:sfml-system-2.dll
 0000:fffbf000       .debug$S                   0000000140000000     sfml-system:sfml-system-2.dll
 0000:fffbf000       .debug$S                   0000000140000000     sfml-system:sfml-system-2.dll
 0000:fffbf000       .debug$S                   0000000140000000     sfml-system:sfml-system-2.dll
 0000:fffbf000       .debug$S                   0000000140000000     sfml-system:sfml-system-2.dll
 0000:fffbf000       .debug$S                   0000000140000000     sfml-system:sfml-system-2.dll
 0000:fffbf000       .debug$S                   0000000140000000     sfml-system:sfml-system-2.dll
 0000:fffbf000       .debug$S                   0000000140000000     sfml-window:sfml-window-2.dll
 0000:fffbf000       .debug$S                   0000000140000000     sfml-window:sfml-window-2.dll
 0000:fffbf000       .debug$S                   0000000140000000     sfml-window:sfml-window-2.dll
 0000:fffbf000       .debug$S                   0000000140000000     sfml-window:sfml-window-2.dll
 0000:fffbf000       .debug$S                   0000000140000000     sfml-window:sfml-window-2.dll
 0000:fffbf000       .debug$S                   0000000140000000     sfml-window:sfml-window-2.dll
 0000:fffbf000       .debug$S                   0000000140000000     sfml-window:sfml-window-2.dll
 0000:fffbf000       .debug$S                   0000000140000000     sfml-window:sfml-window-2.dll
 0000:fffbf000       .debug$S                   0000000140000000     sfml-window:sfml-window-2.dll
 0001:00000000       ??__F_Fac_tidy_reg@std@@YAXXZ 0000000140001000 f   msvcprtd:locale0_implib.obj
 0001:00003a60       ??$?0$$V@?$_Compressed_pair@V?$allocator@UNameWithScore@?1??updateAndSaveScore@Game@@QEAAXXZ@@std@@V?$_Vector_val@U?$_Simple_types@UNameWithScore@?1??updateAndSaveScore@Game@@QEAAXXZ@@std@@@2@$00@std@@QEAA@U_Zero_then_variadic_args_t@1@@Z 0000000140004a60 f   Game.obj
 0001:00003ab0       ??$?0AEAPEAUNameWithScore@?1??updateAndSaveScore@Game@@QEAAXXZ@AEAPEAU0?1??12@QEAAXXZ@$0A@@?$pair@PEAUNameWithScore@?1??updateAndSaveScore@Game@@QEAAXXZ@PEAU1?1??23@QEAAXXZ@@std@@QEAA@AEAPEAUNameWithScore@?1??updateAndSaveScore@Game@@QEAAXXZ@0@Z 0000000140004ab0 f   Game.obj
 0001:00004000       ??$?0UNameWithScore@?1??updateAndSaveScore@Game@@QEAAXXZ@@?$allocator@U_Container_proxy@std@@@std@@QEAA@AEBV?$allocator@UNameWithScore@?1??updateAndSaveScore@Game@@QEAAXXZ@@1@@Z 0000000140005000 f   Game.obj
 0001:00004a30       ??$_Adl_verify_range@V?$_Vector_iterator@V?$_Vector_val@U?$_Simple_types@UNameWithScore@?1??updateAndSaveScore@Game@@QEAAXXZ@@std@@@std@@@std@@V12@@std@@YAXAEBV?$_Vector_iterator@V?$_Vector_val@U?$_Simple_types@UNameWithScore@?1??updateAndSaveScore@Game@@QEAAXXZ@@std@@@std@@@0@0@Z 0000000140005a30 f   Game.obj
 0001:00004d30       ??$_Debug_lt_pred@AEAV<lambda_7f61bf8b8214578533bd69dcbefb5615>@@AEAUNameWithScore@?1??updateAndSaveScore@Game@@QEAAXXZ@AEAU2?1??34@QEAAXXZ@$0A@@std@@YA_NAEAV<lambda_7f61bf8b8214578533bd69dcbefb5615>@@AEAUNameWithScore@?1??updateAndSaveScore@Game@@QEAAXXZ@1@Z 0000000140005d30 f   Game.obj
 0001:00005080       ??$_Destroy_range@V?$allocator@UNameWithScore@?1??updateAndSaveScore@Game@@QEAAXXZ@@std@@@std@@YAXPEAUNameWithScore@?1??updateAndSaveScore@Game@@QEAAXXZ@QEAU1?1??23@QEAAXXZ@AEAV?$allocator@UNameWithScore@?1??updateAndSaveScore@Game@@QEAAXXZ@@0@@Z 0000000140006080 f   Game.obj
 0001:00005260       ??$_Emplace_back@UNameWithScore@?1??updateAndSaveScore@Game@@QEAAXXZ@@?$_Uninitialized_backout_al@V?$allocator@UNameWithScore@?1??updateAndSaveScore@Game@@QEAAXXZ@@std@@@std@@QEAAX$$QEAUNameWithScore@?1??updateAndSaveScore@Game@@QEAAXXZ@@Z 0000000140006260 f   Game.obj
 0001:00005410       ??$_Emplace_back_with_unused_capacity@AEBUNameWithScore@?1??updateAndSaveScore@Game@@QEAAXXZ@@?$vector@UNameWithScore@?1??updateAndSaveScore@Game@@QEAAXXZ@V?$allocator@UNameWithScore@?1??updateAndSaveScore@Game@@QEAAXXZ@@std@@@std@@AEAAXAEBUNameWithScore@?1??updateAndSaveScore@Game@@QEAAXXZ@@Z 0000000140006410 f   Game.obj
 0001:00005b60       ??$_Emplace_reallocate@AEBUNameWithScore@?1??updateAndSaveScore@Game@@QEAAXXZ@@?$vector@UNameWithScore@?1??updateAndSaveScore@Game@@QEAAXXZ@V?$allocator@UNameWithScore@?1??updateAndSaveScore@Game@@QEAAXXZ@@std@@@std@@QEAAPEAUNameWithScore@?1??updateAndSaveScore@Game@@QEAAXXZ@QEAU2?1??34@QEAAXXZ@AEBU2?1??34@QEAAXXZ@@Z 0000000140006b60 f   Game.obj
 0001:00006ae0       ??$_Get_unwrapped@AEBQEAUNameWithScore@?1??updateAndSaveScore@Game@@QEAAXXZ@@std@@YAPEAUNameWithScore@?1??updateAndSaveScore@Game@@QEAAXXZ@AEBQEAU1?1??23@QEAAXXZ@@Z 0000000140007ae0 f   Game.obj
 0001:00006b20       ??$_Get_unwrapped@AEBV?$_Vector_iterator@V?$_Vector_val@U?$_Simple_types@UNameWithScore@?1??updateAndSaveScore@Game@@QEAAXXZ@@std@@@std@@@std@@@std@@YAPEAUNameWithScore@?1??updateAndSaveScore@Game@@QEAAXXZ@AEBV?$_Vector_iterator@V?$_Vector_val@U?$_Simple_types@UNameWithScore@?1??updateAndSaveScore@Game@@QEAAXXZ@@std@@@std@@@0@@Z 0000000140007b20 f   Game.obj
 0001:00006b60       ??$_Guess_median_unchecked@PEAUNameWithScore@?1??updateAndSaveScore@Game@@QEAAXXZ@V<lambda_7f61bf8b8214578533bd69dcbefb5615>@@@std@@YAXPEAUNameWithScore@?1??updateAndSaveScore@Game@@QEAAXXZ@00V<lambda_7f61bf8b8214578533bd69dcbefb5615>@@@Z 0000000140007b60 f   Game.obj
 0001:00007100       ??$_Insertion_sort_unchecked@PEAUNameWithScore@?1??updateAndSaveScore@Game@@QEAAXXZ@V<lambda_7f61bf8b8214578533bd69dcbefb5615>@@@std@@YAPEAUNameWithScore@?1??updateAndSaveScore@Game@@QEAAXXZ@QEAU1?1??23@QEAAXXZ@0V<lambda_7f61bf8b8214578533bd69dcbefb5615>@@@Z 0000000140008100 f   Game.obj
 0001:000074d0       ??$_Make_heap_unchecked@PEAUNameWithScore@?1??updateAndSaveScore@Game@@QEAAXXZ@V<lambda_7f61bf8b8214578533bd69dcbefb5615>@@@std@@YAXPEAUNameWithScore@?1??updateAndSaveScore@Game@@QEAAXXZ@0V<lambda_7f61bf8b8214578533bd69dcbefb5615>@@@Z 00000001400084d0 f   Game.obj
 0001:00007600       ??$_Med3_unchecked@PEAUNameWithScore@?1??updateAndSaveScore@Game@@QEAAXXZ@V<lambda_7f61bf8b8214578533bd69dcbefb5615>@@@std@@YAXPEAUNameWithScore@?1??updateAndSaveScore@Game@@QEAAXXZ@00V<lambda_7f61bf8b8214578533bd69dcbefb5615>@@@Z 0000000140008600 f   Game.obj
 0001:000076c0       ??$_Move_backward_unchecked@PEAUNameWithScore@?1??updateAndSaveScore@Game@@QEAAXXZ@PEAU1?1??23@QEAAXXZ@@std@@YAPEAUNameWithScore@?1??updateAndSaveScore@Game@@QEAAXXZ@PEAU1?1??23@QEAAXXZ@00@Z 00000001400086c0 f   Game.obj
 0001:000077e0       ??$_Next_iter@PEAUNameWithScore@?1??updateAndSaveScore@Game@@QEAAXXZ@@std@@YAPEAUNameWithScore@?1??updateAndSaveScore@Game@@QEAAXXZ@PEAU1?1??23@QEAAXXZ@@Z 00000001400087e0 f   Game.obj
 0001:00007830       ??$_Partition_by_median_guess_unchecked@PEAUNameWithScore@?1??updateAndSaveScore@Game@@QEAAXXZ@V<lambda_7f61bf8b8214578533bd69dcbefb5615>@@@std@@YA?AU?$pair@PEAUNameWithScore@?1??updateAndSaveScore@Game@@QEAAXXZ@PEAU1?1??23@QEAAXXZ@@0@PEAUNameWithScore@?1??updateAndSaveScore@Game@@QEAAXXZ@0V<lambda_7f61bf8b8214578533bd69dcbefb5615>@@@Z 0000000140008830 f   Game.obj
 0001:00007e70       ??$_Pass_fn@V<lambda_7f61bf8b8214578533bd69dcbefb5615>@@$0A@@std@@YA?AV<lambda_7f61bf8b8214578533bd69dcbefb5615>@@V1@@Z 0000000140008e70 f   Game.obj
 0001:00007f30       ??$_Pop_heap_hole_by_index@PEAUNameWithScore@?1??updateAndSaveScore@Game@@QEAAXXZ@U1?1??23@QEAAXXZ@V<lambda_7f61bf8b8214578533bd69dcbefb5615>@@@std@@YAXPEAUNameWithScore@?1??updateAndSaveScore@Game@@QEAAXXZ@_J1$$QEAU1?1??23@QEAAXXZ@V<lambda_7f61bf8b8214578533bd69dcbefb5615>@@@Z 0000000140008f30 f   Game.obj
 0001:000080e0       ??$_Pop_heap_hole_unchecked@PEAUNameWithScore@?1??updateAndSaveScore@Game@@QEAAXXZ@U1?1??23@QEAAXXZ@V<lambda_7f61bf8b8214578533bd69dcbefb5615>@@@std@@YAXPEAUNameWithScore@?1??updateAndSaveScore@Game@@QEAAXXZ@00$$QEAU1?1??23@QEAAXXZ@V<lambda_7f61bf8b8214578533bd69dcbefb5615>@@@Z 00000001400090e0 f   Game.obj
 0001:00008190       ??$_Pop_heap_unchecked@PEAUNameWithScore@?1??updateAndSaveScore@Game@@QEAAXXZ@V<lambda_7f61bf8b8214578533bd69dcbefb5615>@@@std@@YAXPEAUNameWithScore@?1??updateAndSaveScore@Game@@QEAAXXZ@0V<lambda_7f61bf8b8214578533bd69dcbefb5615>@@@Z 0000000140009190 f   Game.obj
 0001:000082a0       ??$_Prev_iter@PEAUNameWithScore@?1??updateAndSaveScore@Game@@QEAAXXZ@@std@@YAPEAUNameWithScore@?1??updateAndSaveScore@Game@@QEAAXXZ@PEAU1?1??23@QEAAXXZ@@Z 00000001400092a0 f   Game.obj
 0001:000082f0       ??$_Push_heap_by_index@PEAUNameWithScore@?1??updateAndSaveScore@Game@@QEAAXXZ@U1?1??23@QEAAXXZ@V<lambda_7f61bf8b8214578533bd69dcbefb5615>@@@std@@YAXPEAUNameWithScore@?1??updateAndSaveScore@Game@@QEAAXXZ@_J1$$QEAU1?1??23@QEAAXXZ@V<lambda_7f61bf8b8214578533bd69dcbefb5615>@@@Z 00000001400092f0 f   Game.obj
 0001:00008870       ??$_Sort_heap_unchecked@PEAUNameWithScore@?1??updateAndSaveScore@Game@@QEAAXXZ@V<lambda_7f61bf8b8214578533bd69dcbefb5615>@@@std@@YAXPEAUNameWithScore@?1??updateAndSaveScore@Game@@QEAAXXZ@0V<lambda_7f61bf8b8214578533bd69dcbefb5615>@@@Z 0000000140009870 f   Game.obj
 0001:00008900       ??$_Sort_unchecked@PEAUNameWithScore@?1??updateAndSaveScore@Game@@QEAAXXZ@V<lambda_7f61bf8b8214578533bd69dcbefb5615>@@@std@@YAXPEAUNameWithScore@?1??updateAndSaveScore@Game@@QEAAXXZ@0_JV<lambda_7f61bf8b8214578533bd69dcbefb5615>@@@Z 0000000140009900 f   Game.obj
 0001:00008ea0       ??$_Unfancy@UNameWithScore@?1??updateAndSaveScore@Game@@QEAAXXZ@@std@@YAPEAUNameWithScore@?1??updateAndSaveScore@Game@@QEAAXXZ@PEAU1?1??23@QEAAXXZ@@Z 0000000140009ea0 f   Game.obj
 0001:00008ea0       ??$addressof@V?$_Vector_val@U?$_Simple_types@UNameWithScore@?1??updateAndSaveScore@Game@@QEAAXXZ@@std@@@std@@@std@@YAPEAV?$_Vector_val@U?$_Simple_types@UNameWithScore@?1??updateAndSaveScore@Game@@QEAAXXZ@@std@@@0@AEAV10@@Z 0000000140009ea0 f   Game.obj
 0001:00009110       ??$_Uninitialized_move@PEAUNameWithScore@?1??updateAndSaveScore@Game@@QEAAXXZ@V?$allocator@UNameWithScore@?1??updateAndSaveScore@Game@@QEAAXXZ@@std@@@std@@YAPEAUNameWithScore@?1??updateAndSaveScore@Game@@QEAAXXZ@QEAU1?1??23@QEAAXXZ@0PEAU1?1??23@QEAAXXZ@AEAV?$allocator@UNameWithScore@?1??updateAndSaveScore@Game@@QEAAXXZ@@0@@Z 000000014000a110 f   Game.obj
 0001:00009670       ??$construct@UNameWithScore@?1??updateAndSaveScore@Game@@QEAAXXZ@AEBU1?1??23@QEAAXXZ@@?$_Default_allocator_traits@V?$allocator@UNameWithScore@?1??updateAndSaveScore@Game@@QEAAXXZ@@std@@@std@@SAXAEAV?$allocator@UNameWithScore@?1??updateAndSaveScore@Game@@QEAAXXZ@@1@QEAUNameWithScore@?1??updateAndSaveScore@Game@@QEAAXXZ@AEBU3?1??45@QEAAXXZ@@Z 000000014000a670 f   Game.obj
 0001:000096e0       ??$construct@UNameWithScore@?1??updateAndSaveScore@Game@@QEAAXXZ@U1?1??23@QEAAXXZ@@?$_Default_allocator_traits@V?$allocator@UNameWithScore@?1??updateAndSaveScore@Game@@QEAAXXZ@@std@@@std@@SAXAEAV?$allocator@UNameWithScore@?1??updateAndSaveScore@Game@@QEAAXXZ@@1@QEAUNameWithScore@?1??updateAndSaveScore@Game@@QEAAXXZ@$$QEAU3?1??45@QEAAXXZ@@Z 000000014000a6e0 f   Game.obj
 0001:00009960       ??$destroy@UNameWithScore@?1??updateAndSaveScore@Game@@QEAAXXZ@@?$_Default_allocator_traits@V?$allocator@UNameWithScore@?1??updateAndSaveScore@Game@@QEAAXXZ@@std@@@std@@SAXAEAV?$allocator@UNameWithScore@?1??updateAndSaveScore@Game@@QEAAXXZ@@1@QEAUNameWithScore@?1??updateAndSaveScore@Game@@QEAAXXZ@@Z 000000014000a960 f   Game.obj
 0001:00009a50       ??$emplace_back@AEBUNameWithScore@?1??updateAndSaveScore@Game@@QEAAXXZ@@?$vector@UNameWithScore@?1??updateAndSaveScore@Game@@QEAAXXZ@V?$allocator@UNameWithScore@?1??updateAndSaveScore@Game@@QEAAXXZ@@std@@@std@@QEAAXAEBUNameWithScore@?1??updateAndSaveScore@Game@@QEAAXXZ@@Z 000000014000aa50 f   Game.obj
 0001:0000a140       ??$forward@AEAPEAUNameWithScore@?1??updateAndSaveScore@Game@@QEAAXXZ@@std@@YAAEAPEAUNameWithScore@?1??updateAndSaveScore@Game@@QEAAXXZ@AEAPEAU1?1??23@QEAAXXZ@@Z 000000014000b140 f   Game.obj
 0001:0000a140       ??$forward@AEBUNameWithScore@?1??updateAndSaveScore@Game@@QEAAXXZ@@std@@YAAEBUNameWithScore@?1??updateAndSaveScore@Game@@QEAAXXZ@AEBU1?1??23@QEAAXXZ@@Z 000000014000b140 f   Game.obj
 0001:0000a140       ??$forward@UNameWithScore@?1??updateAndSaveScore@Game@@QEAAXXZ@@std@@YA$$QEAUNameWithScore@?1??updateAndSaveScore@Game@@QEAAXXZ@AEAU1?1??23@QEAAXXZ@@Z 000000014000b140 f   Game.obj
 0001:0000a140       ??$move@AEAUNameWithScore@?1??updateAndSaveScore@Game@@QEAAXXZ@@std@@YA$$QEAUNameWithScore@?1??updateAndSaveScore@Game@@QEAAXXZ@AEAU1?1??23@QEAAXXZ@@Z 000000014000b140 f   Game.obj
 0001:0000a260       ??$iter_swap@PEAUNameWithScore@?1??updateAndSaveScore@Game@@QEAAXXZ@PEAU1?1??23@QEAAXXZ@@std@@YAXPEAUNameWithScore@?1??updateAndSaveScore@Game@@QEAAXXZ@0@Z 000000014000b260 f   Game.obj
 0001:0000a400       ??$sort@V?$_Vector_iterator@V?$_Vector_val@U?$_Simple_types@UNameWithScore@?1??updateAndSaveScore@Game@@QEAAXXZ@@std@@@std@@@std@@V<lambda_7f61bf8b8214578533bd69dcbefb5615>@@@std@@YAXV?$_Vector_iterator@V?$_Vector_val@U?$_Simple_types@UNameWithScore@?1??updateAndSaveScore@Game@@QEAAXXZ@@std@@@std@@@0@0V<lambda_7f61bf8b8214578533bd69dcbefb5615>@@@Z 000000014000b400 f   Game.obj
 0001:0000a4d0       ??$swap@UNameWithScore@?1??updateAndSaveScore@Game@@QEAAXXZ@$0A@@std@@YAXAEAUNameWithScore@?1??updateAndSaveScore@Game@@QEAAXXZ@0@Z 000000014000b4d0 f   Game.obj
 0001:0000ac40       ??0?$_Uninitialized_backout_al@V?$allocator@UNameWithScore@?1??updateAndSaveScore@Game@@QEAAXXZ@@std@@@std@@QEAA@PEAUNameWithScore@?1??updateAndSaveScore@Game@@QEAAXXZ@AEAV?$allocator@UNameWithScore@?1??updateAndSaveScore@Game@@QEAAXXZ@@1@@Z 000000014000bc40 f   Game.obj
 0001:0000ade0       ??0?$_Vector_const_iterator@V?$_Vector_val@U?$_Simple_types@UNameWithScore@?1??updateAndSaveScore@Game@@QEAAXXZ@@std@@@std@@@std@@QEAA@PEAUNameWithScore@?1??updateAndSaveScore@Game@@QEAAXXZ@PEBU_Container_base12@1@@Z 000000014000bde0 f   Game.obj
 0001:0000aee0       ??0?$_Vector_iterator@V?$_Vector_val@U?$_Simple_types@UNameWithScore@?1??updateAndSaveScore@Game@@QEAAXXZ@@std@@@std@@@std@@QEAA@PEAUNameWithScore@?1??updateAndSaveScore@Game@@QEAAXXZ@PEBU_Container_base12@1@@Z 000000014000bee0 f   Game.obj
 0001:0000afa0       ??0?$_Vector_val@U?$_Simple_types@UNameWithScore@?1??updateAndSaveScore@Game@@QEAAXXZ@@std@@@std@@QEAA@XZ 000000014000bfa0 f   Game.obj
 0001:0000b050       ??0?$allocator@UNameWithScore@?1??updateAndSaveScore@Game@@QEAAXXZ@@std@@QEAA@XZ 000000014000c050 f   Game.obj
 0001:0000b050       ?_Get_first@?$_Compressed_pair@V?$allocator@UNameWithScore@?1??updateAndSaveScore@Game@@QEAAXXZ@@std@@V?$_Vector_val@U?$_Simple_types@UNameWithScore@?1??updateAndSaveScore@Game@@QEAAXXZ@@std@@@2@$00@std@@QEAAAEAV?$allocator@UNameWithScore@?1??updateAndSaveScore@Game@@QEAAXXZ@@2@XZ 000000014000c050 f   Game.obj
 0001:0000b050       ?_Get_first@?$_Compressed_pair@V?$allocator@UNameWithScore@?1??updateAndSaveScore@Game@@QEAAXXZ@@std@@V?$_Vector_val@U?$_Simple_types@UNameWithScore@?1??updateAndSaveScore@Game@@QEAAXXZ@@std@@@2@$00@std@@QEBAAEBV?$allocator@UNameWithScore@?1??updateAndSaveScore@Game@@QEAAXXZ@@2@XZ 000000014000c050 f   Game.obj
 0001:0000c2e0       ??0?$vector@UNameWithScore@?1??updateAndSaveScore@Game@@QEAAXXZ@V?$allocator@UNameWithScore@?1??updateAndSaveScore@Game@@QEAAXXZ@@std@@@std@@QEAA@XZ 000000014000d2e0 f   Game.obj
 0001:0000ce40       ??0NameWithScore@?1??updateAndSaveScore@Game@@QEAAXXZ@QEAA@$$QEAU0?1??12@QEAAXXZ@@Z 000000014000de40 f   Game.obj
 0001:0000ce90       ??0NameWithScore@?1??updateAndSaveScore@Game@@QEAAXXZ@QEAA@AEBU0?1??12@QEAAXXZ@@Z 000000014000de90 f   Game.obj
 0001:0000cee0       ??0NameWithScore@?1??updateAndSaveScore@Game@@QEAAXXZ@QEAA@XZ 000000014000dee0 f   Game.obj
 0001:0000d440       ??1?$_Uninitialized_backout_al@V?$allocator@UNameWithScore@?1??updateAndSaveScore@Game@@QEAAXXZ@@std@@@std@@QEAA@XZ 000000014000e440 f   Game.obj
 0001:0000d560       ??1?$_Vector_const_iterator@V?$_Vector_val@U?$_Simple_types@UNameWithScore@?1??updateAndSaveScore@Game@@QEAAXXZ@@std@@@std@@@std@@QEAA@XZ 000000014000e560 f   Game.obj
 0001:0000d5c0       ??1?$_Vector_iterator@V?$_Vector_val@U?$_Simple_types@UNameWithScore@?1??updateAndSaveScore@Game@@QEAAXXZ@@std@@@std@@@std@@QEAA@XZ 000000014000e5c0 f   Game.obj
 0001:0000ddd0       ??1?$vector@UNameWithScore@?1??updateAndSaveScore@Game@@QEAAXXZ@V?$allocator@UNameWithScore@?1??updateAndSaveScore@Game@@QEAAXXZ@@std@@@std@@QEAA@XZ 000000014000edd0 f   Game.obj
 0001:0000eb40       ??1NameWithScore@?1??updateAndSaveScore@Game@@QEAAXXZ@QEAA@XZ 000000014000fb40 f   Game.obj
 0001:0000ee40       ??4NameWithScore@?1??updateAndSaveScore@Game@@QEAAXXZ@QEAAAEAU0?1??12@QEAAXXZ@$$QEAU0?1??12@QEAAXXZ@@Z 000000014000fe40 f   Game.obj
 0001:0000fe90       ??R<lambda_7f61bf8b8214578533bd69dcbefb5615>@@QEBA_NUNameWithScore@?1??updateAndSaveScore@Game@@QEAAXXZ@0@Z 0000000140010e90 f   Game.obj
 0001:00010950       ??_GNameWithScore@?1??updateAndSaveScore@Game@@QEAAXXZ@QEAAPEAXI@Z 0000000140011950 f   Game.obj
 0001:000113b0       ?_Calculate_growth@?$vector@UNameWithScore@?1??updateAndSaveScore@Game@@QEAAXXZ@V?$allocator@UNameWithScore@?1??updateAndSaveScore@Game@@QEAAXXZ@@std@@@std@@AEBA_K_K@Z 00000001400123b0 f   Game.obj
 0001:00011710       ?_Change_array@?$vector@UNameWithScore@?1??updateAndSaveScore@Game@@QEAAXXZ@V?$allocator@UNameWithScore@?1??updateAndSaveScore@Game@@QEAAXXZ@@std@@@std@@AEAAXQEAUNameWithScore@?1??updateAndSaveScore@Game@@QEAAXXZ@_K1@Z 0000000140012710 f   Game.obj
 0001:00011ee0       ?_Destroy@?$vector@UNameWithScore@?1??updateAndSaveScore@Game@@QEAAXXZ@V?$allocator@UNameWithScore@?1??updateAndSaveScore@Game@@QEAAXXZ@@std@@@std@@AEAAXPEAUNameWithScore@?1??updateAndSaveScore@Game@@QEAAXXZ@0@Z 0000000140012ee0 f   Game.obj
 0001:00012440       ?_Getal@?$vector@UNameWithScore@?1??updateAndSaveScore@Game@@QEAAXXZ@V?$allocator@UNameWithScore@?1??updateAndSaveScore@Game@@QEAAXXZ@@std@@@std@@AEAAAEAV?$allocator@UNameWithScore@?1??updateAndSaveScore@Game@@QEAAXXZ@@2@XZ 0000000140013440 f   Game.obj
 0001:00012440       ?_Getal@?$vector@UNameWithScore@?1??updateAndSaveScore@Game@@QEAAXXZ@V?$allocator@UNameWithScore@?1??updateAndSaveScore@Game@@QEAAXXZ@@std@@@std@@AEBAAEBV?$allocator@UNameWithScore@?1??updateAndSaveScore@Game@@QEAAXXZ@@2@XZ 0000000140013440 f   Game.obj
 0001:00013660       ?_Orphan_range@?$vector@UNameWithScore@?1??updateAndSaveScore@Game@@QEAAXXZ@V?$allocator@UNameWithScore@?1??updateAndSaveScore@Game@@QEAAXXZ@@std@@@std@@AEBAXPEAUNameWithScore@?1??updateAndSaveScore@Game@@QEAAXXZ@0@Z 0000000140014660 f   Game.obj
 0001:000139b0       ?_Release@?$_Uninitialized_backout_al@V?$allocator@UNameWithScore@?1??updateAndSaveScore@Game@@QEAAXXZ@@std@@@std@@QEAAPEAUNameWithScore@?1??updateAndSaveScore@Game@@QEAAXXZ@XZ 00000001400149b0 f   Game.obj
 0001:00014190       ?_Tidy@?$vector@UNameWithScore@?1??updateAndSaveScore@Game@@QEAAXXZ@V?$allocator@UNameWithScore@?1??updateAndSaveScore@Game@@QEAAXXZ@@std@@@std@@AEAAXXZ 0000000140015190 f   Game.obj
 0001:000144f0       ?_Umove@?$vector@UNameWithScore@?1??updateAndSaveScore@Game@@QEAAXXZ@V?$allocator@UNameWithScore@?1??updateAndSaveScore@Game@@QEAAXXZ@@std@@@std@@AEAAPEAUNameWithScore@?1??updateAndSaveScore@Game@@QEAAXXZ@PEAU3?1??45@QEAAXXZ@00@Z 00000001400154f0 f   Game.obj
 0001:000144f0       ?_Umove_if_noexcept1@?$vector@UNameWithScore@?1??updateAndSaveScore@Game@@QEAAXXZ@V?$allocator@UNameWithScore@?1??updateAndSaveScore@Game@@QEAAXXZ@@std@@@std@@AEAAXPEAUNameWithScore@?1??updateAndSaveScore@Game@@QEAAXXZ@00U?$integral_constant@_N$00@2@@Z 00000001400154f0 f   Game.obj
 0001:00014690       ?_Umove_if_noexcept@?$vector@UNameWithScore@?1??updateAndSaveScore@Game@@QEAAXXZ@V?$allocator@UNameWithScore@?1??updateAndSaveScore@Game@@QEAAXXZ@@std@@@std@@AEAAXPEAUNameWithScore@?1??updateAndSaveScore@Game@@QEAAXXZ@00@Z 0000000140015690 f   Game.obj
 0001:000148b0       ?_Unchecked_begin@?$vector@UNameWithScore@?1??updateAndSaveScore@Game@@QEAAXXZ@V?$allocator@UNameWithScore@?1??updateAndSaveScore@Game@@QEAAXXZ@@std@@@std@@QEAAPEAUNameWithScore@?1??updateAndSaveScore@Game@@QEAAXXZ@XZ 00000001400158b0 f   Game.obj
 0001:00014980       ?_Unchecked_end@?$vector@UNameWithScore@?1??updateAndSaveScore@Game@@QEAAXXZ@V?$allocator@UNameWithScore@?1??updateAndSaveScore@Game@@QEAAXXZ@@std@@@std@@QEAAPEAUNameWithScore@?1??updateAndSaveScore@Game@@QEAAXXZ@XZ 0000000140015980 f   Game.obj
 0001:00014a20       ?_Unwrapped@?$_Vector_iterator@V?$_Vector_val@U?$_Simple_types@UNameWithScore@?1??updateAndSaveScore@Game@@QEAAXXZ@@std@@@std@@@std@@QEBAPEAUNameWithScore@?1??updateAndSaveScore@Game@@QEAAXXZ@XZ 0000000140015a20 f   Game.obj
 0001:00015720       ?_Verify_range@std@@YAXAEBV?$_Vector_const_iterator@V?$_Vector_val@U?$_Simple_types@UNameWithScore@?1??updateAndSaveScore@Game@@QEAAXXZ@@std@@@std@@@1@0@Z 0000000140016720 f   Game.obj
 0001:000158c0       ?_Xlength@?$vector@UNameWithScore@?1??updateAndSaveScore@Game@@QEAAXXZ@V?$allocator@UNameWithScore@?1??updateAndSaveScore@Game@@QEAAXXZ@@std@@@std@@CAXXZ 00000001400168c0 f   Game.obj
 0001:000159a0       ?__autoclassinit2@?$_Uninitialized_backout_al@V?$allocator@UNameWithScore@?1??updateAndSaveScore@Game@@QEAAXXZ@@std@@@std@@QEAAX_K@Z 00000001400169a0 f   Game.obj
 0001:000159a0       ?__autoclassinit2@?$vector@UNameWithScore@?1??updateAndSaveScore@Game@@QEAAXXZ@V?$allocator@UNameWithScore@?1??updateAndSaveScore@Game@@QEAAXXZ@@std@@@std@@QEAAX_K@Z 00000001400169a0 f   Game.obj
 0001:00015a60       ?allocate@?$allocator@UNameWithScore@?1??updateAndSaveScore@Game@@QEAAXXZ@@std@@QEAAPEAUNameWithScore@?1??updateAndSaveScore@Game@@QEAAXXZ@_K@Z 0000000140016a60 f   Game.obj
 0001:00015dc0       ?begin@?$vector@UNameWithScore@?1??updateAndSaveScore@Game@@QEAAXXZ@V?$allocator@UNameWithScore@?1??updateAndSaveScore@Game@@QEAAXXZ@@std@@@std@@QEAA?AV?$_Vector_iterator@V?$_Vector_val@U?$_Simple_types@UNameWithScore@?1??updateAndSaveScore@Game@@QEAAXXZ@@std@@@std@@@2@XZ 0000000140016dc0 f   Game.obj
 0001:00015ed0       ?capacity@?$vector@UNameWithScore@?1??updateAndSaveScore@Game@@QEAAXXZ@V?$allocator@UNameWithScore@?1??updateAndSaveScore@Game@@QEAAXXZ@@std@@@std@@QEBA_KXZ 0000000140016ed0 f   Game.obj
 0001:000164a0       ?deallocate@?$allocator@UNameWithScore@?1??updateAndSaveScore@Game@@QEAAXXZ@@std@@QEAAXQEAUNameWithScore@?1??updateAndSaveScore@Game@@QEAAXXZ@_K@Z 00000001400174a0 f   Game.obj
 0001:00016590       ?end@?$vector@UNameWithScore@?1??updateAndSaveScore@Game@@QEAAXXZ@V?$allocator@UNameWithScore@?1??updateAndSaveScore@Game@@QEAAXXZ@@std@@@std@@QEAA?AV?$_Vector_iterator@V?$_Vector_val@U?$_Simple_types@UNameWithScore@?1??updateAndSaveScore@Game@@QEAAXXZ@@std@@@std@@@2@XZ 0000000140017590 f   Game.obj
 0001:00019ec0       ?max_size@?$_Default_allocator_traits@V?$allocator@UNameWithScore@?1??updateAndSaveScore@Game@@QEAAXXZ@@std@@@std@@SA_KAEBV?$allocator@UNameWithScore@?1??updateAndSaveScore@Game@@QEAAXXZ@@2@@Z 000000014001aec0 f   Game.obj
 0001:0001a060       ?max_size@?$vector@UNameWithScore@?1??updateAndSaveScore@Game@@QEAAXXZ@V?$allocator@UNameWithScore@?1??updateAndSaveScore@Game@@QEAAXXZ@@std@@@std@@QEBA_KXZ 000000014001b060 f   Game.obj
 0001:0001b150       ?push_back@?$vector@UNameWithScore@?1??updateAndSaveScore@Game@@QEAAXXZ@V?$allocator@UNameWithScore@?1??updateAndSaveScore@Game@@QEAAXXZ@@std@@@std@@QEAAXAEBUNameWithScore@?1??updateAndSaveScore@Game@@QEAAXXZ@@Z 000000014001c150 f   Game.obj
 0001:00025550       time                       0000000140026550 f   tryTry.obj
 0001:00025bc0       $$000000                   0000000140026bc0     MSVCRTD:amdsecgs.obj
 0001:00025dd0       ?ArrayUnwindFilter@@YAHPEAU_EXCEPTION_POINTERS@@@Z 0000000140026dd0 f   MSVCRTD:ehvecdtr.obj
 0001:00025ec0       $$000000                   0000000140026ec0     MSVCRTD:chkstk.obj
 0001:00025f30       ?pre_c_initialization@@YAHXZ 0000000140026f30 f   MSVCRTD:exe_main.obj
 0001:00025ff0       ?post_pgo_initialization@@YAHXZ 0000000140026ff0 f   MSVCRTD:exe_main.obj
 0001:00026000       ?pre_cpp_initialization@@YAXXZ 0000000140027000 f   MSVCRTD:exe_main.obj
 0001:00026020       ?__scrt_common_main@@YAHXZ 0000000140027020 f   MSVCRTD:exe_main.obj
 0001:00026040       ?__scrt_common_main_seh@@YAHXZ 0000000140027040 f   MSVCRTD:exe_main.obj
 0001:00026210       ?invoke_main@@YAHXZ        0000000140027210 f   MSVCRTD:exe_main.obj
 0001:000262c0       ?find_pe_section@@YAPEAU_IMAGE_SECTION_HEADER@@QEAE_K@Z 00000001400272c0 f   MSVCRTD:utility.obj
 0001:00026390       ?is_potentially_valid_image_base@@YA_NQEAX@Z 0000000140027390 f   MSVCRTD:utility.obj
 0001:00026890       ?DebuggerProbe@@YA_NK@Z    0000000140027890 f   MSVCRTD:error.obj
 0001:000268d0       ?DebuggerRuntime@@YA_NKHPEAXPEB_W@Z 00000001400278d0 f   MSVCRTD:error.obj
 0001:000269f0       ?_strlen_priv@@YA_KPEBD@Z  00000001400279f0 f   MSVCRTD:error.obj
 0001:00026a10       ?failwithmessage@@YAXPEAXHHPEBD@Z 0000000140027a10 f   MSVCRTD:error.obj
 0001:00026c70       ?notify_debugger@@YAXAEBUtagEXCEPTION_VISUALCPP_DEBUG_INFO@@@Z 0000000140027c70 f   MSVCRTD:error.obj
 0001:00026de0       capture_previous_context   0000000140027de0 f   MSVCRTD:gs_report.obj
 0001:00026ea0       __get_entropy              0000000140027ea0 f   MSVCRTD:gs_support.obj
 0001:000278b0       ?GetPdbDll@@YAPEAUHINSTANCE__@@XZ 00000001400288b0 f   MSVCRTD:pdblkup.obj
 0001:00027a00       ?GetPdbDllFromInstallPath@@YAPEAUHINSTANCE__@@XZ 0000000140028a00 f   MSVCRTD:pdblkup.obj
 0001:00027cb0       ?GetPdbDllPathFromFilePath@@YAHPEB_WPEA_W_K@Z 0000000140028cb0 f   MSVCRTD:pdblkup.obj
 0001:000282b0       $$000000                   00000001400292b0     MSVCRTD:guard_dispatch.obj
 0001:000282d0       $$000000                   00000001400292d0     MSVCRTD:guard_xfg_dispatch.obj
 0001:000282f0       ?dtor$0@?0???$?6U?$char_traits@D@std@@@std@@YAAEAV?$basic_ostream@DU?$char_traits@D@std@@@0@AEAV10@PEBD@Z@4HA 00000001400292f0 f   BlueEnemy.obj
 0001:00028320       ?catch$1@?0???$?6U?$char_traits@D@std@@@std@@YAAEAV?$basic_ostream@DU?$char_traits@D@std@@@0@AEAV10@PEBD@Z@4HA 0000000140029320 f   BlueEnemy.obj
 0001:00028333       __catch$??$?6U?$char_traits@D@std@@@std@@YAAEAV?$basic_ostream@DU?$char_traits@D@std@@@0@AEAV10@PEBD@Z$0 0000000140029333 f   BlueEnemy.obj
 0001:00028370       ?dtor$0@?0???0?$basic_string@DU?$char_traits@D@std@@V?$allocator@D@2@@std@@QEAA@QEBD@Z@4HA 0000000140029370 f   BlueEnemy.obj
 0001:00028370       ?dtor$0@?0???0?$basic_string@DU?$char_traits@D@std@@V?$allocator@D@2@@std@@QEAA@AEBV01@@Z@4HA 0000000140029370 f   Game.obj
 0001:000283a0       ?dtor$1@?0???0?$basic_string@DU?$char_traits@D@std@@V?$allocator@D@2@@std@@QEAA@QEBD@Z@4HA 00000001400293a0 f   BlueEnemy.obj
 0001:000283a0       ?dtor$0@?0??_Alloc_sentinel_and_proxy@?$_Tree@V?$_Tmap_traits@V?$basic_string@DU?$char_traits@D@std@@V?$allocator@D@2@@std@@PEAVTexture@sf@@U?$less@V?$basic_string@DU?$char_traits@D@std@@V?$allocator@D@2@@std@@@2@V?$allocator@U?$pair@$$CBV?$basic_string@DU?$char_traits@D@std@@V?$allocator@D@2@@std@@PEAVTexture@sf@@@std@@@2@$0A@@std@@@std@@IEAAXXZ@4HA 00000001400293a0 f   Game.obj
 0001:000283a0       ?dtor$1@?0???$?0PEAD$0A@@?$basic_string@DU?$char_traits@D@std@@V?$allocator@D@2@@std@@QEAA@PEAD0AEBV?$allocator@D@1@@Z@4HA 00000001400293a0 f   Game.obj
 0001:000283a0       ?dtor$1@?0???0?$basic_string@DU?$char_traits@D@std@@V?$allocator@D@2@@std@@QEAA@AEBV01@@Z@4HA 00000001400293a0 f   Game.obj
 0001:000283d0       ?dtor$0@?0???0BlueEnemy@@QEAA@MM@Z@4HA 00000001400293d0 f   BlueEnemy.obj
 0001:000283d0       ?dtor$0@?0???0Enemies@@QEAA@MM@Z@4HA 00000001400293d0 f   Enemies.obj
 0001:000283d0       ?dtor$0@?0???0Potion@@QEAA@MM@Z@4HA 00000001400293d0 f   Potion.obj
 0001:000283d0       ?dtor$0@?0???0RedEnemy@@QEAA@MM@Z@4HA 00000001400293d0 f   RedEnemy.obj
 0001:000283d0       ?dtor$0@?0???0Shield@@QEAA@MM@Z@4HA 00000001400293d0 f   Shield.obj
 0001:00028400       ?dtor$1@?0???0BlueEnemy@@QEAA@MM@Z@4HA 0000000140029400 f   BlueEnemy.obj
 0001:00028400       ?dtor$1@?0???0Enemies@@QEAA@MM@Z@4HA 0000000140029400 f   Enemies.obj
 0001:00028400       ?dtor$1@?0???0Potion@@QEAA@MM@Z@4HA 0000000140029400 f   Potion.obj
 0001:00028400       ?dtor$1@?0???0RedEnemy@@QEAA@MM@Z@4HA 0000000140029400 f   RedEnemy.obj
 0001:00028400       ?dtor$1@?0???0Shield@@QEAA@MM@Z@4HA 0000000140029400 f   Shield.obj
 0001:00028430       ?dtor$2@?0???0BlueEnemy@@QEAA@MM@Z@4HA 0000000140029430 f   BlueEnemy.obj
 0001:00028430       ?dtor$2@?0???0Enemies@@QEAA@MM@Z@4HA 0000000140029430 f   Enemies.obj
 0001:00028430       ?dtor$2@?0???0Potion@@QEAA@MM@Z@4HA 0000000140029430 f   Potion.obj
 0001:00028430       ?dtor$2@?0???0RedEnemy@@QEAA@MM@Z@4HA 0000000140029430 f   RedEnemy.obj
 0001:00028430       ?dtor$2@?0???0Shield@@QEAA@MM@Z@4HA 0000000140029430 f   Shield.obj
 0001:00028460       ?dtor$0@?0???0sentry@?$basic_ostream@DU?$char_traits@D@std@@@std@@QEAA@AEAV12@@Z@4HA 0000000140029460 f   BlueEnemy.obj
 0001:00028490       ?dtor$0@?0??initialTexture@BlueEnemy@@AEAAXXZ@4HA 0000000140029490 f   BlueEnemy.obj
 0001:00028490       ?dtor$0@?0??initialTexture@Enemies@@AEAAXXZ@4HA 0000000140029490 f   Enemies.obj
 0001:00028490       ?dtor$0@?0??initialBG1@Game@@AEAAXXZ@4HA 0000000140029490 f   Game.obj
 0001:00028490       ?dtor$0@?0??initialBG@Game@@AEAAXXZ@4HA 0000000140029490 f   Game.obj
 0001:00028490       ?dtor$0@?0??initialBGMenu@Game@@AEAAXXZ@4HA 0000000140029490 f   Game.obj
 0001:00028490       ?dtor$0@?0??initialBGMenuSound@Game@@AEAAXXZ@4HA 0000000140029490 f   Game.obj
 0001:00028490       ?dtor$0@?0??initialBGSound@Game@@AEAAXXZ@4HA 0000000140029490 f   Game.obj
 0001:00028490       ?dtor$0@?0??initialBGtype@Game@@AEAAXXZ@4HA 0000000140029490 f   Game.obj
 0001:00028490       ?dtor$0@?0??initialBlueSound@Game@@AEAAXXZ@4HA 0000000140029490 f   Game.obj
 0001:00028490       ?dtor$0@?0??initialCredit@Game@@AEAAXXZ@4HA 0000000140029490 f   Game.obj
 0001:00028490       ?dtor$0@?0??initialFlappySound@Game@@AEAAXXZ@4HA 0000000140029490 f   Game.obj
 0001:00028490       ?dtor$0@?0??initialHPsound@Game@@AEAAXXZ@4HA 0000000140029490 f   Game.obj
 0001:00028490       ?dtor$0@?0??initialHaha@Game@@AEAAXXZ@4HA 0000000140029490 f   Game.obj
 0001:00028490       ?dtor$0@?0??initialHealSound@Game@@AEAAXXZ@4HA 0000000140029490 f   Game.obj
 0001:00028490       ?dtor$0@?0??initialHowTo@Game@@AEAAXXZ@4HA 0000000140029490 f   Game.obj
 0001:00028490       ?dtor$0@?0??initialHurtSound@Game@@AEAAXXZ@4HA 0000000140029490 f   Game.obj
 0001:00028490       ?dtor$0@?0??initialRedSound@Game@@AEAAXXZ@4HA 0000000140029490 f   Game.obj
 0001:00028490       ?dtor$0@?0??initialScoreboard@Game@@AEAAXXZ@4HA 0000000140029490 f   Game.obj
 0001:00028490       ?dtor$0@?0??initialShieldSound@Game@@AEAAXXZ@4HA 0000000140029490 f   Game.obj
 0001:00028490       ?dtor$0@?0??initialSound@Game@@AEAAXXZ@4HA 0000000140029490 f   Game.obj
 0001:00028490       ?dtor$1@?0??initialTextures@Game@@AEAAXXZ@4HA 0000000140029490 f   Game.obj
 0001:00028490       ?dtor$0@?0??getShield@Player@@QEAAX_NMM@Z@4HA 0000000140029490 f   Player.obj
 0001:00028490       ?dtor$0@?0??initialTexture@Player@@AEAAXXZ@4HA 0000000140029490 f   Player.obj
 0001:00028490       ?dtor$0@?0??initialTexture@Potion@@AEAAXXZ@4HA 0000000140029490 f   Potion.obj
 0001:00028490       ?dtor$0@?0??initialTexture@RedEnemy@@AEAAXXZ@4HA 0000000140029490 f   RedEnemy.obj
 0001:00028490       ?dtor$0@?0??initialTexture@Shield@@AEAAXXZ@4HA 0000000140029490 f   Shield.obj
 0001:000284c0       ?dtor$0@?0???0Bullet@@QEAA@PEAVTexture@sf@@MMMMM@Z@4HA 00000001400294c0 f   Bullet.obj
 0001:000284c0       ?dtor$0@?0???0Player@@QEAA@XZ@4HA 00000001400294c0 f   Player.obj
 0001:000284f0       ?dtor$0@?0???$?0AEBUpiecewise_construct_t@std@@V?$tuple@$$QEAV?$basic_string@DU?$char_traits@D@std@@V?$allocator@D@2@@std@@@1@V?$tuple@$$V@1@@?$_Tree_temp_node@V?$allocator@U?$_Tree_node@U?$pair@$$CBV?$basic_string@DU?$char_traits@D@std@@V?$allocator@D@2@@std@@PEAVTexture@sf@@@std@@PEAX@std@@@std@@@std@@QEAA@AEAV?$allocator@U?$_Tree_node@U?$pair@$$CBV?$basic_string@DU?$char_traits@D@std@@V?$allocator@D@2@@std@@PEAVTexture@sf@@@std@@PEAX@std@@@1@PEAU?$_Tree_node@U?$pair@$$CBV?$basic_string@DU?$char_traits@D@std@@V?$allocator@D@2@@std@@PEAVTexture@sf@@@std@@PEAX@1@AEBUpiecewise_construct_t@1@$$QEAV?$tuple@$$QEAV?$basic_string@DU?$char_traits@D@std@@V?$allocator@D@2@@std@@@1@$$QEAV?$tuple@$$V@1@@Z@4HA 00000001400294f0 f   Game.obj
 0001:00028520       ?dtor$0@?0???$?0PEAD$0A@@?$basic_string@DU?$char_traits@D@std@@V?$allocator@D@2@@std@@QEAA@PEAD0AEBV?$allocator@D@1@@Z@4HA 0000000140029520 f   Game.obj
 0001:00028550       ?dtor$0@?0???$?5DU?$char_traits@D@std@@V?$allocator@D@1@@std@@YAAEAV?$basic_istream@DU?$char_traits@D@std@@@0@$$QEAV10@AEAV?$basic_string@DU?$char_traits@D@std@@V?$allocator@D@2@@0@@Z@4HA 0000000140029550 f   Game.obj
 0001:00028580       ?dtor$1@?0???$?5DU?$char_traits@D@std@@V?$allocator@D@1@@std@@YAAEAV?$basic_istream@DU?$char_traits@D@std@@@0@$$QEAV10@AEAV?$basic_string@DU?$char_traits@D@std@@V?$allocator@D@2@@0@@Z@4HA 0000000140029580 f   Game.obj
 0001:000285b0       ?catch$2@?0???$?5DU?$char_traits@D@std@@V?$allocator@D@1@@std@@YAAEAV?$basic_istream@DU?$char_traits@D@std@@@0@$$QEAV10@AEAV?$basic_string@DU?$char_traits@D@std@@V?$allocator@D@2@@0@@Z@4HA 00000001400295b0 f   Game.obj
 0001:000285c3       __catch$??$?5DU?$char_traits@D@std@@V?$allocator@D@1@@std@@YAAEAV?$basic_istream@DU?$char_traits@D@std@@@0@$$QEAV10@AEAV?$basic_string@DU?$char_traits@D@std@@V?$allocator@D@2@@0@@Z$0 00000001400295c3 f   Game.obj
 0001:00028600       ?dtor$0@?0???$_Debug_lt_pred@AEAV<lambda_7f61bf8b8214578533bd69dcbefb5615>@@AEAUNameWithScore@?1??updateAndSaveScore@Game@@QEAAXXZ@AEAU2?1??34@QEAAXXZ@$0A@@std@@YA_NAEAV<lambda_7f61bf8b8214578533bd69dcbefb5615>@@AEAUNameWithScore@?1??updateAndSaveScore@Game@@QEAAXXZ@1@Z@4HA 0000000140029600 f   Game.obj
 0001:00028630       ?dtor$2@?0???$_Debug_lt_pred@AEAV<lambda_7f61bf8b8214578533bd69dcbefb5615>@@AEAUNameWithScore@?1??updateAndSaveScore@Game@@QEAAXXZ@AEAU2?1??34@QEAAXXZ@$0A@@std@@YA_NAEAV<lambda_7f61bf8b8214578533bd69dcbefb5615>@@AEAUNameWithScore@?1??updateAndSaveScore@Game@@QEAAXXZ@1@Z@4HA 0000000140029630 f   Game.obj
 0001:00028660       ?catch$0@?0???$_Emplace_reallocate@AEBUNameWithScore@?1??updateAndSaveScore@Game@@QEAAXXZ@@?$vector@UNameWithScore@?1??updateAndSaveScore@Game@@QEAAXXZ@V?$allocator@UNameWithScore@?1??updateAndSaveScore@Game@@QEAAXXZ@@std@@@std@@QEAAPEAUNameWithScore@?1??updateAndSaveScore@Game@@QEAAXXZ@QEAU2?1??34@QEAAXXZ@AEBU2?1??34@QEAAXXZ@@Z@4HA 0000000140029660 f   Game.obj
 0001:00028673       __catch$??$_Emplace_reallocate@AEBUNameWithScore@?1??updateAndSaveScore@Game@@QEAAXXZ@@?$vector@UNameWithScore@?1??updateAndSaveScore@Game@@QEAAXXZ@V?$allocator@UNameWithScore@?1??updateAndSaveScore@Game@@QEAAXXZ@@std@@@std@@QEAAPEAUNameWithScore@?1??updateAndSaveScore@Game@@QEAAXXZ@QEAU2?1??34@QEAAXXZ@AEBU2?1??34@QEAAXXZ@@Z$0 0000000140029673 f   Game.obj
 0001:000286c0       ?catch$0@?0???$_Emplace_reallocate@AEBV?$vector@V?$basic_string@DU?$char_traits@D@std@@V?$allocator@D@2@@std@@V?$allocator@V?$basic_string@DU?$char_traits@D@std@@V?$allocator@D@2@@std@@@2@@std@@@?$vector@V?$vector@V?$basic_string@DU?$char_traits@D@std@@V?$allocator@D@2@@std@@V?$allocator@V?$basic_string@DU?$char_traits@D@std@@V?$allocator@D@2@@std@@@2@@std@@V?$allocator@V?$vector@V?$basic_string@DU?$char_traits@D@std@@V?$allocator@D@2@@std@@V?$allocator@V?$basic_string@DU?$char_traits@D@std@@V?$allocator@D@2@@std@@@2@@std@@@2@@std@@QEAAPEAV?$vector@V?$basic_string@DU?$char_traits@D@std@@V?$allocator@D@2@@std@@V?$allocator@V?$basic_string@DU?$char_traits@D@std@@V?$allocator@D@2@@std@@@2@@1@QEAV21@AEBV21@@Z@4HA 00000001400296c0 f   Game.obj
 0001:000286d3       __catch$??$_Emplace_reallocate@AEBV?$vector@V?$basic_string@DU?$char_traits@D@std@@V?$allocator@D@2@@std@@V?$allocator@V?$basic_string@DU?$char_traits@D@std@@V?$allocator@D@2@@std@@@2@@std@@@?$vector@V?$vector@V?$basic_string@DU?$char_traits@D@std@@V?$allocator@D@2@@std@@V?$allocator@V?$basic_string@DU?$char_traits@D@std@@V?$allocator@D@2@@std@@@2@@std@@V?$allocator@V?$vector@V?$basic_string@DU?$char_traits@D@std@@V?$allocator@D@2@@std@@V?$allocator@V?$basic_string@DU?$char_traits@D@std@@V?$allocator@D@2@@std@@@2@@std@@@2@@std@@QEAAPEAV?$vector@V?$basic_string@DU?$char_traits@D@std@@V?$allocator@D@2@@std@@V?$allocator@V?$basic_string@DU?$char_traits@D@std@@V?$allocator@D@2@@std@@@2@@1@QEAV21@AEBV21@@Z$0 00000001400296d3 f   Game.obj
 0001:00028720       ?catch$0@?0???$_Emplace_reallocate@PEAVBlueEnemy@@@?$vector@PEAVBlueEnemy@@V?$allocator@PEAVBlueEnemy@@@std@@@std@@QEAAPEAPEAVBlueEnemy@@QEAPEAV2@$$QEAPEAV2@@Z@4HA 0000000140029720 f   Game.obj
 0001:00028720       ?catch$0@?0???$_Emplace_reallocate@PEAVBullet@@@?$vector@PEAVBullet@@V?$allocator@PEAVBullet@@@std@@@std@@QEAAPEAPEAVBullet@@QEAPEAV2@$$QEAPEAV2@@Z@4HA 0000000140029720 f   Game.obj
 0001:00028720       ?catch$0@?0???$_Emplace_reallocate@PEAVEnemies@@@?$vector@PEAVEnemies@@V?$allocator@PEAVEnemies@@@std@@@std@@QEAAPEAPEAVEnemies@@QEAPEAV2@$$QEAPEAV2@@Z@4HA 0000000140029720 f   Game.obj
 0001:00028720       ?catch$0@?0???$_Emplace_reallocate@PEAVPotion@@@?$vector@PEAVPotion@@V?$allocator@PEAVPotion@@@std@@@std@@QEAAPEAPEAVPotion@@QEAPEAV2@$$QEAPEAV2@@Z@4HA 0000000140029720 f   Game.obj
 0001:00028720       ?catch$0@?0???$_Emplace_reallocate@PEAVRedEnemy@@@?$vector@PEAVRedEnemy@@V?$allocator@PEAVRedEnemy@@@std@@@std@@QEAAPEAPEAVRedEnemy@@QEAPEAV2@$$QEAPEAV2@@Z@4HA 0000000140029720 f   Game.obj
 0001:00028720       ?catch$0@?0???$_Emplace_reallocate@PEAVShield@@@?$vector@PEAVShield@@V?$allocator@PEAVShield@@@std@@@std@@QEAAPEAPEAVShield@@QEAPEAV2@$$QEAPEAV2@@Z@4HA 0000000140029720 f   Game.obj
 0001:00028733       __catch$??$_Emplace_reallocate@PEAVBlueEnemy@@@?$vector@PEAVBlueEnemy@@V?$allocator@PEAVBlueEnemy@@@std@@@std@@QEAAPEAPEAVBlueEnemy@@QEAPEAV2@$$QEAPEAV2@@Z$0 0000000140029733 f   Game.obj
 0001:00028733       __catch$??$_Emplace_reallocate@PEAVBullet@@@?$vector@PEAVBullet@@V?$allocator@PEAVBullet@@@std@@@std@@QEAAPEAPEAVBullet@@QEAPEAV2@$$QEAPEAV2@@Z$0 0000000140029733 f   Game.obj
 0001:00028733       __catch$??$_Emplace_reallocate@PEAVEnemies@@@?$vector@PEAVEnemies@@V?$allocator@PEAVEnemies@@@std@@@std@@QEAAPEAPEAVEnemies@@QEAPEAV2@$$QEAPEAV2@@Z$0 0000000140029733 f   Game.obj
 0001:00028733       __catch$??$_Emplace_reallocate@PEAVPotion@@@?$vector@PEAVPotion@@V?$allocator@PEAVPotion@@@std@@@std@@QEAAPEAPEAVPotion@@QEAPEAV2@$$QEAPEAV2@@Z$0 0000000140029733 f   Game.obj
 0001:00028733       __catch$??$_Emplace_reallocate@PEAVRedEnemy@@@?$vector@PEAVRedEnemy@@V?$allocator@PEAVRedEnemy@@@std@@@std@@QEAAPEAPEAVRedEnemy@@QEAPEAV2@$$QEAPEAV2@@Z$0 0000000140029733 f   Game.obj
 0001:00028733       __catch$??$_Emplace_reallocate@PEAVShield@@@?$vector@PEAVShield@@V?$allocator@PEAVShield@@@std@@@std@@QEAAPEAPEAVShield@@QEAPEAV2@$$QEAPEAV2@@Z$0 0000000140029733 f   Game.obj
 0001:00028780       ?catch$0@?0???$_Emplace_reallocate@V?$basic_string@DU?$char_traits@D@std@@V?$allocator@D@2@@std@@@?$vector@V?$basic_string@DU?$char_traits@D@std@@V?$allocator@D@2@@std@@V?$allocator@V?$basic_string@DU?$char_traits@D@std@@V?$allocator@D@2@@std@@@2@@std@@QEAAPEAV?$basic_string@DU?$char_traits@D@std@@V?$allocator@D@2@@1@QEAV21@$$QEAV21@@Z@4HA 0000000140029780 f   Game.obj
 0001:00028793       __catch$??$_Emplace_reallocate@V?$basic_string@DU?$char_traits@D@std@@V?$allocator@D@2@@std@@@?$vector@V?$basic_string@DU?$char_traits@D@std@@V?$allocator@D@2@@std@@V?$allocator@V?$basic_string@DU?$char_traits@D@std@@V?$allocator@D@2@@std@@@2@@std@@QEAAPEAV?$basic_string@DU?$char_traits@D@std@@V?$allocator@D@2@@1@QEAV21@$$QEAV21@@Z$0 0000000140029793 f   Game.obj
 0001:000287e0       ?dtor$0@?0???$_Insert_string@DU?$char_traits@D@std@@_K@std@@YAAEAV?$basic_ostream@DU?$char_traits@D@std@@@0@AEAV10@QEBD_K@Z@4HA 00000001400297e0 f   Game.obj
 0001:00028810       ?catch$1@?0???$_Insert_string@DU?$char_traits@D@std@@_K@std@@YAAEAV?$basic_ostream@DU?$char_traits@D@std@@@0@AEAV10@QEBD_K@Z@4HA 0000000140029810 f   Game.obj
 0001:00028823       __catch$??$_Insert_string@DU?$char_traits@D@std@@_K@std@@YAAEAV?$basic_ostream@DU?$char_traits@D@std@@@0@AEAV10@QEBD_K@Z$0 0000000140029823 f   Game.obj
 0001:00028860       ?dtor$0@?0???$_Insertion_sort_unchecked@PEAUNameWithScore@?1??updateAndSaveScore@Game@@QEAAXXZ@V<lambda_7f61bf8b8214578533bd69dcbefb5615>@@@std@@YAPEAUNameWithScore@?1??updateAndSaveScore@Game@@QEAAXXZ@QEAU1?1??23@QEAAXXZ@0V<lambda_7f61bf8b8214578533bd69dcbefb5615>@@@Z@4HA 0000000140029860 f   Game.obj
 0001:00028860       ?dtor$0@?0???$_Pop_heap_unchecked@PEAUNameWithScore@?1??updateAndSaveScore@Game@@QEAAXXZ@V<lambda_7f61bf8b8214578533bd69dcbefb5615>@@@std@@YAXPEAUNameWithScore@?1??updateAndSaveScore@Game@@QEAAXXZ@0V<lambda_7f61bf8b8214578533bd69dcbefb5615>@@@Z@4HA 0000000140029860 f   Game.obj
 0001:00028890       ?dtor$0@?0???$_Make_heap_unchecked@PEAUNameWithScore@?1??updateAndSaveScore@Game@@QEAAXXZ@V<lambda_7f61bf8b8214578533bd69dcbefb5615>@@@std@@YAXPEAUNameWithScore@?1??updateAndSaveScore@Game@@QEAAXXZ@0V<lambda_7f61bf8b8214578533bd69dcbefb5615>@@@Z@4HA 0000000140029890 f   Game.obj
 0001:000288c0       ?dtor$0@?0???$_Partition_by_median_guess_unchecked@PEAUNameWithScore@?1??updateAndSaveScore@Game@@QEAAXXZ@V<lambda_7f61bf8b8214578533bd69dcbefb5615>@@@std@@YA?AU?$pair@PEAUNameWithScore@?1??updateAndSaveScore@Game@@QEAAXXZ@PEAU1?1??23@QEAAXXZ@@0@PEAUNameWithScore@?1??updateAndSaveScore@Game@@QEAAXXZ@0V<lambda_7f61bf8b8214578533bd69dcbefb5615>@@@Z@4HA 00000001400298c0 f   Game.obj
 0001:000288f0       ?dtor$2@?0???$_Partition_by_median_guess_unchecked@PEAUNameWithScore@?1??updateAndSaveScore@Game@@QEAAXXZ@V<lambda_7f61bf8b8214578533bd69dcbefb5615>@@@std@@YA?AU?$pair@PEAUNameWithScore@?1??updateAndSaveScore@Game@@QEAAXXZ@PEAU1?1??23@QEAAXXZ@@0@PEAUNameWithScore@?1??updateAndSaveScore@Game@@QEAAXXZ@0V<lambda_7f61bf8b8214578533bd69dcbefb5615>@@@Z@4HA 00000001400298f0 f   Game.obj
 0001:00028920       ?dtor$4@?0???$_Partition_by_median_guess_unchecked@PEAUNameWithScore@?1??updateAndSaveScore@Game@@QEAAXXZ@V<lambda_7f61bf8b8214578533bd69dcbefb5615>@@@std@@YA?AU?$pair@PEAUNameWithScore@?1??updateAndSaveScore@Game@@QEAAXXZ@PEAU1?1??23@QEAAXXZ@@0@PEAUNameWithScore@?1??updateAndSaveScore@Game@@QEAAXXZ@0V<lambda_7f61bf8b8214578533bd69dcbefb5615>@@@Z@4HA 0000000140029920 f   Game.obj
 0001:00028950       ?dtor$6@?0???$_Partition_by_median_guess_unchecked@PEAUNameWithScore@?1??updateAndSaveScore@Game@@QEAAXXZ@V<lambda_7f61bf8b8214578533bd69dcbefb5615>@@@std@@YA?AU?$pair@PEAUNameWithScore@?1??updateAndSaveScore@Game@@QEAAXXZ@PEAU1?1??23@QEAAXXZ@@0@PEAUNameWithScore@?1??updateAndSaveScore@Game@@QEAAXXZ@0V<lambda_7f61bf8b8214578533bd69dcbefb5615>@@@Z@4HA 0000000140029950 f   Game.obj
 0001:00028980       ?dtor$0@?0???$_Uninitialized_copy@PEAV?$basic_string@DU?$char_traits@D@std@@V?$allocator@D@2@@std@@V?$allocator@V?$basic_string@DU?$char_traits@D@std@@V?$allocator@D@2@@std@@@2@@std@@YAPEAV?$basic_string@DU?$char_traits@D@std@@V?$allocator@D@2@@0@QEAV10@0PEAV10@AEAV?$allocator@V?$basic_string@DU?$char_traits@D@std@@V?$allocator@D@2@@std@@@0@@Z@4HA 0000000140029980 f   Game.obj
 0001:00028980       ?dtor$0@?0???$_Uninitialized_move@PEAV?$basic_string@DU?$char_traits@D@std@@V?$allocator@D@2@@std@@V?$allocator@V?$basic_string@DU?$char_traits@D@std@@V?$allocator@D@2@@std@@@2@@std@@YAPEAV?$basic_string@DU?$char_traits@D@std@@V?$allocator@D@2@@0@QEAV10@0PEAV10@AEAV?$allocator@V?$basic_string@DU?$char_traits@D@std@@V?$allocator@D@2@@std@@@0@@Z@4HA 0000000140029980 f   Game.obj
 0001:000289b0       ?dtor$0@?0???$_Uninitialized_move@PEAUNameWithScore@?1??updateAndSaveScore@Game@@QEAAXXZ@V?$allocator@UNameWithScore@?1??updateAndSaveScore@Game@@QEAAXXZ@@std@@@std@@YAPEAUNameWithScore@?1??updateAndSaveScore@Game@@QEAAXXZ@QEAU1?1??23@QEAAXXZ@0PEAU1?1??23@QEAAXXZ@AEAV?$allocator@UNameWithScore@?1??updateAndSaveScore@Game@@QEAAXXZ@@0@@Z@4HA 00000001400299b0 f   Game.obj
 0001:000289e0       ?dtor$0@?0???$_Uninitialized_move@PEAV?$vector@V?$basic_string@DU?$char_traits@D@std@@V?$allocator@D@2@@std@@V?$allocator@V?$basic_string@DU?$char_traits@D@std@@V?$allocator@D@2@@std@@@2@@std@@V?$allocator@V?$vector@V?$basic_string@DU?$char_traits@D@std@@V?$allocator@D@2@@std@@V?$allocator@V?$basic_string@DU?$char_traits@D@std@@V?$allocator@D@2@@std@@@2@@std@@@2@@std@@YAPEAV?$vector@V?$basic_string@DU?$char_traits@D@std@@V?$allocator@D@2@@std@@V?$allocator@V?$basic_string@DU?$char_traits@D@std@@V?$allocator@D@2@@std@@@2@@0@QEAV10@0PEAV10@AEAV?$allocator@V?$vector@V?$basic_string@DU?$char_traits@D@std@@V?$allocator@D@2@@std@@V?$allocator@V?$basic_string@DU?$char_traits@D@std@@V?$allocator@D@2@@std@@@2@@std@@@0@@Z@4HA 00000001400299e0 f   Game.obj
 0001:00028a10       ?dtor$0@?0???$sort@V?$_Vector_iterator@V?$_Vector_val@U?$_Simple_types@UNameWithScore@?1??updateAndSaveScore@Game@@QEAAXXZ@@std@@@std@@@std@@V<lambda_7f61bf8b8214578533bd69dcbefb5615>@@@std@@YAXV?$_Vector_iterator@V?$_Vector_val@U?$_Simple_types@UNameWithScore@?1??updateAndSaveScore@Game@@QEAAXXZ@@std@@@std@@@0@0V<lambda_7f61bf8b8214578533bd69dcbefb5615>@@@Z@4HA 0000000140029a10 f   Game.obj
 0001:00028a40       ?dtor$1@?0???$sort@V?$_Vector_iterator@V?$_Vector_val@U?$_Simple_types@UNameWithScore@?1??updateAndSaveScore@Game@@QEAAXXZ@@std@@@std@@@std@@V<lambda_7f61bf8b8214578533bd69dcbefb5615>@@@std@@YAXV?$_Vector_iterator@V?$_Vector_val@U?$_Simple_types@UNameWithScore@?1??updateAndSaveScore@Game@@QEAAXXZ@@std@@@std@@@0@0V<lambda_7f61bf8b8214578533bd69dcbefb5615>@@@Z@4HA 0000000140029a40 f   Game.obj
 0001:00028a70       ?dtor$0@?0???$use_facet@V?$codecvt@DDU_Mbstatet@@@std@@@std@@YAAEBV?$codecvt@DDU_Mbstatet@@@0@AEBVlocale@0@@Z@4HA 0000000140029a70 f   Game.obj
 0001:00028a70       ?dtor$0@?0???$use_facet@V?$ctype@D@std@@@std@@YAAEBV?$ctype@D@0@AEBVlocale@0@@Z@4HA 0000000140029a70 f   Game.obj
 0001:00028aa0       ?dtor$1@?0???$use_facet@V?$codecvt@DDU_Mbstatet@@@std@@@std@@YAAEBV?$codecvt@DDU_Mbstatet@@@0@AEBVlocale@0@@Z@4HA 0000000140029aa0 f   Game.obj
 0001:00028aa0       ?dtor$1@?0???$use_facet@V?$ctype@D@std@@@std@@YAAEBV?$ctype@D@0@AEBVlocale@0@@Z@4HA 0000000140029aa0 f   Game.obj
 0001:00028ad0       ?dtor$0@?0???0?$_Tree_temp_node_alloc@V?$allocator@U?$_Tree_node@U?$pair@$$CBV?$basic_string@DU?$char_traits@D@std@@V?$allocator@D@2@@std@@PEAVTexture@sf@@@std@@PEAX@std@@@std@@@std@@QEAA@AEAV?$allocator@U?$_Tree_node@U?$pair@$$CBV?$basic_string@DU?$char_traits@D@std@@V?$allocator@D@2@@std@@PEAVTexture@sf@@@std@@PEAX@std@@@1@@Z@4HA 0000000140029ad0 f   Game.obj
 0001:00028b00       ?dtor$0@?0???0?$basic_filebuf@DU?$char_traits@D@std@@@std@@QEAA@XZ@4HA 0000000140029b00 f   Game.obj
 0001:00028b00       ?dtor$0@?0???0?$basic_stringbuf@DU?$char_traits@D@std@@V?$allocator@D@2@@std@@QEAA@H@Z@4HA 0000000140029b00 f   Game.obj
 0001:00028b30       ?dtor$0@?0???0?$basic_fstream@DU?$char_traits@D@std@@@std@@QEAA@XZ@4HA 0000000140029b30 f   Game.obj
 0001:00028b70       ?dtor$1@?0???0?$basic_fstream@DU?$char_traits@D@std@@@std@@QEAA@XZ@4HA 0000000140029b70 f   Game.obj
 0001:00028b70       ?dtor$1@?0???0?$basic_stringstream@DU?$char_traits@D@std@@V?$allocator@D@2@@std@@QEAA@XZ@4HA 0000000140029b70 f   Game.obj
 0001:00028ba0       ?dtor$0@?0???0?$basic_ifstream@DU?$char_traits@D@std@@@std@@QEAA@PEBDHH@Z@4HA 0000000140029ba0 f   Game.obj
 0001:00028ba0       ?dtor$0@?0???0?$basic_ifstream@DU?$char_traits@D@std@@@std@@QEAA@XZ@4HA 0000000140029ba0 f   Game.obj
 0001:00028be0       ?dtor$1@?0???0?$basic_ifstream@DU?$char_traits@D@std@@@std@@QEAA@PEBDHH@Z@4HA 0000000140029be0 f   Game.obj
 0001:00028be0       ?dtor$1@?0???0?$basic_ifstream@DU?$char_traits@D@std@@@std@@QEAA@XZ@4HA 0000000140029be0 f   Game.obj
 0001:00028c10       ?dtor$2@?0???0?$basic_ifstream@DU?$char_traits@D@std@@@std@@QEAA@PEBDHH@Z@4HA 0000000140029c10 f   Game.obj
 0001:00028c40       ?dtor$0@?0???0?$basic_string@DU?$char_traits@D@std@@V?$allocator@D@2@@std@@QEAA@U_String_constructor_concat_tag@1@AEAV01@1@Z@4HA 0000000140029c40 f   Game.obj
 0001:00028c70       ?dtor$1@?0???0?$basic_string@DU?$char_traits@D@std@@V?$allocator@D@2@@std@@QEAA@U_String_constructor_concat_tag@1@AEAV01@1@Z@4HA 0000000140029c70 f   Game.obj
 0001:00028ca0       ?dtor$0@?0???0?$basic_string@DU?$char_traits@D@std@@V?$allocator@D@2@@std@@QEAA@U_String_constructor_concat_tag@1@AEBV01@QEBD_K23@Z@4HA 0000000140029ca0 f   Game.obj
 0001:00028cd0       ?dtor$0@?0???0?$vector@V?$basic_string@DU?$char_traits@D@std@@V?$allocator@D@2@@std@@V?$allocator@V?$basic_string@DU?$char_traits@D@std@@V?$allocator@D@2@@std@@@2@@std@@QEAA@AEBV01@@Z@4HA 0000000140029cd0 f   Game.obj
 0001:00028cd0       ?dtor$1@?0???0?$basic_string@DU?$char_traits@D@std@@V?$allocator@D@2@@std@@QEAA@U_String_constructor_concat_tag@1@AEBV01@QEBD_K23@Z@4HA 0000000140029cd0 f   Game.obj
 0001:00028d00       ?dtor$0@?0???0?$basic_stringstream@DU?$char_traits@D@std@@V?$allocator@D@2@@std@@QEAA@XZ@4HA 0000000140029d00 f   Game.obj
 0001:00028d40       ?dtor$1@?0???0?$vector@V?$basic_string@DU?$char_traits@D@std@@V?$allocator@D@2@@std@@V?$allocator@V?$basic_string@DU?$char_traits@D@std@@V?$allocator@D@2@@std@@@2@@std@@QEAA@AEBV01@@Z@4HA 0000000140029d40 f   Game.obj
 0001:00028d70       ?dtor$0@?0???0Game@@QEAA@XZ@4HA 0000000140029d70 f   Game.obj
 0001:00028da0       ?dtor$1@?0???0Game@@QEAA@XZ@4HA 0000000140029da0 f   Game.obj
 0001:00028dd0       ?dtor$2@?0???0Game@@QEAA@XZ@4HA 0000000140029dd0 f   Game.obj
 0001:00028e00       ?dtor$3@?0???0Game@@QEAA@XZ@4HA 0000000140029e00 f   Game.obj
 0001:00028e30       ?dtor$4@?0???0Game@@QEAA@XZ@4HA 0000000140029e30 f   Game.obj
 0001:00028e60       ?dtor$5@?0???0Game@@QEAA@XZ@4HA 0000000140029e60 f   Game.obj
 0001:00028e90       ?dtor$6@?0???0Game@@QEAA@XZ@4HA 0000000140029e90 f   Game.obj
 0001:00028ec0       ?dtor$7@?0???0Game@@QEAA@XZ@4HA 0000000140029ec0 f   Game.obj
 0001:00028ef0       ?dtor$8@?0???0Game@@QEAA@XZ@4HA 0000000140029ef0 f   Game.obj
 0001:00028f20       ?dtor$9@?0???0Game@@QEAA@XZ@4HA 0000000140029f20 f   Game.obj
 0001:00028f50       ?dtor$10@?0???0Game@@QEAA@XZ@4HA 0000000140029f50 f   Game.obj
 0001:00028f80       ?dtor$11@?0???0Game@@QEAA@XZ@4HA 0000000140029f80 f   Game.obj
 0001:00028fb0       ?dtor$12@?0???0Game@@QEAA@XZ@4HA 0000000140029fb0 f   Game.obj
 0001:00028fe0       ?dtor$13@?0???0Game@@QEAA@XZ@4HA 0000000140029fe0 f   Game.obj
 0001:00029010       ?dtor$14@?0???0Game@@QEAA@XZ@4HA 000000014002a010 f   Game.obj
 0001:00029040       ?dtor$15@?0???0Game@@QEAA@XZ@4HA 000000014002a040 f   Game.obj
 0001:00029070       ?dtor$16@?0???0Game@@QEAA@XZ@4HA 000000014002a070 f   Game.obj
 0001:000290a0       ?dtor$17@?0???0Game@@QEAA@XZ@4HA 000000014002a0a0 f   Game.obj
 0001:000290d0       ?dtor$18@?0???0Game@@QEAA@XZ@4HA 000000014002a0d0 f   Game.obj
 0001:00029100       ?dtor$19@?0???0Game@@QEAA@XZ@4HA 000000014002a100 f   Game.obj
 0001:00029130       ?dtor$20@?0???0Game@@QEAA@XZ@4HA 000000014002a130 f   Game.obj
 0001:00029160       ?dtor$21@?0???0Game@@QEAA@XZ@4HA 000000014002a160 f   Game.obj
 0001:00029190       ?dtor$22@?0???0Game@@QEAA@XZ@4HA 000000014002a190 f   Game.obj
 0001:000291c0       ?dtor$23@?0???0Game@@QEAA@XZ@4HA 000000014002a1c0 f   Game.obj
 0001:000291f0       ?dtor$24@?0???0Game@@QEAA@XZ@4HA 000000014002a1f0 f   Game.obj
 0001:00029220       ?dtor$25@?0???0Game@@QEAA@XZ@4HA 000000014002a220 f   Game.obj
 0001:00029250       ?dtor$26@?0???0Game@@QEAA@XZ@4HA 000000014002a250 f   Game.obj
 0001:00029280       ?dtor$27@?0???0Game@@QEAA@XZ@4HA 000000014002a280 f   Game.obj
 0001:000292b0       ?dtor$28@?0???0Game@@QEAA@XZ@4HA 000000014002a2b0 f   Game.obj
 0001:000292e0       ?dtor$29@?0???0Game@@QEAA@XZ@4HA 000000014002a2e0 f   Game.obj
 0001:00029320       ?dtor$30@?0???0Game@@QEAA@XZ@4HA 000000014002a320 f   Game.obj
 0001:00029350       ?dtor$31@?0???0Game@@QEAA@XZ@4HA 000000014002a350 f   Game.obj
 0001:00029380       ?dtor$32@?0???0Game@@QEAA@XZ@4HA 000000014002a380 f   Game.obj
 0001:000293b0       ?dtor$33@?0???0Game@@QEAA@XZ@4HA 000000014002a3b0 f   Game.obj
 0001:000293e0       ?dtor$34@?0???0Game@@QEAA@XZ@4HA 000000014002a3e0 f   Game.obj
 0001:00029410       ?dtor$35@?0???0Game@@QEAA@XZ@4HA 000000014002a410 f   Game.obj
 0001:00029440       ?dtor$36@?0???0Game@@QEAA@XZ@4HA 000000014002a440 f   Game.obj
 0001:00029470       ?dtor$37@?0???0Game@@QEAA@XZ@4HA 000000014002a470 f   Game.obj
 0001:000294a0       ?dtor$38@?0???0Game@@QEAA@XZ@4HA 000000014002a4a0 f   Game.obj
 0001:000294d0       ?dtor$39@?0???0Game@@QEAA@XZ@4HA 000000014002a4d0 f   Game.obj
 0001:00029500       ?dtor$40@?0???0Game@@QEAA@XZ@4HA 000000014002a500 f   Game.obj
 0001:00029530       ?dtor$41@?0???0Game@@QEAA@XZ@4HA 000000014002a530 f   Game.obj
 0001:00029560       ?dtor$42@?0???0Game@@QEAA@XZ@4HA 000000014002a560 f   Game.obj
 0001:00029590       ?dtor$43@?0???0Game@@QEAA@XZ@4HA 000000014002a590 f   Game.obj
 0001:000295c0       ?dtor$44@?0???0Game@@QEAA@XZ@4HA 000000014002a5c0 f   Game.obj
 0001:000295f0       ?dtor$45@?0???0Game@@QEAA@XZ@4HA 000000014002a5f0 f   Game.obj
 0001:00029620       ?dtor$46@?0???0Game@@QEAA@XZ@4HA 000000014002a620 f   Game.obj
 0001:00029650       ?dtor$47@?0???0Game@@QEAA@XZ@4HA 000000014002a650 f   Game.obj
 0001:00029680       ?dtor$48@?0???0Game@@QEAA@XZ@4HA 000000014002a680 f   Game.obj
 0001:000296b0       ?dtor$49@?0???0Game@@QEAA@XZ@4HA 000000014002a6b0 f   Game.obj
 0001:000296e0       ?dtor$50@?0???0Game@@QEAA@XZ@4HA 000000014002a6e0 f   Game.obj
 0001:00029710       ?dtor$51@?0???0Game@@QEAA@XZ@4HA 000000014002a710 f   Game.obj
 0001:00029740       ?dtor$52@?0???0Game@@QEAA@XZ@4HA 000000014002a740 f   Game.obj
 0001:00029770       ?dtor$53@?0???0Game@@QEAA@XZ@4HA 000000014002a770 f   Game.obj
 0001:000297a0       ?dtor$0@?0???0sentry@?$basic_istream@DU?$char_traits@D@std@@@std@@QEAA@AEAV12@_N@Z@4HA 000000014002a7a0 f   Game.obj
 0001:000297d0       ?dtor$0@?0??initialGUI@Game@@AEAAXXZ@4HA 000000014002a7d0 f   Game.obj
 0001:00029800       ?dtor$1@?0??initialGUI@Game@@AEAAXXZ@4HA 000000014002a800 f   Game.obj
 0001:00029830       ?dtor$2@?0??initialGUI@Game@@AEAAXXZ@4HA 000000014002a830 f   Game.obj
 0001:00029860       ?dtor$3@?0??initialGUI@Game@@AEAAXXZ@4HA 000000014002a860 f   Game.obj
 0001:00029890       ?dtor$4@?0??initialGUI@Game@@AEAAXXZ@4HA 000000014002a890 f   Game.obj
 0001:000298c0       ?dtor$5@?0??initialGUI@Game@@AEAAXXZ@4HA 000000014002a8c0 f   Game.obj
 0001:000298f0       ?dtor$6@?0??initialGUI@Game@@AEAAXXZ@4HA 000000014002a8f0 f   Game.obj
 0001:00029920       ?dtor$7@?0??initialGUI@Game@@AEAAXXZ@4HA 000000014002a920 f   Game.obj
 0001:00029950       ?dtor$8@?0??initialGUI@Game@@AEAAXXZ@4HA 000000014002a950 f   Game.obj
 0001:00029980       ?dtor$9@?0??initialGUI@Game@@AEAAXXZ@4HA 000000014002a980 f   Game.obj
 0001:000299b0       ?dtor$10@?0??initialGUI@Game@@AEAAXXZ@4HA 000000014002a9b0 f   Game.obj
 0001:000299e0       ?dtor$0@?0??initialPlayer@Game@@AEAAXXZ@4HA 000000014002a9e0 f   Game.obj
 0001:00029a10       ?dtor$0@?0??initialTextures@Game@@AEAAXXZ@4HA 000000014002aa10 f   Game.obj
 0001:00029a40       ?dtor$2@?0??initialTextures@Game@@AEAAXXZ@4HA 000000014002aa40 f   Game.obj
 0001:00029a70       ?dtor$3@?0??initialTextures@Game@@AEAAXXZ@4HA 000000014002aa70 f   Game.obj
 0001:00029aa0       ?dtor$0@?0??initialWindow@Game@@AEAAXXZ@4HA 000000014002aaa0 f   Game.obj
 0001:00029ad0       ?dtor$1@?0??initialWindow@Game@@AEAAXXZ@4HA 000000014002aad0 f   Game.obj
 0001:00029b10       ?dtor$2@?0??initialWindow@Game@@AEAAXXZ@4HA 000000014002ab10 f   Game.obj
 0001:00029b50       ?dtor$0@?0??uflow@?$basic_filebuf@DU?$char_traits@D@std@@@std@@MEAAHXZ@4HA 000000014002ab50 f   Game.obj
 0001:00029b50       ?dtor$3@?0??initialWindow@Game@@AEAAXXZ@4HA 000000014002ab50 f   Game.obj
 0001:00029b80       ?dtor$0@?0??open@?$basic_filebuf@DU?$char_traits@D@std@@@std@@QEAAPEAV12@PEBDHH@Z@4HA 000000014002ab80 f   Game.obj
 0001:00029bb0       ?dtor$0@?0??readFileScore@Game@@AEAAXXZ@4HA 000000014002abb0 f   Game.obj
 0001:00029bb0       ?dtor$0@?0??updateGUI@Game@@QEAAXXZ@4HA 000000014002abb0 f   Game.obj
 0001:00029be0       ?dtor$1@?0??readFileScore@Game@@AEAAXXZ@4HA 000000014002abe0 f   Game.obj
 0001:00029c10       ?dtor$2@?0??readFileScore@Game@@AEAAXXZ@4HA 000000014002ac10 f   Game.obj
 0001:00029c40       ?dtor$3@?0??readFileScore@Game@@AEAAXXZ@4HA 000000014002ac40 f   Game.obj
 0001:00029c40       ?dtor$6@?0??updateGUI@Game@@QEAAXXZ@4HA 000000014002ac40 f   Game.obj
 0001:00029c70       ?dtor$4@?0??readFileScore@Game@@AEAAXXZ@4HA 000000014002ac70 f   Game.obj
 0001:00029ca0       ?dtor$5@?0??readFileScore@Game@@AEAAXXZ@4HA 000000014002aca0 f   Game.obj
 0001:00029cd0       ?dtor$6@?0??readFileScore@Game@@AEAAXXZ@4HA 000000014002acd0 f   Game.obj
 0001:00029d00       ?dtor$7@?0??readFileScore@Game@@AEAAXXZ@4HA 000000014002ad00 f   Game.obj
 0001:00029d30       ?dtor$8@?0??readFileScore@Game@@AEAAXXZ@4HA 000000014002ad30 f   Game.obj
 0001:00029d60       ?dtor$9@?0??readFileScore@Game@@AEAAXXZ@4HA 000000014002ad60 f   Game.obj
 0001:00029d90       ?dtor$10@?0??readFileScore@Game@@AEAAXXZ@4HA 000000014002ad90 f   Game.obj
 0001:00029dc0       ?dtor$11@?0??readFileScore@Game@@AEAAXXZ@4HA 000000014002adc0 f   Game.obj
 0001:00029df0       ?dtor$12@?0??readFileScore@Game@@AEAAXXZ@4HA 000000014002adf0 f   Game.obj
 0001:00029e20       ?dtor$13@?0??readFileScore@Game@@AEAAXXZ@4HA 000000014002ae20 f   Game.obj
 0001:00029e50       ?dtor$14@?0??readFileScore@Game@@AEAAXXZ@4HA 000000014002ae50 f   Game.obj
 0001:00029e80       ?dtor$15@?0??readFileScore@Game@@AEAAXXZ@4HA 000000014002ae80 f   Game.obj
 0001:00029eb0       ?dtor$16@?0??readFileScore@Game@@AEAAXXZ@4HA 000000014002aeb0 f   Game.obj
 0001:00029ee0       ?dtor$17@?0??readFileScore@Game@@AEAAXXZ@4HA 000000014002aee0 f   Game.obj
 0001:00029f10       ?dtor$18@?0??readFileScore@Game@@AEAAXXZ@4HA 000000014002af10 f   Game.obj
 0001:00029f40       ?dtor$19@?0??readFileScore@Game@@AEAAXXZ@4HA 000000014002af40 f   Game.obj
 0001:00029f70       ?dtor$20@?0??readFileScore@Game@@AEAAXXZ@4HA 000000014002af70 f   Game.obj
 0001:00029fa0       ?dtor$21@?0??readFileScore@Game@@AEAAXXZ@4HA 000000014002afa0 f   Game.obj
 0001:00029fd0       ?dtor$22@?0??readFileScore@Game@@AEAAXXZ@4HA 000000014002afd0 f   Game.obj
 0001:0002a000       ?dtor$23@?0??readFileScore@Game@@AEAAXXZ@4HA 000000014002b000 f   Game.obj
 0001:0002a030       ?dtor$24@?0??readFileScore@Game@@AEAAXXZ@4HA 000000014002b030 f   Game.obj
 0001:0002a060       ?dtor$25@?0??readFileScore@Game@@AEAAXXZ@4HA 000000014002b060 f   Game.obj
 0001:0002a090       ?dtor$26@?0??readFileScore@Game@@AEAAXXZ@4HA 000000014002b090 f   Game.obj
 0001:0002a0c0       ?dtor$27@?0??readFileScore@Game@@AEAAXXZ@4HA 000000014002b0c0 f   Game.obj
 0001:0002a0f0       ?dtor$0@?0??str@?$basic_stringbuf@DU?$char_traits@D@std@@V?$allocator@D@2@@std@@QEBA?AV?$basic_string@DU?$char_traits@D@std@@V?$allocator@D@2@@2@XZ@4HA 000000014002b0f0 f   Game.obj
 0001:0002a120       ?dtor$0@?0??updateAndSaveScore@Game@@QEAAXXZ@4HA 000000014002b120 f   Game.obj
 0001:0002a150       ?dtor$1@?0??updateAndSaveScore@Game@@QEAAXXZ@4HA 000000014002b150 f   Game.obj
 0001:0002a180       ?dtor$2@?0??updateAndSaveScore@Game@@QEAAXXZ@4HA 000000014002b180 f   Game.obj
 0001:0002a1b0       ?dtor$3@?0??updateAndSaveScore@Game@@QEAAXXZ@4HA 000000014002b1b0 f   Game.obj
 0001:0002a1e0       ?dtor$3@?0??updateGUI@Game@@QEAAXXZ@4HA 000000014002b1e0 f   Game.obj
 0001:0002a1e0       ?dtor$4@?0??updateAndSaveScore@Game@@QEAAXXZ@4HA 000000014002b1e0 f   Game.obj
 0001:0002a210       ?dtor$5@?0??updateAndSaveScore@Game@@QEAAXXZ@4HA 000000014002b210 f   Game.obj
 0001:0002a240       ?dtor$8@?0??updateAndSaveScore@Game@@QEAAXXZ@4HA 000000014002b240 f   Game.obj
 0001:0002a270       ?dtor$9@?0??updateAndSaveScore@Game@@QEAAXXZ@4HA 000000014002b270 f   Game.obj
 0001:0002a2a0       ?dtor$10@?0??updateAndSaveScore@Game@@QEAAXXZ@4HA 000000014002b2a0 f   Game.obj
 0001:0002a2d0       ?dtor$11@?0??updateAndSaveScore@Game@@QEAAXXZ@4HA 000000014002b2d0 f   Game.obj
 0001:0002a300       ?dtor$12@?0??updateAndSaveScore@Game@@QEAAXXZ@4HA 000000014002b300 f   Game.obj
 0001:0002a330       ?dtor$13@?0??updateAndSaveScore@Game@@QEAAXXZ@4HA 000000014002b330 f   Game.obj
 0001:0002a360       ?dtor$0@?0??updateBlueEnemy@Game@@QEAAXXZ@4HA 000000014002b360 f   Game.obj
 0001:0002a360       ?dtor$0@?0??updateRedEnemy@Game@@QEAAXXZ@4HA 000000014002b360 f   Game.obj
 0001:0002a360       ?dtor$0@?0??updateShield@Game@@QEAAXXZ@4HA 000000014002b360 f   Game.obj
 0001:0002a390       ?dtor$0@?0??updateEnemies@Game@@QEAAXXZ@4HA 000000014002b390 f   Game.obj
 0001:0002a390       ?dtor$0@?0??updatePotion@Game@@QEAAXXZ@4HA 000000014002b390 f   Game.obj
 0001:0002a3c0       ?dtor$1@?0??updateGUI@Game@@QEAAXXZ@4HA 000000014002b3c0 f   Game.obj
 0001:0002a3f0       ?dtor$2@?0??updateGUI@Game@@QEAAXXZ@4HA 000000014002b3f0 f   Game.obj
 0001:0002a420       ?dtor$4@?0??updateGUI@Game@@QEAAXXZ@4HA 000000014002b420 f   Game.obj
 0001:0002a450       ?dtor$5@?0??updateGUI@Game@@QEAAXXZ@4HA 000000014002b450 f   Game.obj
 0001:0002a480       ?dtor$7@?0??updateGUI@Game@@QEAAXXZ@4HA 000000014002b480 f   Game.obj
 0001:0002a4b0       ?dtor$0@?0??updateInput@Game@@QEAAXXZ@4HA 000000014002b4b0 f   Game.obj
 0001:0002a4e0       ?dtor$1@?0??updateInput@Game@@QEAAXXZ@4HA 000000014002b4e0 f   Game.obj
 0001:0002a520       ?dtor$0@?0??updatePollEvents@Game@@QEAAXXZ@4HA 000000014002b520 f   Game.obj
 0001:0002a550       ?dtor$1@?0??updatePollEvents@Game@@QEAAXXZ@4HA 000000014002b550 f   Game.obj
 0001:0002a580       ?dtor$2@?0??updatePollEvents@Game@@QEAAXXZ@4HA 000000014002b580 f   Game.obj
 0001:0002a5b0       ?dtor$3@?0??updatePollEvents@Game@@QEAAXXZ@4HA 000000014002b5b0 f   Game.obj
 0001:0002a5e0       ?dtor$1@?0???0Player@@QEAA@XZ@4HA 000000014002b5e0 f   Player.obj
 0001:0002a610       ?dtor$2@?0???0Player@@QEAA@XZ@4HA 000000014002b610 f   Player.obj
 0001:0002a640       ?dtor$3@?0???0Player@@QEAA@XZ@4HA 000000014002b640 f   Player.obj
 0001:0002a670       main$dtor$0                000000014002b670 f   tryTry.obj
 0001:0002a6a0       ?dtor$0@?0??_Facet_Register@std@@YAXPEAV_Facet_base@1@@Z@4HA 000000014002b6a0 f   msvcprtd:locale0_implib.obj
 0001:0002a6c0       ?fin$0@?0???_L@YAXPEAX_K1P6AX0@Z2@Z@4HA 000000014002b6c0 f   MSVCRTD:ehvecctr.obj
 0001:0002a6f0       ?fin$0@?0???_M@YAXPEAX_K1P6AX0@Z@Z@4HA 000000014002b6f0 f   MSVCRTD:ehvecdtr.obj
 0001:0002a720       ?filt$0@?0??__ArrayUnwind@@YAXPEAX_K1P6AX0@Z@Z@4HA 000000014002b720 f   MSVCRTD:ehvecdtr.obj
 0001:0002a750       ?filt$0@?0??__scrt_common_main_seh@@YAHXZ@4HA 000000014002b750 f   MSVCRTD:exe_main.obj
 0001:0002a780       __scrt_is_nonwritable_in_current_image$filt$0 000000014002b780 f   MSVCRTD:utility.obj
 0001:0002a7c0       ?filt$0@?0??notify_debugger@@YAXAEBUtagEXCEPTION_VISUALCPP_DEBUG_INFO@@@Z@4HA 000000014002b7c0 f   MSVCRTD:error.obj
 0001:0002a7e0       ??__F_Fac_tidy_reg@std@@YAXXZ 000000014002b7e0 f   msvcprtd:locale0_implib.obj
 0002:00000858       ?pre_cpp_initializer@@3P6AXXZEA 000000014002c858     MSVCRTD:exe_main.obj
 0002:00000860       ?_Fac_tidy_reg$initializer$@std@@3P6AXXZEA 000000014002c860     msvcprtd:locale0_implib.obj
 0002:00000878       ?pre_c_initializer@@3P6AHXZEA 000000014002c878     MSVCRTD:exe_main.obj
 0002:00000880       ?post_pgo_initializer@@3P6AHXZEA 000000014002c880     MSVCRTD:exe_main.obj
 0002:000008b0       $SG59411                   000000014002c8b0     BlueEnemy.obj
 0002:000008c8       $SG59412                   000000014002c8c8     BlueEnemy.obj
 0002:000008cc       $SG70091                   000000014002c8cc     BlueEnemy.obj
 0002:000008d0       $SG59413                   000000014002c8d0     BlueEnemy.obj
 0002:00000908       $SG70090                   000000014002c908     BlueEnemy.obj
 0002:00000920       $SG69571                   000000014002c920     BlueEnemy.obj
 0002:00000988       $SG70095                   000000014002c988     BlueEnemy.obj
 0002:000009b0       $SG70092                   000000014002c9b0     BlueEnemy.obj
 0002:00000a20       $SG70093                   000000014002ca20     BlueEnemy.obj
 0002:00000af0       $SG70094                   000000014002caf0     BlueEnemy.obj
 0002:00000b40       ?_Orphan_all@_Container_base12@std@@QEAAXXZ$rtcName$0 000000014002cb40     BlueEnemy.obj
 0002:00000b50       ?_Orphan_all@_Container_base12@std@@QEAAXXZ$rtcVarDesc 000000014002cb50     BlueEnemy.obj
 0002:00000b90       ?_Orphan_all@_Container_base12@std@@QEAAXXZ$rtcFrameData 000000014002cb90     BlueEnemy.obj
 0002:00000ba0       ??0?$basic_string@DU?$char_traits@D@std@@V?$allocator@D@2@@std@@QEAA@QEBD@Z$rtcName$0 000000014002cba0     BlueEnemy.obj
 0002:00000ba8       ??0?$basic_string@DU?$char_traits@D@std@@V?$allocator@D@2@@std@@QEAA@QEBD@Z$rtcName$1 000000014002cba8     BlueEnemy.obj
 0002:00000bb0       ??0?$basic_string@DU?$char_traits@D@std@@V?$allocator@D@2@@std@@QEAA@QEBD@Z$rtcVarDesc 000000014002cbb0     BlueEnemy.obj
 0002:00000c30       ??0?$basic_string@DU?$char_traits@D@std@@V?$allocator@D@2@@std@@QEAA@QEBD@Z$rtcFrameData 000000014002cc30     BlueEnemy.obj
 0002:00000c40       ??1?$basic_string@DU?$char_traits@D@std@@V?$allocator@D@2@@std@@QEAA@XZ$rtcName$0 000000014002cc40     BlueEnemy.obj
 0002:00000c50       ??1?$basic_string@DU?$char_traits@D@std@@V?$allocator@D@2@@std@@QEAA@XZ$rtcVarDesc 000000014002cc50     BlueEnemy.obj
 0002:00000c90       ??1?$basic_string@DU?$char_traits@D@std@@V?$allocator@D@2@@std@@QEAA@XZ$rtcFrameData 000000014002cc90     BlueEnemy.obj
 0002:00000ca0       ?max_size@?$basic_string@DU?$char_traits@D@std@@V?$allocator@D@2@@std@@QEBA_KXZ$rtcName$0 000000014002cca0     BlueEnemy.obj
 0002:00000cb0       ?max_size@?$basic_string@DU?$char_traits@D@std@@V?$allocator@D@2@@std@@QEBA_KXZ$rtcVarDesc 000000014002ccb0     BlueEnemy.obj
 0002:00000cf0       ?max_size@?$basic_string@DU?$char_traits@D@std@@V?$allocator@D@2@@std@@QEBA_KXZ$rtcFrameData 000000014002ccf0     BlueEnemy.obj
 0002:00000d00       ?_Calculate_growth@?$basic_string@DU?$char_traits@D@std@@V?$allocator@D@2@@std@@CA_K_K00@Z$rtcName$0 000000014002cd00     BlueEnemy.obj
 0002:00000d10       ?_Calculate_growth@?$basic_string@DU?$char_traits@D@std@@V?$allocator@D@2@@std@@CA_K_K00@Z$rtcVarDesc 000000014002cd10     BlueEnemy.obj
 0002:00000d50       ?_Calculate_growth@?$basic_string@DU?$char_traits@D@std@@V?$allocator@D@2@@std@@CA_K_K00@Z$rtcFrameData 000000014002cd50     BlueEnemy.obj
 0002:00000d60       ??$?6U?$char_traits@D@std@@@std@@YAAEAV?$basic_ostream@DU?$char_traits@D@std@@@0@AEAV10@PEBD@Z$rtcName$0 000000014002cd60     BlueEnemy.obj
 0002:00000d70       ??$?6U?$char_traits@D@std@@@std@@YAAEAV?$basic_ostream@DU?$char_traits@D@std@@@0@AEAV10@PEBD@Z$rtcVarDesc 000000014002cd70     BlueEnemy.obj
 0002:00000db0       ??$?6U?$char_traits@D@std@@@std@@YAAEAV?$basic_ostream@DU?$char_traits@D@std@@@0@AEAV10@PEBD@Z$rtcFrameData 000000014002cdb0     BlueEnemy.obj
 0002:00000dc0       ??$_Reallocate_for@V<lambda_66f57f934f28d61049862f64df852ff0>@@PEBD@?$basic_string@DU?$char_traits@D@std@@V?$allocator@D@2@@std@@AEAAAEAV01@_KV<lambda_66f57f934f28d61049862f64df852ff0>@@PEBD@Z$rtcName$0 000000014002cdc0     BlueEnemy.obj
 0002:00000dd0       ??$_Reallocate_for@V<lambda_66f57f934f28d61049862f64df852ff0>@@PEBD@?$basic_string@DU?$char_traits@D@std@@V?$allocator@D@2@@std@@AEAAAEAV01@_KV<lambda_66f57f934f28d61049862f64df852ff0>@@PEBD@Z$rtcVarDesc 000000014002cdd0     BlueEnemy.obj
 0002:00000e10       ??$_Reallocate_for@V<lambda_66f57f934f28d61049862f64df852ff0>@@PEBD@?$basic_string@DU?$char_traits@D@std@@V?$allocator@D@2@@std@@AEAAAEAV01@_KV<lambda_66f57f934f28d61049862f64df852ff0>@@PEBD@Z$rtcFrameData 000000014002ce10     BlueEnemy.obj
 0002:000010b0       $SG69360                   000000014002d0b0     Bullet.obj
 0002:00001118       $SG69885                   000000014002d118     Bullet.obj
 0002:0000112c       $SG69886                   000000014002d12c     Bullet.obj
 0002:00001130       $SG69887                   000000014002d130     Bullet.obj
 0002:000011a0       $SG69888                   000000014002d1a0     Bullet.obj
 0002:00001270       $SG69889                   000000014002d270     Bullet.obj
 0002:000012c0       $SG69890                   000000014002d2c0     Bullet.obj
 0002:00001300       $SG59405                   000000014002d300     Enemies.obj
 0002:00001314       $SG59406                   000000014002d314     Enemies.obj
 0002:00001318       $SG59407                   000000014002d318     Enemies.obj
 0002:00001348       $SG70058                   000000014002d348     Enemies.obj
 0002:00001360       $SG69539                   000000014002d360     Enemies.obj
 0002:000013c8       $SG70059                   000000014002d3c8     Enemies.obj
 0002:000013d0       $SG70060                   000000014002d3d0     Enemies.obj
 0002:00001438       $SG70063                   000000014002d438     Enemies.obj
 0002:00001460       $SG70061                   000000014002d460     Enemies.obj
 0002:00001530       $SG70062                   000000014002d530     Enemies.obj
 0002:000015a0       $SG65701                   000000014002d5a0     Game.obj
 0002:000015c4       $SG65705                   000000014002d5c4     Game.obj
 0002:000015c6       $SG65755                   000000014002d5c6     Game.obj
 0002:000015c7       $SG65759                   000000014002d5c7     Game.obj
 0002:000015c8       $SG65704                   000000014002d5c8     Game.obj
 0002:000015da       $SG66963                   000000014002d5da     Game.obj
 0002:000015db       $SG67269                   000000014002d5db     Game.obj
 0002:000015dc       $SG82091                   000000014002d5dc     Game.obj
 0002:000015df       ?piecewise_construct@std@@3Upiecewise_construct_t@1@B 000000014002d5df     Game.obj
 0002:000015e0       $SG82090                   000000014002d5e0     Game.obj
 0002:000016d2       $SG69537                   000000014002d6d2     Game.obj
 0002:000016d3       $SG69538                   000000014002d6d3     Game.obj
 0002:000016d4       $SG65753                   000000014002d6d4     Game.obj
 0002:000016d8       $SG65706                   000000014002d6d8     Game.obj
 0002:00001700       $SG82092                   000000014002d700     Game.obj
 0002:00001768       $SG65723                   000000014002d768     Game.obj
 0002:00001770       $SG82093                   000000014002d770     Game.obj
 0002:00001840       $SG82094                   000000014002d840     Game.obj
 0002:00001860       $SG82095                   000000014002d860     Game.obj
 0002:00001a5c       $SG65724                   000000014002da5c     Game.obj
 0002:00001a64       $SG65827                   000000014002da64     Game.obj
 0002:00001a68       $SG65725                   000000014002da68     Game.obj
 0002:00001a7c       $SG65841                   000000014002da7c     Game.obj
 0002:00001a80       $SG65752                   000000014002da80     Game.obj
 0002:00001a90       $SG65754                   000000014002da90     Game.obj
 0002:00001ab8       $SG65756                   000000014002dab8     Game.obj
 0002:00001acc       $SG65852                   000000014002dacc     Game.obj
 0002:00001ad0       $SG65757                   000000014002dad0     Game.obj
 0002:00001ad8       $SG65758                   000000014002dad8     Game.obj
 0002:00001ae4       $SG65863                   000000014002dae4     Game.obj
 0002:00001ae8       $SG65826                   000000014002dae8     Game.obj
 0002:00001b00       $SG65828                   000000014002db00     Game.obj
 0002:00001b28       $SG65840                   000000014002db28     Game.obj
 0002:00001b40       $SG65842                   000000014002db40     Game.obj
 0002:00001b6c       $SG65880                   000000014002db6c     Game.obj
 0002:00001b70       $SG65851                   000000014002db70     Game.obj
 0002:00001b88       $SG65853                   000000014002db88     Game.obj
 0002:00001bb8       $SG65862                   000000014002dbb8     Game.obj
 0002:00001bcc       $SG65897                   000000014002dbcc     Game.obj
 0002:00001bd0       $SG65864                   000000014002dbd0     Game.obj
 0002:00001c08       $SG65879                   000000014002dc08     Game.obj
 0002:00001c20       $SG65881                   000000014002dc20     Game.obj
 0002:00001c4c       $SG65914                   000000014002dc4c     Game.obj
 0002:00001c50       $SG65896                   000000014002dc50     Game.obj
 0002:00001c68       $SG65898                   000000014002dc68     Game.obj
 0002:00001c98       $SG65913                   000000014002dc98     Game.obj
 0002:00001cac       $SG65931                   000000014002dcac     Game.obj
 0002:00001cb0       $SG65915                   000000014002dcb0     Game.obj
 0002:00001ce4       $SG65948                   000000014002dce4     Game.obj
 0002:00001ce8       $SG65930                   000000014002dce8     Game.obj
 0002:00001cfc       $SG65980                   000000014002dcfc     Game.obj
 0002:00001d00       $SG65932                   000000014002dd00     Game.obj
 0002:00001d28       $SG65947                   000000014002dd28     Game.obj
 0002:00001d40       $SG65949                   000000014002dd40     Game.obj
 0002:00001d68       $SG65979                   000000014002dd68     Game.obj
 0002:00001d7c       $SG65991                   000000014002dd7c     Game.obj
 0002:00001d80       $SG65981                   000000014002dd80     Game.obj
 0002:00001dac       $SG66002                   000000014002ddac     Game.obj
 0002:00001db0       $SG65990                   000000014002ddb0     Game.obj
 0002:00001dc4       $SG66013                   000000014002ddc4     Game.obj
 0002:00001dc8       $SG65992                   000000014002ddc8     Game.obj
 0002:00001dfc       $SG66024                   000000014002ddfc     Game.obj
 0002:00001e00       $SG66001                   000000014002de00     Game.obj
 0002:00001e14       $SG66035                   000000014002de14     Game.obj
 0002:00001e18       $SG66003                   000000014002de18     Game.obj
 0002:00001e4c       $SG66046                   000000014002de4c     Game.obj
 0002:00001e50       $SG66012                   000000014002de50     Game.obj
 0002:00001e68       $SG66014                   000000014002de68     Game.obj
 0002:00001e98       $SG66023                   000000014002de98     Game.obj
 0002:00001eb0       $SG66025                   000000014002deb0     Game.obj
 0002:00001ee0       $SG66034                   000000014002dee0     Game.obj
 0002:00001ef4       $SG66057                   000000014002def4     Game.obj
 0002:00001ef8       $SG66036                   000000014002def8     Game.obj
 0002:00001f24       $SG66068                   000000014002df24     Game.obj
 0002:00001f28       $SG66045                   000000014002df28     Game.obj
 0002:00001f40       $SG66047                   000000014002df40     Game.obj
 0002:00001f70       $SG66056                   000000014002df70     Game.obj
 0002:00001f88       $SG66058                   000000014002df88     Game.obj
 0002:00001fbc       $SG66518                   000000014002dfbc     Game.obj
 0002:00001fc0       $SG66067                   000000014002dfc0     Game.obj
 0002:00001fd8       $SG66069                   000000014002dfd8     Game.obj
 0002:0000200c       $SG66891                   000000014002e00c     Game.obj
 0002:00002010       $SG66515                   000000014002e010     Game.obj
 0002:0000201c       $SG66892                   000000014002e01c     Game.obj
 0002:00002020       $SG66519                   000000014002e020     Game.obj
 0002:00002034       $SG66893                   000000014002e034     Game.obj
 0002:00002038       $SG66520                   000000014002e038     Game.obj
 0002:0000204c       $SG66894                   000000014002e04c     Game.obj
 0002:00002050       $SG66885                   000000014002e050     Game.obj
 0002:0000205c       $SG66888                   000000014002e05c     Game.obj
 0002:00002064       $SG66889                   000000014002e064     Game.obj
 0002:0000206c       $SG66895                   000000014002e06c     Game.obj
 0002:00002070       $SG66890                   000000014002e070     Game.obj
 0002:00002084       $SG66896                   000000014002e084     Game.obj
 0002:00002088       $SG66897                   000000014002e088     Game.obj
 0002:0000208c       $SG66898                   000000014002e08c     Game.obj
 0002:00002090       $SG66899                   000000014002e090     Game.obj
 0002:00002094       $SG66900                   000000014002e094     Game.obj
 0002:00002098       $SG66901                   000000014002e098     Game.obj
 0002:0000209c       $SG66902                   000000014002e09c     Game.obj
 0002:000020a0       $SG66903                   000000014002e0a0     Game.obj
 0002:000020a4       $SG66904                   000000014002e0a4     Game.obj
 0002:000020a8       $SG66905                   000000014002e0a8     Game.obj
 0002:000020ac       $SG66906                   000000014002e0ac     Game.obj
 0002:000020b0       $SG66907                   000000014002e0b0     Game.obj
 0002:000020b4       $SG66908                   000000014002e0b4     Game.obj
 0002:000020b8       $SG66909                   000000014002e0b8     Game.obj
 0002:000020bc       $SG66910                   000000014002e0bc     Game.obj
 0002:000020c0       $SG66911                   000000014002e0c0     Game.obj
 0002:000020d4       $SG67294                   000000014002e0d4     Game.obj
 0002:000020dc       $SG67316                   000000014002e0dc     Game.obj
 0002:000020e0       $SG67315                   000000014002e0e0     Game.obj
 0002:000020ec       $SG69540                   000000014002e0ec     Game.obj
 0002:000020f0       $SG69535                   000000014002e0f0     Game.obj
 0002:000020fc       $SG69541                   000000014002e0fc     Game.obj
 0002:00002100       $SG69539                   000000014002e100     Game.obj
 0002:00002110       $SG86364                   000000014002e110     Game.obj
 0002:00002178       $SG87623                   000000014002e178     Game.obj
 0002:0000218c       $SG87624                   000000014002e18c     Game.obj
 0002:00002190       $SG87625                   000000014002e190     Game.obj
 0002:000021f8       $SG87628                   000000014002e1f8     Game.obj
 0002:00002220       $SG87626                   000000014002e220     Game.obj
 0002:000022f0       $SG87627                   000000014002e2f0     Game.obj
 0002:00002340       ?_Swap_proxy_and_iterators@_Container_base12@std@@QEAAXAEAU12@@Z$rtcName$0 000000014002e340     Game.obj
 0002:00002350       ?_Swap_proxy_and_iterators@_Container_base12@std@@QEAAXAEAU12@@Z$rtcVarDesc 000000014002e350     Game.obj
 0002:00002390       ?_Swap_proxy_and_iterators@_Container_base12@std@@QEAAXAEAU12@@Z$rtcFrameData 000000014002e390     Game.obj
 0002:000023a0       ??4_Iterator_base12@std@@QEAAAEAU01@AEBU01@@Z$rtcName$0 000000014002e3a0     Game.obj
 0002:000023b0       ??4_Iterator_base12@std@@QEAAAEAU01@AEBU01@@Z$rtcVarDesc 000000014002e3b0     Game.obj
 0002:000023f0       ??4_Iterator_base12@std@@QEAAAEAU01@AEBU01@@Z$rtcFrameData 000000014002e3f0     Game.obj
 0002:00002400       ??1_Iterator_base12@std@@QEAA@XZ$rtcName$0 000000014002e400     Game.obj
 0002:00002410       ??1_Iterator_base12@std@@QEAA@XZ$rtcVarDesc 000000014002e410     Game.obj
 0002:00002450       ??1_Iterator_base12@std@@QEAA@XZ$rtcFrameData 000000014002e450     Game.obj
 0002:00002460       ?_Adopt@_Iterator_base12@std@@QEAAXPEBU_Container_base12@2@@Z$rtcName$0 000000014002e460     Game.obj
 0002:00002468       ?_Adopt@_Iterator_base12@std@@QEAAXPEBU_Container_base12@2@@Z$rtcName$1 000000014002e468     Game.obj
 0002:00002470       ?_Adopt@_Iterator_base12@std@@QEAAXPEBU_Container_base12@2@@Z$rtcVarDesc 000000014002e470     Game.obj
 0002:000024f0       ?_Adopt@_Iterator_base12@std@@QEAAXPEBU_Container_base12@2@@Z$rtcFrameData 000000014002e4f0     Game.obj
 0002:00002500       ??0?$basic_string@DU?$char_traits@D@std@@V?$allocator@D@2@@std@@QEAA@AEBV01@@Z$rtcName$0 000000014002e500     Game.obj
 0002:00002508       ??0?$basic_string@DU?$char_traits@D@std@@V?$allocator@D@2@@std@@QEAA@AEBV01@@Z$rtcName$1 000000014002e508     Game.obj
 0002:00002510       ??0?$basic_string@DU?$char_traits@D@std@@V?$allocator@D@2@@std@@QEAA@AEBV01@@Z$rtcVarDesc 000000014002e510     Game.obj
 0002:00002590       ??0?$basic_string@DU?$char_traits@D@std@@V?$allocator@D@2@@std@@QEAA@AEBV01@@Z$rtcFrameData 000000014002e590     Game.obj
 0002:000025a0       ??0?$basic_string@DU?$char_traits@D@std@@V?$allocator@D@2@@std@@QEAA@U_String_constructor_concat_tag@1@AEBV01@QEBD_K23@Z$rtcName$0 000000014002e5a0     Game.obj
 0002:000025a8       ??0?$basic_string@DU?$char_traits@D@std@@V?$allocator@D@2@@std@@QEAA@U_String_constructor_concat_tag@1@AEBV01@QEBD_K23@Z$rtcName$1 000000014002e5a8     Game.obj
 0002:000025b0       ??0?$basic_string@DU?$char_traits@D@std@@V?$allocator@D@2@@std@@QEAA@U_String_constructor_concat_tag@1@AEBV01@QEBD_K23@Z$rtcName$2 000000014002e5b0     Game.obj
 0002:000025c0       ??0?$basic_string@DU?$char_traits@D@std@@V?$allocator@D@2@@std@@QEAA@U_String_constructor_concat_tag@1@AEBV01@QEBD_K23@Z$rtcVarDesc 000000014002e5c0     Game.obj
 0002:00002680       ??0?$basic_string@DU?$char_traits@D@std@@V?$allocator@D@2@@std@@QEAA@U_String_constructor_concat_tag@1@AEBV01@QEBD_K23@Z$rtcFrameData 000000014002e680     Game.obj
 0002:00002690       ??0?$basic_string@DU?$char_traits@D@std@@V?$allocator@D@2@@std@@QEAA@U_String_constructor_concat_tag@1@AEAV01@1@Z$rtcName$0 000000014002e690     Game.obj
 0002:00002698       ??0?$basic_string@DU?$char_traits@D@std@@V?$allocator@D@2@@std@@QEAA@U_String_constructor_concat_tag@1@AEAV01@1@Z$rtcName$1 000000014002e698     Game.obj
 0002:000026a0       ??0?$basic_string@DU?$char_traits@D@std@@V?$allocator@D@2@@std@@QEAA@U_String_constructor_concat_tag@1@AEAV01@1@Z$rtcName$2 000000014002e6a0     Game.obj
 0002:000026b0       ??0?$basic_string@DU?$char_traits@D@std@@V?$allocator@D@2@@std@@QEAA@U_String_constructor_concat_tag@1@AEAV01@1@Z$rtcVarDesc 000000014002e6b0     Game.obj
 0002:00002770       ??0?$basic_string@DU?$char_traits@D@std@@V?$allocator@D@2@@std@@QEAA@U_String_constructor_concat_tag@1@AEAV01@1@Z$rtcFrameData 000000014002e770     Game.obj
 0002:00002780       ?_Construct_lv_contents@?$basic_string@DU?$char_traits@D@std@@V?$allocator@D@2@@std@@AEAAXAEBV12@@Z$rtcName$0 000000014002e780     Game.obj
 0002:00002790       ?_Construct_lv_contents@?$basic_string@DU?$char_traits@D@std@@V?$allocator@D@2@@std@@AEAAXAEBV12@@Z$rtcVarDesc 000000014002e790     Game.obj
 0002:000027d0       ?_Construct_lv_contents@?$basic_string@DU?$char_traits@D@std@@V?$allocator@D@2@@std@@AEAAXAEBV12@@Z$rtcFrameData 000000014002e7d0     Game.obj
 0002:000027e0       ??$use_facet@V?$ctype@D@std@@@std@@YAAEBV?$ctype@D@0@AEBVlocale@0@@Z$rtcName$0 000000014002e7e0     Game.obj
 0002:000027e8       ??$use_facet@V?$ctype@D@std@@@std@@YAAEBV?$ctype@D@0@AEBVlocale@0@@Z$rtcName$1 000000014002e7e8     Game.obj
 0002:000027f0       ??$use_facet@V?$ctype@D@std@@@std@@YAAEBV?$ctype@D@0@AEBVlocale@0@@Z$rtcName$2 000000014002e7f0     Game.obj
 0002:00002800       ??$use_facet@V?$ctype@D@std@@@std@@YAAEBV?$ctype@D@0@AEBVlocale@0@@Z$rtcVarDesc 000000014002e800     Game.obj
 0002:000028c0       ??$use_facet@V?$ctype@D@std@@@std@@YAAEBV?$ctype@D@0@AEBVlocale@0@@Z$rtcFrameData 000000014002e8c0     Game.obj
 0002:000028d0       ?stoi@std@@YAHAEBV?$basic_string@DU?$char_traits@D@std@@V?$allocator@D@2@@1@PEA_KH@Z$rtcName$0 000000014002e8d0     Game.obj
 0002:000028e0       ?stoi@std@@YAHAEBV?$basic_string@DU?$char_traits@D@std@@V?$allocator@D@2@@1@PEA_KH@Z$rtcVarDesc 000000014002e8e0     Game.obj
 0002:00002920       ?stoi@std@@YAHAEBV?$basic_string@DU?$char_traits@D@std@@V?$allocator@D@2@@1@PEA_KH@Z$rtcFrameData 000000014002e920     Game.obj
 0002:00002930       ??$_Integral_to_string@DH@std@@YA?AV?$basic_string@DU?$char_traits@D@std@@V?$allocator@D@2@@0@H@Z$rtcName$0 000000014002e930     Game.obj
 0002:00002940       ??$_Integral_to_string@DH@std@@YA?AV?$basic_string@DU?$char_traits@D@std@@V?$allocator@D@2@@0@H@Z$rtcVarDesc 000000014002e940     Game.obj
 0002:00002980       ??$_Integral_to_string@DH@std@@YA?AV?$basic_string@DU?$char_traits@D@std@@V?$allocator@D@2@@0@H@Z$rtcFrameData 000000014002e980     Game.obj
 0002:00002990       ?intersects@?$Rect@M@sf@@QEBA_NAEBV12@@Z$rtcName$0 000000014002e990     Game.obj
 0002:000029a0       ?intersects@?$Rect@M@sf@@QEBA_NAEBV12@@Z$rtcVarDesc 000000014002e9a0     Game.obj
 0002:000029e0       ?intersects@?$Rect@M@sf@@QEBA_NAEBV12@@Z$rtcFrameData 000000014002e9e0     Game.obj
 0002:000029f0       ?intersects@?$Rect@M@sf@@QEBA_NAEBV12@AEAV12@@Z$rtcName$0 000000014002e9f0     Game.obj
 0002:000029f8       ?intersects@?$Rect@M@sf@@QEBA_NAEBV12@AEAV12@@Z$rtcName$1 000000014002e9f8     Game.obj
 0002:00002a00       ?intersects@?$Rect@M@sf@@QEBA_NAEBV12@AEAV12@@Z$rtcName$2 000000014002ea00     Game.obj
 0002:00002a08       ?intersects@?$Rect@M@sf@@QEBA_NAEBV12@AEAV12@@Z$rtcName$3 000000014002ea08     Game.obj
 0002:00002a10       ?intersects@?$Rect@M@sf@@QEBA_NAEBV12@AEAV12@@Z$rtcName$4 000000014002ea10     Game.obj
 0002:00002a18       ?intersects@?$Rect@M@sf@@QEBA_NAEBV12@AEAV12@@Z$rtcName$5 000000014002ea18     Game.obj
 0002:00002a20       ?intersects@?$Rect@M@sf@@QEBA_NAEBV12@AEAV12@@Z$rtcName$6 000000014002ea20     Game.obj
 0002:00002a28       ?intersects@?$Rect@M@sf@@QEBA_NAEBV12@AEAV12@@Z$rtcName$7 000000014002ea28     Game.obj
 0002:00002a30       ?intersects@?$Rect@M@sf@@QEBA_NAEBV12@AEAV12@@Z$rtcVarDesc 000000014002ea30     Game.obj
 0002:00002c30       ?intersects@?$Rect@M@sf@@QEBA_NAEBV12@AEAV12@@Z$rtcFrameData 000000014002ec30     Game.obj
 0002:00002c40       ??0?$vector@V?$basic_string@DU?$char_traits@D@std@@V?$allocator@D@2@@std@@V?$allocator@V?$basic_string@DU?$char_traits@D@std@@V?$allocator@D@2@@std@@@2@@std@@QEAA@AEBV01@@Z$rtcName$0 000000014002ec40     Game.obj
 0002:00002c48       ??0?$vector@V?$basic_string@DU?$char_traits@D@std@@V?$allocator@D@2@@std@@V?$allocator@V?$basic_string@DU?$char_traits@D@std@@V?$allocator@D@2@@std@@@2@@std@@QEAA@AEBV01@@Z$rtcName$1 000000014002ec48     Game.obj
 0002:00002c50       ??0?$vector@V?$basic_string@DU?$char_traits@D@std@@V?$allocator@D@2@@std@@V?$allocator@V?$basic_string@DU?$char_traits@D@std@@V?$allocator@D@2@@std@@@2@@std@@QEAA@AEBV01@@Z$rtcName$2 000000014002ec50     Game.obj
 0002:00002c58       ??0?$vector@V?$basic_string@DU?$char_traits@D@std@@V?$allocator@D@2@@std@@V?$allocator@V?$basic_string@DU?$char_traits@D@std@@V?$allocator@D@2@@std@@@2@@std@@QEAA@AEBV01@@Z$rtcFrameData 000000014002ec58     Game.obj
 0002:00002c70       ??0?$vector@V?$basic_string@DU?$char_traits@D@std@@V?$allocator@D@2@@std@@V?$allocator@V?$basic_string@DU?$char_traits@D@std@@V?$allocator@D@2@@std@@@2@@std@@QEAA@AEBV01@@Z$rtcVarDesc 000000014002ec70     Game.obj
 0002:00002d30       ??1?$vector@V?$basic_string@DU?$char_traits@D@std@@V?$allocator@D@2@@std@@V?$allocator@V?$basic_string@DU?$char_traits@D@std@@V?$allocator@D@2@@std@@@2@@std@@QEAA@XZ$rtcName$0 000000014002ed30     Game.obj
 0002:00002d40       ??1?$vector@V?$basic_string@DU?$char_traits@D@std@@V?$allocator@D@2@@std@@V?$allocator@V?$basic_string@DU?$char_traits@D@std@@V?$allocator@D@2@@std@@@2@@std@@QEAA@XZ$rtcVarDesc 000000014002ed40     Game.obj
 0002:00002d80       ??1?$vector@V?$basic_string@DU?$char_traits@D@std@@V?$allocator@D@2@@std@@V?$allocator@V?$basic_string@DU?$char_traits@D@std@@V?$allocator@D@2@@std@@@2@@std@@QEAA@XZ$rtcFrameData 000000014002ed80     Game.obj
 0002:00002d90       ?_Orphan_range@?$vector@V?$basic_string@DU?$char_traits@D@std@@V?$allocator@D@2@@std@@V?$allocator@V?$basic_string@DU?$char_traits@D@std@@V?$allocator@D@2@@std@@@2@@std@@AEBAXPEAV?$basic_string@DU?$char_traits@D@std@@V?$allocator@D@2@@2@0@Z$rtcName$0 000000014002ed90     Game.obj
 0002:00002da0       ?_Orphan_range@?$vector@V?$basic_string@DU?$char_traits@D@std@@V?$allocator@D@2@@std@@V?$allocator@V?$basic_string@DU?$char_traits@D@std@@V?$allocator@D@2@@std@@@2@@std@@AEBAXPEAV?$basic_string@DU?$char_traits@D@std@@V?$allocator@D@2@@2@0@Z$rtcVarDesc 000000014002eda0     Game.obj
 0002:00002de0       ?_Orphan_range@?$vector@V?$basic_string@DU?$char_traits@D@std@@V?$allocator@D@2@@std@@V?$allocator@V?$basic_string@DU?$char_traits@D@std@@V?$allocator@D@2@@std@@@2@@std@@AEBAXPEAV?$basic_string@DU?$char_traits@D@std@@V?$allocator@D@2@@2@0@Z$rtcFrameData 000000014002ede0     Game.obj
 0002:00002df0       ??1?$_Tree@V?$_Tmap_traits@V?$basic_string@DU?$char_traits@D@std@@V?$allocator@D@2@@std@@PEAVTexture@sf@@U?$less@V?$basic_string@DU?$char_traits@D@std@@V?$allocator@D@2@@std@@@2@V?$allocator@U?$pair@$$CBV?$basic_string@DU?$char_traits@D@std@@V?$allocator@D@2@@std@@PEAVTexture@sf@@@std@@@2@$0A@@std@@@std@@QEAA@XZ$rtcName$0 000000014002edf0     Game.obj
 0002:00002e00       ??1?$_Tree@V?$_Tmap_traits@V?$basic_string@DU?$char_traits@D@std@@V?$allocator@D@2@@std@@PEAVTexture@sf@@U?$less@V?$basic_string@DU?$char_traits@D@std@@V?$allocator@D@2@@std@@@2@V?$allocator@U?$pair@$$CBV?$basic_string@DU?$char_traits@D@std@@V?$allocator@D@2@@std@@PEAVTexture@sf@@@std@@@2@$0A@@std@@@std@@QEAA@XZ$rtcVarDesc 000000014002ee00     Game.obj
 0002:00002e40       ??1?$_Tree@V?$_Tmap_traits@V?$basic_string@DU?$char_traits@D@std@@V?$allocator@D@2@@std@@PEAVTexture@sf@@U?$less@V?$basic_string@DU?$char_traits@D@std@@V?$allocator@D@2@@std@@@2@V?$allocator@U?$pair@$$CBV?$basic_string@DU?$char_traits@D@std@@V?$allocator@D@2@@std@@PEAVTexture@sf@@@std@@@2@$0A@@std@@@std@@QEAA@XZ$rtcFrameData 000000014002ee40     Game.obj
 0002:00002e50       ?_Alloc_sentinel_and_proxy@?$_Tree@V?$_Tmap_traits@V?$basic_string@DU?$char_traits@D@std@@V?$allocator@D@2@@std@@PEAVTexture@sf@@U?$less@V?$basic_string@DU?$char_traits@D@std@@V?$allocator@D@2@@std@@@2@V?$allocator@U?$pair@$$CBV?$basic_string@DU?$char_traits@D@std@@V?$allocator@D@2@@std@@PEAVTexture@sf@@@std@@@2@$0A@@std@@@std@@IEAAXXZ$rtcName$0 000000014002ee50     Game.obj
 0002:00002e58       ?_Alloc_sentinel_and_proxy@?$_Tree@V?$_Tmap_traits@V?$basic_string@DU?$char_traits@D@std@@V?$allocator@D@2@@std@@PEAVTexture@sf@@U?$less@V?$basic_string@DU?$char_traits@D@std@@V?$allocator@D@2@@std@@@2@V?$allocator@U?$pair@$$CBV?$basic_string@DU?$char_traits@D@std@@V?$allocator@D@2@@std@@PEAVTexture@sf@@@std@@@2@$0A@@std@@@std@@IEAAXXZ$rtcName$1 000000014002ee58     Game.obj
 0002:00002e60       ?_Alloc_sentinel_and_proxy@?$_Tree@V?$_Tmap_traits@V?$basic_string@DU?$char_traits@D@std@@V?$allocator@D@2@@std@@PEAVTexture@sf@@U?$less@V?$basic_string@DU?$char_traits@D@std@@V?$allocator@D@2@@std@@@2@V?$allocator@U?$pair@$$CBV?$basic_string@DU?$char_traits@D@std@@V?$allocator@D@2@@std@@PEAVTexture@sf@@@std@@@2@$0A@@std@@@std@@IEAAXXZ$rtcVarDesc 000000014002ee60     Game.obj
 0002:00002ee0       ?_Alloc_sentinel_and_proxy@?$_Tree@V?$_Tmap_traits@V?$basic_string@DU?$char_traits@D@std@@V?$allocator@D@2@@std@@PEAVTexture@sf@@U?$less@V?$basic_string@DU?$char_traits@D@std@@V?$allocator@D@2@@std@@@2@V?$allocator@U?$pair@$$CBV?$basic_string@DU?$char_traits@D@std@@V?$allocator@D@2@@std@@PEAVTexture@sf@@@std@@@2@$0A@@std@@@std@@IEAAXXZ$rtcFrameData 000000014002eee0     Game.obj
 0002:00002ef0       ??1?$vector@PEAVBullet@@V?$allocator@PEAVBullet@@@std@@@std@@QEAA@XZ$rtcName$0 000000014002eef0     Game.obj
 0002:00002f00       ??1?$vector@PEAVBullet@@V?$allocator@PEAVBullet@@@std@@@std@@QEAA@XZ$rtcVarDesc 000000014002ef00     Game.obj
 0002:00002f40       ??1?$vector@PEAVBullet@@V?$allocator@PEAVBullet@@@std@@@std@@QEAA@XZ$rtcFrameData 000000014002ef40     Game.obj
 0002:00002f50       ?_Orphan_range@?$vector@PEAVBullet@@V?$allocator@PEAVBullet@@@std@@@std@@AEBAXPEAPEAVBullet@@0@Z$rtcName$0 000000014002ef50     Game.obj
 0002:00002f60       ?_Orphan_range@?$vector@PEAVBullet@@V?$allocator@PEAVBullet@@@std@@@std@@AEBAXPEAPEAVBullet@@0@Z$rtcVarDesc 000000014002ef60     Game.obj
 0002:00002fa0       ?_Orphan_range@?$vector@PEAVBullet@@V?$allocator@PEAVBullet@@@std@@@std@@AEBAXPEAPEAVBullet@@0@Z$rtcFrameData 000000014002efa0     Game.obj
 0002:00002fb0       ??1?$vector@PEAVEnemies@@V?$allocator@PEAVEnemies@@@std@@@std@@QEAA@XZ$rtcName$0 000000014002efb0     Game.obj
 0002:00002fc0       ??1?$vector@PEAVEnemies@@V?$allocator@PEAVEnemies@@@std@@@std@@QEAA@XZ$rtcVarDesc 000000014002efc0     Game.obj
 0002:00003000       ??1?$vector@PEAVEnemies@@V?$allocator@PEAVEnemies@@@std@@@std@@QEAA@XZ$rtcFrameData 000000014002f000     Game.obj
 0002:00003010       ?_Orphan_range@?$vector@PEAVEnemies@@V?$allocator@PEAVEnemies@@@std@@@std@@AEBAXPEAPEAVEnemies@@0@Z$rtcName$0 000000014002f010     Game.obj
 0002:00003020       ?_Orphan_range@?$vector@PEAVEnemies@@V?$allocator@PEAVEnemies@@@std@@@std@@AEBAXPEAPEAVEnemies@@0@Z$rtcVarDesc 000000014002f020     Game.obj
 0002:00003060       ?_Orphan_range@?$vector@PEAVEnemies@@V?$allocator@PEAVEnemies@@@std@@@std@@AEBAXPEAPEAVEnemies@@0@Z$rtcFrameData 000000014002f060     Game.obj
 0002:00003070       ??1?$vector@PEAVRedEnemy@@V?$allocator@PEAVRedEnemy@@@std@@@std@@QEAA@XZ$rtcName$0 000000014002f070     Game.obj
 0002:00003080       ??1?$vector@PEAVRedEnemy@@V?$allocator@PEAVRedEnemy@@@std@@@std@@QEAA@XZ$rtcVarDesc 000000014002f080     Game.obj
 0002:000030c0       ??1?$vector@PEAVRedEnemy@@V?$allocator@PEAVRedEnemy@@@std@@@std@@QEAA@XZ$rtcFrameData 000000014002f0c0     Game.obj
 0002:000030d0       ?_Orphan_range@?$vector@PEAVRedEnemy@@V?$allocator@PEAVRedEnemy@@@std@@@std@@AEBAXPEAPEAVRedEnemy@@0@Z$rtcName$0 000000014002f0d0     Game.obj
 0002:000030e0       ?_Orphan_range@?$vector@PEAVRedEnemy@@V?$allocator@PEAVRedEnemy@@@std@@@std@@AEBAXPEAPEAVRedEnemy@@0@Z$rtcVarDesc 000000014002f0e0     Game.obj
 0002:00003120       ?_Orphan_range@?$vector@PEAVRedEnemy@@V?$allocator@PEAVRedEnemy@@@std@@@std@@AEBAXPEAPEAVRedEnemy@@0@Z$rtcFrameData 000000014002f120     Game.obj
 0002:00003130       ??1?$vector@PEAVBlueEnemy@@V?$allocator@PEAVBlueEnemy@@@std@@@std@@QEAA@XZ$rtcName$0 000000014002f130     Game.obj
 0002:00003140       ??1?$vector@PEAVBlueEnemy@@V?$allocator@PEAVBlueEnemy@@@std@@@std@@QEAA@XZ$rtcVarDesc 000000014002f140     Game.obj
 0002:00003180       ??1?$vector@PEAVBlueEnemy@@V?$allocator@PEAVBlueEnemy@@@std@@@std@@QEAA@XZ$rtcFrameData 000000014002f180     Game.obj
 0002:00003190       ?_Orphan_range@?$vector@PEAVBlueEnemy@@V?$allocator@PEAVBlueEnemy@@@std@@@std@@AEBAXPEAPEAVBlueEnemy@@0@Z$rtcName$0 000000014002f190     Game.obj
 0002:000031a0       ?_Orphan_range@?$vector@PEAVBlueEnemy@@V?$allocator@PEAVBlueEnemy@@@std@@@std@@AEBAXPEAPEAVBlueEnemy@@0@Z$rtcVarDesc 000000014002f1a0     Game.obj
 0002:000031e0       ?_Orphan_range@?$vector@PEAVBlueEnemy@@V?$allocator@PEAVBlueEnemy@@@std@@@std@@AEBAXPEAPEAVBlueEnemy@@0@Z$rtcFrameData 000000014002f1e0     Game.obj
 0002:000031f0       ??1?$vector@PEAVPotion@@V?$allocator@PEAVPotion@@@std@@@std@@QEAA@XZ$rtcName$0 000000014002f1f0     Game.obj
 0002:00003200       ??1?$vector@PEAVPotion@@V?$allocator@PEAVPotion@@@std@@@std@@QEAA@XZ$rtcVarDesc 000000014002f200     Game.obj
 0002:00003240       ??1?$vector@PEAVPotion@@V?$allocator@PEAVPotion@@@std@@@std@@QEAA@XZ$rtcFrameData 000000014002f240     Game.obj
 0002:00003250       ?_Orphan_range@?$vector@PEAVPotion@@V?$allocator@PEAVPotion@@@std@@@std@@AEBAXPEAPEAVPotion@@0@Z$rtcName$0 000000014002f250     Game.obj
 0002:00003260       ?_Orphan_range@?$vector@PEAVPotion@@V?$allocator@PEAVPotion@@@std@@@std@@AEBAXPEAPEAVPotion@@0@Z$rtcVarDesc 000000014002f260     Game.obj
 0002:000032a0       ?_Orphan_range@?$vector@PEAVPotion@@V?$allocator@PEAVPotion@@@std@@@std@@AEBAXPEAPEAVPotion@@0@Z$rtcFrameData 000000014002f2a0     Game.obj
 0002:000032b0       ??1?$vector@PEAVShield@@V?$allocator@PEAVShield@@@std@@@std@@QEAA@XZ$rtcName$0 000000014002f2b0     Game.obj
 0002:000032c0       ??1?$vector@PEAVShield@@V?$allocator@PEAVShield@@@std@@@std@@QEAA@XZ$rtcVarDesc 000000014002f2c0     Game.obj
 0002:00003300       ??1?$vector@PEAVShield@@V?$allocator@PEAVShield@@@std@@@std@@QEAA@XZ$rtcFrameData 000000014002f300     Game.obj
 0002:00003310       ?_Orphan_range@?$vector@PEAVShield@@V?$allocator@PEAVShield@@@std@@@std@@AEBAXPEAPEAVShield@@0@Z$rtcName$0 000000014002f310     Game.obj
 0002:00003320       ?_Orphan_range@?$vector@PEAVShield@@V?$allocator@PEAVShield@@@std@@@std@@AEBAXPEAPEAVShield@@0@Z$rtcVarDesc 000000014002f320     Game.obj
 0002:00003360       ?_Orphan_range@?$vector@PEAVShield@@V?$allocator@PEAVShield@@@std@@@std@@AEBAXPEAPEAVShield@@0@Z$rtcFrameData 000000014002f360     Game.obj
 0002:00003370       ??1?$vector@V?$vector@V?$basic_string@DU?$char_traits@D@std@@V?$allocator@D@2@@std@@V?$allocator@V?$basic_string@DU?$char_traits@D@std@@V?$allocator@D@2@@std@@@2@@std@@V?$allocator@V?$vector@V?$basic_string@DU?$char_traits@D@std@@V?$allocator@D@2@@std@@V?$allocator@V?$basic_string@DU?$char_traits@D@std@@V?$allocator@D@2@@std@@@2@@std@@@2@@std@@QEAA@XZ$rtcName$0 000000014002f370     Game.obj
 0002:00003380       ??1?$vector@V?$vector@V?$basic_string@DU?$char_traits@D@std@@V?$allocator@D@2@@std@@V?$allocator@V?$basic_string@DU?$char_traits@D@std@@V?$allocator@D@2@@std@@@2@@std@@V?$allocator@V?$vector@V?$basic_string@DU?$char_traits@D@std@@V?$allocator@D@2@@std@@V?$allocator@V?$basic_string@DU?$char_traits@D@std@@V?$allocator@D@2@@std@@@2@@std@@@2@@std@@QEAA@XZ$rtcVarDesc 000000014002f380     Game.obj
 0002:000033c0       ??1?$vector@V?$vector@V?$basic_string@DU?$char_traits@D@std@@V?$allocator@D@2@@std@@V?$allocator@V?$basic_string@DU?$char_traits@D@std@@V?$allocator@D@2@@std@@@2@@std@@V?$allocator@V?$vector@V?$basic_string@DU?$char_traits@D@std@@V?$allocator@D@2@@std@@V?$allocator@V?$basic_string@DU?$char_traits@D@std@@V?$allocator@D@2@@std@@@2@@std@@@2@@std@@QEAA@XZ$rtcFrameData 000000014002f3c0     Game.obj
 0002:000033d0       ?_Orphan_range@?$vector@V?$vector@V?$basic_string@DU?$char_traits@D@std@@V?$allocator@D@2@@std@@V?$allocator@V?$basic_string@DU?$char_traits@D@std@@V?$allocator@D@2@@std@@@2@@std@@V?$allocator@V?$vector@V?$basic_string@DU?$char_traits@D@std@@V?$allocator@D@2@@std@@V?$allocator@V?$basic_string@DU?$char_traits@D@std@@V?$allocator@D@2@@std@@@2@@std@@@2@@std@@AEBAXPEAV?$vector@V?$basic_string@DU?$char_traits@D@std@@V?$allocator@D@2@@std@@V?$allocator@V?$basic_string@DU?$char_traits@D@std@@V?$allocator@D@2@@std@@@2@@2@0@Z$rtcName$0 000000014002f3d0     Game.obj
 0002:000033e0       ?_Orphan_range@?$vector@V?$vector@V?$basic_string@DU?$char_traits@D@std@@V?$allocator@D@2@@std@@V?$allocator@V?$basic_string@DU?$char_traits@D@std@@V?$allocator@D@2@@std@@@2@@std@@V?$allocator@V?$vector@V?$basic_string@DU?$char_traits@D@std@@V?$allocator@D@2@@std@@V?$allocator@V?$basic_string@DU?$char_traits@D@std@@V?$allocator@D@2@@std@@@2@@std@@@2@@std@@AEBAXPEAV?$vector@V?$basic_string@DU?$char_traits@D@std@@V?$allocator@D@2@@std@@V?$allocator@V?$basic_string@DU?$char_traits@D@std@@V?$allocator@D@2@@std@@@2@@2@0@Z$rtcVarDesc 000000014002f3e0     Game.obj
 0002:00003420       ?_Orphan_range@?$vector@V?$vector@V?$basic_string@DU?$char_traits@D@std@@V?$allocator@D@2@@std@@V?$allocator@V?$basic_string@DU?$char_traits@D@std@@V?$allocator@D@2@@std@@@2@@std@@V?$allocator@V?$vector@V?$basic_string@DU?$char_traits@D@std@@V?$allocator@D@2@@std@@V?$allocator@V?$basic_string@DU?$char_traits@D@std@@V?$allocator@D@2@@std@@@2@@std@@@2@@std@@AEBAXPEAV?$vector@V?$basic_string@DU?$char_traits@D@std@@V?$allocator@D@2@@std@@V?$allocator@V?$basic_string@DU?$char_traits@D@std@@V?$allocator@D@2@@std@@@2@@2@0@Z$rtcFrameData 000000014002f420     Game.obj
 0002:00003430       ?readFileScore@Game@@AEAAXXZ$rtcName$0 000000014002f430     Game.obj
 0002:00003434       ?readFileScore@Game@@AEAAXXZ$rtcName$1 000000014002f434     Game.obj
 0002:0000343c       ?readFileScore@Game@@AEAAXXZ$rtcName$2 000000014002f43c     Game.obj
 0002:00003448       ?readFileScore@Game@@AEAAXXZ$rtcFrameData 000000014002f448     Game.obj
 0002:00003460       ?readFileScore@Game@@AEAAXXZ$rtcVarDesc 000000014002f460     Game.obj
 0002:00003520       ??1Game@@UEAA@XZ$rtcName$0 000000014002f520     Game.obj
 0002:00003530       ??1Game@@UEAA@XZ$rtcName$1 000000014002f530     Game.obj
 0002:00003540       ??1Game@@UEAA@XZ$rtcVarDesc 000000014002f540     Game.obj
 0002:000035c0       ??1Game@@UEAA@XZ$rtcFrameData 000000014002f5c0     Game.obj
 0002:000035d0       ?updateAndSaveScore@Game@@QEAAXXZ$rtcName$0 000000014002f5d0     Game.obj
 0002:000035e0       ?updateAndSaveScore@Game@@QEAAXXZ$rtcName$1 000000014002f5e0     Game.obj
 0002:000035f0       ?updateAndSaveScore@Game@@QEAAXXZ$rtcName$2 000000014002f5f0     Game.obj
 0002:00003600       ?updateAndSaveScore@Game@@QEAAXXZ$rtcName$3 000000014002f600     Game.obj
 0002:00003604       ?updateAndSaveScore@Game@@QEAAXXZ$rtcName$7 000000014002f604     Game.obj
 0002:00003608       ?updateAndSaveScore@Game@@QEAAXXZ$rtcName$4 000000014002f608     Game.obj
 0002:00003618       ?updateAndSaveScore@Game@@QEAAXXZ$rtcName$5 000000014002f618     Game.obj
 0002:00003624       ?updateAndSaveScore@Game@@QEAAXXZ$rtcName$6 000000014002f624     Game.obj
 0002:00003630       ?updateAndSaveScore@Game@@QEAAXXZ$rtcName$8 000000014002f630     Game.obj
 0002:00003640       ?updateAndSaveScore@Game@@QEAAXXZ$rtcVarDesc 000000014002f640     Game.obj
 0002:00003880       ?updateAndSaveScore@Game@@QEAAXXZ$rtcFrameData 000000014002f880     Game.obj
 0002:00003890       ?updateGUI@Game@@QEAAXXZ$rtcName$0 000000014002f890     Game.obj
 0002:00003894       ?updateGUI@Game@@QEAAXXZ$rtcName$1 000000014002f894     Game.obj
 0002:000038a0       ?updateGUI@Game@@QEAAXXZ$rtcVarDesc 000000014002f8a0     Game.obj
 0002:00003920       ?updateGUI@Game@@QEAAXXZ$rtcFrameData 000000014002f920     Game.obj
 0002:00003930       ?overflow@?$basic_filebuf@DU?$char_traits@D@std@@@std@@MEAAHH@Z$rtcName$0 000000014002f930     Game.obj
 0002:00003938       ?overflow@?$basic_filebuf@DU?$char_traits@D@std@@@std@@MEAAHH@Z$rtcName$1 000000014002f938     Game.obj
 0002:0000393c       ?overflow@?$basic_filebuf@DU?$char_traits@D@std@@@std@@MEAAHH@Z$rtcName$2 000000014002f93c     Game.obj
 0002:00003944       ?overflow@?$basic_filebuf@DU?$char_traits@D@std@@@std@@MEAAHH@Z$rtcName$3 000000014002f944     Game.obj
 0002:00003950       ?overflow@?$basic_filebuf@DU?$char_traits@D@std@@@std@@MEAAHH@Z$rtcVarDesc 000000014002f950     Game.obj
 0002:00003a50       ?overflow@?$basic_filebuf@DU?$char_traits@D@std@@@std@@MEAAHH@Z$rtcFrameData 000000014002fa50     Game.obj
 0002:00003a60       ?underflow@?$basic_filebuf@DU?$char_traits@D@std@@@std@@MEAAHXZ$rtcName$0 000000014002fa60     Game.obj
 0002:00003a70       ?underflow@?$basic_filebuf@DU?$char_traits@D@std@@@std@@MEAAHXZ$rtcVarDesc 000000014002fa70     Game.obj
 0002:00003ab0       ?underflow@?$basic_filebuf@DU?$char_traits@D@std@@@std@@MEAAHXZ$rtcFrameData 000000014002fab0     Game.obj
 0002:00003ac0       ?uflow@?$basic_filebuf@DU?$char_traits@D@std@@@std@@MEAAHXZ$rtcName$0 000000014002fac0     Game.obj
 0002:00003ac4       ?uflow@?$basic_filebuf@DU?$char_traits@D@std@@@std@@MEAAHXZ$rtcName$1 000000014002fac4     Game.obj
 0002:00003acc       ?uflow@?$basic_filebuf@DU?$char_traits@D@std@@@std@@MEAAHXZ$rtcName$2 000000014002facc     Game.obj
 0002:00003ad4       ?uflow@?$basic_filebuf@DU?$char_traits@D@std@@@std@@MEAAHXZ$rtcName$3 000000014002fad4     Game.obj
 0002:00003ad8       ?uflow@?$basic_filebuf@DU?$char_traits@D@std@@@std@@MEAAHXZ$rtcName$4 000000014002fad8     Game.obj
 0002:00003ae0       ?uflow@?$basic_filebuf@DU?$char_traits@D@std@@@std@@MEAAHXZ$rtcVarDesc 000000014002fae0     Game.obj
 0002:00003c20       ?uflow@?$basic_filebuf@DU?$char_traits@D@std@@@std@@MEAAHXZ$rtcFrameData 000000014002fc20     Game.obj
 0002:00003c30       ?xsgetn@?$basic_filebuf@DU?$char_traits@D@std@@@std@@MEAA_JPEAD_J@Z$rtcName$0 000000014002fc30     Game.obj
 0002:00003c40       ?xsgetn@?$basic_filebuf@DU?$char_traits@D@std@@@std@@MEAA_JPEAD_J@Z$rtcName$1 000000014002fc40     Game.obj
 0002:00003c50       ?xsgetn@?$basic_filebuf@DU?$char_traits@D@std@@@std@@MEAA_JPEAD_J@Z$rtcVarDesc 000000014002fc50     Game.obj
 0002:00003cd0       ?xsgetn@?$basic_filebuf@DU?$char_traits@D@std@@@std@@MEAA_JPEAD_J@Z$rtcFrameData 000000014002fcd0     Game.obj
 0002:00003ce0       ?seekoff@?$basic_filebuf@DU?$char_traits@D@std@@@std@@MEAA?AV?$fpos@U_Mbstatet@@@2@_JHH@Z$rtcName$0 000000014002fce0     Game.obj
 0002:00003cf0       ?seekoff@?$basic_filebuf@DU?$char_traits@D@std@@@std@@MEAA?AV?$fpos@U_Mbstatet@@@2@_JHH@Z$rtcVarDesc 000000014002fcf0     Game.obj
 0002:00003d30       ?seekoff@?$basic_filebuf@DU?$char_traits@D@std@@@std@@MEAA?AV?$fpos@U_Mbstatet@@@2@_JHH@Z$rtcFrameData 000000014002fd30     Game.obj
 0002:00003d40       ?seekpos@?$basic_filebuf@DU?$char_traits@D@std@@@std@@MEAA?AV?$fpos@U_Mbstatet@@@2@V32@H@Z$rtcName$0 000000014002fd40     Game.obj
 0002:00003d50       ?seekpos@?$basic_filebuf@DU?$char_traits@D@std@@@std@@MEAA?AV?$fpos@U_Mbstatet@@@2@V32@H@Z$rtcVarDesc 000000014002fd50     Game.obj
 0002:00003d90       ?seekpos@?$basic_filebuf@DU?$char_traits@D@std@@@std@@MEAA?AV?$fpos@U_Mbstatet@@@2@V32@H@Z$rtcFrameData 000000014002fd90     Game.obj
 0002:00003da0       ?_Init@?$basic_filebuf@DU?$char_traits@D@std@@@std@@IEAAXPEAU_iobuf@@W4_Initfl@12@@Z$rtcName$0 000000014002fda0     Game.obj
 0002:00003da4       ?_Init@?$basic_filebuf@DU?$char_traits@D@std@@@std@@IEAAXPEAU_iobuf@@W4_Initfl@12@@Z$rtcName$1 000000014002fda4     Game.obj
 0002:00003da8       ?_Init@?$basic_filebuf@DU?$char_traits@D@std@@@std@@IEAAXPEAU_iobuf@@W4_Initfl@12@@Z$rtcName$2 000000014002fda8     Game.obj
 0002:00003db0       ?_Init@?$basic_filebuf@DU?$char_traits@D@std@@@std@@IEAAXPEAU_iobuf@@W4_Initfl@12@@Z$rtcVarDesc 000000014002fdb0     Game.obj
 0002:00003e70       ?_Init@?$basic_filebuf@DU?$char_traits@D@std@@@std@@IEAAXPEAU_iobuf@@W4_Initfl@12@@Z$rtcFrameData 000000014002fe70     Game.obj
 0002:00003e80       ?_Endwrite@?$basic_filebuf@DU?$char_traits@D@std@@@std@@IEAA_NXZ$rtcName$0 000000014002fe80     Game.obj
 0002:00003e88       ?_Endwrite@?$basic_filebuf@DU?$char_traits@D@std@@@std@@IEAA_NXZ$rtcName$1 000000014002fe88     Game.obj
 0002:00003e90       ?_Endwrite@?$basic_filebuf@DU?$char_traits@D@std@@@std@@IEAA_NXZ$rtcVarDesc 000000014002fe90     Game.obj
 0002:00003f10       ?_Endwrite@?$basic_filebuf@DU?$char_traits@D@std@@@std@@IEAA_NXZ$rtcFrameData 000000014002ff10     Game.obj
 0002:00003f20       ?str@?$basic_stringbuf@DU?$char_traits@D@std@@V?$allocator@D@2@@std@@QEBA?AV?$basic_string@DU?$char_traits@D@std@@V?$allocator@D@2@@2@XZ$rtcName$0 000000014002ff20     Game.obj
 0002:00003f30       ?str@?$basic_stringbuf@DU?$char_traits@D@std@@V?$allocator@D@2@@std@@QEBA?AV?$basic_string@DU?$char_traits@D@std@@V?$allocator@D@2@@2@XZ$rtcVarDesc 000000014002ff30     Game.obj
 0002:00003f70       ?str@?$basic_stringbuf@DU?$char_traits@D@std@@V?$allocator@D@2@@std@@QEBA?AV?$basic_string@DU?$char_traits@D@std@@V?$allocator@D@2@@2@XZ$rtcFrameData 000000014002ff70     Game.obj
 0002:00003f80       ?underflow@?$basic_stringbuf@DU?$char_traits@D@std@@V?$allocator@D@2@@std@@MEAAHXZ$rtcName$0 000000014002ff80     Game.obj
 0002:00003f90       ?underflow@?$basic_stringbuf@DU?$char_traits@D@std@@V?$allocator@D@2@@std@@MEAAHXZ$rtcVarDesc 000000014002ff90     Game.obj
 0002:00003fd0       ?underflow@?$basic_stringbuf@DU?$char_traits@D@std@@V?$allocator@D@2@@std@@MEAAHXZ$rtcFrameData 000000014002ffd0     Game.obj
 0002:00003fe0       ??$?5DU?$char_traits@D@std@@V?$allocator@D@1@@std@@YAAEAV?$basic_istream@DU?$char_traits@D@std@@@0@$$QEAV10@AEAV?$basic_string@DU?$char_traits@D@std@@V?$allocator@D@2@@0@@Z$rtcName$0 000000014002ffe0     Game.obj
 0002:00003fe4       ??$?5DU?$char_traits@D@std@@V?$allocator@D@1@@std@@YAAEAV?$basic_istream@DU?$char_traits@D@std@@@0@$$QEAV10@AEAV?$basic_string@DU?$char_traits@D@std@@V?$allocator@D@2@@0@@Z$rtcName$1 000000014002ffe4     Game.obj
 0002:00003ff0       ??$?5DU?$char_traits@D@std@@V?$allocator@D@1@@std@@YAAEAV?$basic_istream@DU?$char_traits@D@std@@@0@$$QEAV10@AEAV?$basic_string@DU?$char_traits@D@std@@V?$allocator@D@2@@0@@Z$rtcVarDesc 000000014002fff0     Game.obj
 0002:00004070       ??$?5DU?$char_traits@D@std@@V?$allocator@D@1@@std@@YAAEAV?$basic_istream@DU?$char_traits@D@std@@@0@$$QEAV10@AEAV?$basic_string@DU?$char_traits@D@std@@V?$allocator@D@2@@0@@Z$rtcFrameData 0000000140030070     Game.obj
 0002:00004080       ??H?$_Vector_iterator@V?$_Vector_val@U?$_Simple_types@PEAVBullet@@@std@@@std@@@std@@QEBA?AV01@_J@Z$rtcName$0 0000000140030080     Game.obj
 0002:00004090       ??H?$_Vector_iterator@V?$_Vector_val@U?$_Simple_types@PEAVBullet@@@std@@@std@@@std@@QEBA?AV01@_J@Z$rtcVarDesc 0000000140030090     Game.obj
 0002:000040d0       ??H?$_Vector_iterator@V?$_Vector_val@U?$_Simple_types@PEAVBullet@@@std@@@std@@@std@@QEBA?AV01@_J@Z$rtcFrameData 00000001400300d0     Game.obj
 0002:000040e0       ??H?$_Vector_iterator@V?$_Vector_val@U?$_Simple_types@PEAVEnemies@@@std@@@std@@@std@@QEBA?AV01@_J@Z$rtcName$0 00000001400300e0     Game.obj
 0002:000040f0       ??H?$_Vector_iterator@V?$_Vector_val@U?$_Simple_types@PEAVEnemies@@@std@@@std@@@std@@QEBA?AV01@_J@Z$rtcVarDesc 00000001400300f0     Game.obj
 0002:00004130       ??H?$_Vector_iterator@V?$_Vector_val@U?$_Simple_types@PEAVEnemies@@@std@@@std@@@std@@QEBA?AV01@_J@Z$rtcFrameData 0000000140030130     Game.obj
 0002:00004140       ??H?$_Vector_iterator@V?$_Vector_val@U?$_Simple_types@PEAVRedEnemy@@@std@@@std@@@std@@QEBA?AV01@_J@Z$rtcName$0 0000000140030140     Game.obj
 0002:00004150       ??H?$_Vector_iterator@V?$_Vector_val@U?$_Simple_types@PEAVRedEnemy@@@std@@@std@@@std@@QEBA?AV01@_J@Z$rtcVarDesc 0000000140030150     Game.obj
 0002:00004190       ??H?$_Vector_iterator@V?$_Vector_val@U?$_Simple_types@PEAVRedEnemy@@@std@@@std@@@std@@QEBA?AV01@_J@Z$rtcFrameData 0000000140030190     Game.obj
 0002:000041a0       ??H?$_Vector_iterator@V?$_Vector_val@U?$_Simple_types@PEAVBlueEnemy@@@std@@@std@@@std@@QEBA?AV01@_J@Z$rtcName$0 00000001400301a0     Game.obj
 0002:000041b0       ??H?$_Vector_iterator@V?$_Vector_val@U?$_Simple_types@PEAVBlueEnemy@@@std@@@std@@@std@@QEBA?AV01@_J@Z$rtcVarDesc 00000001400301b0     Game.obj
 0002:000041f0       ??H?$_Vector_iterator@V?$_Vector_val@U?$_Simple_types@PEAVBlueEnemy@@@std@@@std@@@std@@QEBA?AV01@_J@Z$rtcFrameData 00000001400301f0     Game.obj
 0002:00004200       ??H?$_Vector_iterator@V?$_Vector_val@U?$_Simple_types@PEAVPotion@@@std@@@std@@@std@@QEBA?AV01@_J@Z$rtcName$0 0000000140030200     Game.obj
 0002:00004210       ??H?$_Vector_iterator@V?$_Vector_val@U?$_Simple_types@PEAVPotion@@@std@@@std@@@std@@QEBA?AV01@_J@Z$rtcVarDesc 0000000140030210     Game.obj
 0002:00004250       ??H?$_Vector_iterator@V?$_Vector_val@U?$_Simple_types@PEAVPotion@@@std@@@std@@@std@@QEBA?AV01@_J@Z$rtcFrameData 0000000140030250     Game.obj
 0002:00004260       ??H?$_Vector_iterator@V?$_Vector_val@U?$_Simple_types@PEAVShield@@@std@@@std@@@std@@QEBA?AV01@_J@Z$rtcName$0 0000000140030260     Game.obj
 0002:00004270       ??H?$_Vector_iterator@V?$_Vector_val@U?$_Simple_types@PEAVShield@@@std@@@std@@@std@@QEBA?AV01@_J@Z$rtcVarDesc 0000000140030270     Game.obj
 0002:000042b0       ??H?$_Vector_iterator@V?$_Vector_val@U?$_Simple_types@PEAVShield@@@std@@@std@@@std@@QEBA?AV01@_J@Z$rtcFrameData 00000001400302b0     Game.obj
 0002:000042c0       ??1?$vector@UNameWithScore@?1??updateAndSaveScore@Game@@QEAAXXZ@V?$allocator@UNameWithScore@?1??updateAndSaveScore@Game@@QEAAXXZ@@std@@@std@@QEAA@XZ$rtcName$0 00000001400302c0     Game.obj
 0002:000042d0       ??1?$vector@UNameWithScore@?1??updateAndSaveScore@Game@@QEAAXXZ@V?$allocator@UNameWithScore@?1??updateAndSaveScore@Game@@QEAAXXZ@@std@@@std@@QEAA@XZ$rtcVarDesc 00000001400302d0     Game.obj
 0002:00004310       ??1?$vector@UNameWithScore@?1??updateAndSaveScore@Game@@QEAAXXZ@V?$allocator@UNameWithScore@?1??updateAndSaveScore@Game@@QEAAXXZ@@std@@@std@@QEAA@XZ$rtcFrameData 0000000140030310     Game.obj
 0002:00004320       ?_Orphan_range@?$vector@UNameWithScore@?1??updateAndSaveScore@Game@@QEAAXXZ@V?$allocator@UNameWithScore@?1??updateAndSaveScore@Game@@QEAAXXZ@@std@@@std@@AEBAXPEAUNameWithScore@?1??updateAndSaveScore@Game@@QEAAXXZ@0@Z$rtcName$0 0000000140030320     Game.obj
 0002:00004330       ?_Orphan_range@?$vector@UNameWithScore@?1??updateAndSaveScore@Game@@QEAAXXZ@V?$allocator@UNameWithScore@?1??updateAndSaveScore@Game@@QEAAXXZ@@std@@@std@@AEBAXPEAUNameWithScore@?1??updateAndSaveScore@Game@@QEAAXXZ@0@Z$rtcVarDesc 0000000140030330     Game.obj
 0002:00004370       ?_Orphan_range@?$vector@UNameWithScore@?1??updateAndSaveScore@Game@@QEAAXXZ@V?$allocator@UNameWithScore@?1??updateAndSaveScore@Game@@QEAAXXZ@@std@@@std@@AEBAXPEAUNameWithScore@?1??updateAndSaveScore@Game@@QEAAXXZ@0@Z$rtcFrameData 0000000140030370     Game.obj
 0002:00004380       ??$use_facet@V?$codecvt@DDU_Mbstatet@@@std@@@std@@YAAEBV?$codecvt@DDU_Mbstatet@@@0@AEBVlocale@0@@Z$rtcName$0 0000000140030380     Game.obj
 0002:00004388       ??$use_facet@V?$codecvt@DDU_Mbstatet@@@std@@@std@@YAAEBV?$codecvt@DDU_Mbstatet@@@0@AEBVlocale@0@@Z$rtcName$1 0000000140030388     Game.obj
 0002:00004390       ??$use_facet@V?$codecvt@DDU_Mbstatet@@@std@@@std@@YAAEBV?$codecvt@DDU_Mbstatet@@@0@AEBVlocale@0@@Z$rtcName$2 0000000140030390     Game.obj
 0002:000043a0       ??$use_facet@V?$codecvt@DDU_Mbstatet@@@std@@@std@@YAAEBV?$codecvt@DDU_Mbstatet@@@0@AEBVlocale@0@@Z$rtcVarDesc 00000001400303a0     Game.obj
 0002:00004460       ??$use_facet@V?$codecvt@DDU_Mbstatet@@@std@@@std@@YAAEBV?$codecvt@DDU_Mbstatet@@@0@AEBVlocale@0@@Z$rtcFrameData 0000000140030460     Game.obj
 0002:00004470       ??$_Try_emplace@V?$basic_string@DU?$char_traits@D@std@@V?$allocator@D@2@@std@@$$V@?$map@V?$basic_string@DU?$char_traits@D@std@@V?$allocator@D@2@@std@@PEAVTexture@sf@@U?$less@V?$basic_string@DU?$char_traits@D@std@@V?$allocator@D@2@@std@@@2@V?$allocator@U?$pair@$$CBV?$basic_string@DU?$char_traits@D@std@@V?$allocator@D@2@@std@@PEAVTexture@sf@@@std@@@2@@std@@AEAA?AU?$pair@PEAU?$_Tree_node@U?$pair@$$CBV?$basic_string@DU?$char_traits@D@std@@V?$allocator@D@2@@std@@PEAVTexture@sf@@@std@@PEAX@std@@_N@1@$$QEAV?$basic_string@DU?$char_traits@D@std@@V?$allocator@D@2@@1@@Z$rtcName$0 0000000140030470     Game.obj
 0002:00004480       ??$_Try_emplace@V?$basic_string@DU?$char_traits@D@std@@V?$allocator@D@2@@std@@$$V@?$map@V?$basic_string@DU?$char_traits@D@std@@V?$allocator@D@2@@std@@PEAVTexture@sf@@U?$less@V?$basic_string@DU?$char_traits@D@std@@V?$allocator@D@2@@std@@@2@V?$allocator@U?$pair@$$CBV?$basic_string@DU?$char_traits@D@std@@V?$allocator@D@2@@std@@PEAVTexture@sf@@@std@@@2@@std@@AEAA?AU?$pair@PEAU?$_Tree_node@U?$pair@$$CBV?$basic_string@DU?$char_traits@D@std@@V?$allocator@D@2@@std@@PEAVTexture@sf@@@std@@PEAX@std@@_N@1@$$QEAV?$basic_string@DU?$char_traits@D@std@@V?$allocator@D@2@@1@@Z$rtcVarDesc 0000000140030480     Game.obj
 0002:000044c0       ??$_Try_emplace@V?$basic_string@DU?$char_traits@D@std@@V?$allocator@D@2@@std@@$$V@?$map@V?$basic_string@DU?$char_traits@D@std@@V?$allocator@D@2@@std@@PEAVTexture@sf@@U?$less@V?$basic_string@DU?$char_traits@D@std@@V?$allocator@D@2@@std@@@2@V?$allocator@U?$pair@$$CBV?$basic_string@DU?$char_traits@D@std@@V?$allocator@D@2@@std@@PEAVTexture@sf@@@std@@@2@@std@@AEAA?AU?$pair@PEAU?$_Tree_node@U?$pair@$$CBV?$basic_string@DU?$char_traits@D@std@@V?$allocator@D@2@@std@@PEAVTexture@sf@@@std@@PEAX@std@@_N@1@$$QEAV?$basic_string@DU?$char_traits@D@std@@V?$allocator@D@2@@1@@Z$rtcFrameData 00000001400304c0     Game.obj
 0002:000044d0       ??$_Reallocate_grow_by@V<lambda_319d5e083f45f90dcdce5dce53cbb275>@@D@?$basic_string@DU?$char_traits@D@std@@V?$allocator@D@2@@std@@AEAAAEAV01@_KV<lambda_319d5e083f45f90dcdce5dce53cbb275>@@D@Z$rtcName$0 00000001400304d0     Game.obj
 0002:000044e0       ??$_Reallocate_grow_by@V<lambda_319d5e083f45f90dcdce5dce53cbb275>@@D@?$basic_string@DU?$char_traits@D@std@@V?$allocator@D@2@@std@@AEAAAEAV01@_KV<lambda_319d5e083f45f90dcdce5dce53cbb275>@@D@Z$rtcVarDesc 00000001400304e0     Game.obj
 0002:00004520       ??$_Reallocate_grow_by@V<lambda_319d5e083f45f90dcdce5dce53cbb275>@@D@?$basic_string@DU?$char_traits@D@std@@V?$allocator@D@2@@std@@AEAAAEAV01@_KV<lambda_319d5e083f45f90dcdce5dce53cbb275>@@D@Z$rtcFrameData 0000000140030520     Game.obj
 0002:00004530       ??$_Reallocate_grow_by@V<lambda_65e615be2a453ca0576c979606f46740>@@PEBD_K@?$basic_string@DU?$char_traits@D@std@@V?$allocator@D@2@@std@@AEAAAEAV01@_KV<lambda_65e615be2a453ca0576c979606f46740>@@PEBD_K@Z$rtcName$0 0000000140030530     Game.obj
 0002:00004540       ??$_Reallocate_grow_by@V<lambda_65e615be2a453ca0576c979606f46740>@@PEBD_K@?$basic_string@DU?$char_traits@D@std@@V?$allocator@D@2@@std@@AEAAAEAV01@_KV<lambda_65e615be2a453ca0576c979606f46740>@@PEBD_K@Z$rtcVarDesc 0000000140030540     Game.obj
 0002:00004580       ??$_Reallocate_grow_by@V<lambda_65e615be2a453ca0576c979606f46740>@@PEBD_K@?$basic_string@DU?$char_traits@D@std@@V?$allocator@D@2@@std@@AEAAAEAV01@_KV<lambda_65e615be2a453ca0576c979606f46740>@@PEBD_K@Z$rtcFrameData 0000000140030580     Game.obj
 0002:00004590       ??$_Buyheadnode@V?$allocator@U?$_Tree_node@U?$pair@$$CBV?$basic_string@DU?$char_traits@D@std@@V?$allocator@D@2@@std@@PEAVTexture@sf@@@std@@PEAX@std@@@std@@@?$_Tree_node@U?$pair@$$CBV?$basic_string@DU?$char_traits@D@std@@V?$allocator@D@2@@std@@PEAVTexture@sf@@@std@@PEAX@std@@SAPEAU01@AEAV?$allocator@U?$_Tree_node@U?$pair@$$CBV?$basic_string@DU?$char_traits@D@std@@V?$allocator@D@2@@std@@PEAVTexture@sf@@@std@@PEAX@std@@@1@@Z$rtcName$0 0000000140030590     Game.obj
 0002:000045a0       ??$_Buyheadnode@V?$allocator@U?$_Tree_node@U?$pair@$$CBV?$basic_string@DU?$char_traits@D@std@@V?$allocator@D@2@@std@@PEAVTexture@sf@@@std@@PEAX@std@@@std@@@?$_Tree_node@U?$pair@$$CBV?$basic_string@DU?$char_traits@D@std@@V?$allocator@D@2@@std@@PEAVTexture@sf@@@std@@PEAX@std@@SAPEAU01@AEAV?$allocator@U?$_Tree_node@U?$pair@$$CBV?$basic_string@DU?$char_traits@D@std@@V?$allocator@D@2@@std@@PEAVTexture@sf@@@std@@PEAX@std@@@1@@Z$rtcVarDesc 00000001400305a0     Game.obj
 0002:000045e0       ??$_Buyheadnode@V?$allocator@U?$_Tree_node@U?$pair@$$CBV?$basic_string@DU?$char_traits@D@std@@V?$allocator@D@2@@std@@PEAVTexture@sf@@@std@@PEAX@std@@@std@@@?$_Tree_node@U?$pair@$$CBV?$basic_string@DU?$char_traits@D@std@@V?$allocator@D@2@@std@@PEAVTexture@sf@@@std@@PEAX@std@@SAPEAU01@AEAV?$allocator@U?$_Tree_node@U?$pair@$$CBV?$basic_string@DU?$char_traits@D@std@@V?$allocator@D@2@@std@@PEAVTexture@sf@@@std@@PEAX@std@@@1@@Z$rtcFrameData 00000001400305e0     Game.obj
 0002:000045f0       ??$?0PEAD$0A@@?$basic_string@DU?$char_traits@D@std@@V?$allocator@D@2@@std@@QEAA@PEAD0AEBV?$allocator@D@1@@Z$rtcName$0 00000001400305f0     Game.obj
 0002:000045f8       ??$?0PEAD$0A@@?$basic_string@DU?$char_traits@D@std@@V?$allocator@D@2@@std@@QEAA@PEAD0AEBV?$allocator@D@1@@Z$rtcName$1 00000001400305f8     Game.obj
 0002:00004600       ??$?0PEAD$0A@@?$basic_string@DU?$char_traits@D@std@@V?$allocator@D@2@@std@@QEAA@PEAD0AEBV?$allocator@D@1@@Z$rtcVarDesc 0000000140030600     Game.obj
 0002:00004680       ??$?0PEAD$0A@@?$basic_string@DU?$char_traits@D@std@@V?$allocator@D@2@@std@@QEAA@PEAD0AEBV?$allocator@D@1@@Z$rtcFrameData 0000000140030680     Game.obj
 0002:00004690       ??$_Insert_string@DU?$char_traits@D@std@@_K@std@@YAAEAV?$basic_ostream@DU?$char_traits@D@std@@@0@AEAV10@QEBD_K@Z$rtcName$0 0000000140030690     Game.obj
 0002:000046a0       ??$_Insert_string@DU?$char_traits@D@std@@_K@std@@YAAEAV?$basic_ostream@DU?$char_traits@D@std@@@0@AEAV10@QEBD_K@Z$rtcVarDesc 00000001400306a0     Game.obj
 0002:000046e0       ??$_Insert_string@DU?$char_traits@D@std@@_K@std@@YAAEAV?$basic_ostream@DU?$char_traits@D@std@@@0@AEAV10@QEBD_K@Z$rtcFrameData 00000001400306e0     Game.obj
 0002:000046f0       ??$_Sort_unchecked@PEAUNameWithScore@?1??updateAndSaveScore@Game@@QEAAXXZ@V<lambda_7f61bf8b8214578533bd69dcbefb5615>@@@std@@YAXPEAUNameWithScore@?1??updateAndSaveScore@Game@@QEAAXXZ@0_JV<lambda_7f61bf8b8214578533bd69dcbefb5615>@@@Z$rtcName$0 00000001400306f0     Game.obj
 0002:00004700       ??$_Sort_unchecked@PEAUNameWithScore@?1??updateAndSaveScore@Game@@QEAAXXZ@V<lambda_7f61bf8b8214578533bd69dcbefb5615>@@@std@@YAXPEAUNameWithScore@?1??updateAndSaveScore@Game@@QEAAXXZ@0_JV<lambda_7f61bf8b8214578533bd69dcbefb5615>@@@Z$rtcVarDesc 0000000140030700     Game.obj
 0002:00004740       ??$_Sort_unchecked@PEAUNameWithScore@?1??updateAndSaveScore@Game@@QEAAXXZ@V<lambda_7f61bf8b8214578533bd69dcbefb5615>@@@std@@YAXPEAUNameWithScore@?1??updateAndSaveScore@Game@@QEAAXXZ@0_JV<lambda_7f61bf8b8214578533bd69dcbefb5615>@@@Z$rtcFrameData 0000000140030740     Game.obj
 0002:00004750       ??$_Find_lower_bound@V?$basic_string@DU?$char_traits@D@std@@V?$allocator@D@2@@std@@@?$_Tree@V?$_Tmap_traits@V?$basic_string@DU?$char_traits@D@std@@V?$allocator@D@2@@std@@PEAVTexture@sf@@U?$less@V?$basic_string@DU?$char_traits@D@std@@V?$allocator@D@2@@std@@@2@V?$allocator@U?$pair@$$CBV?$basic_string@DU?$char_traits@D@std@@V?$allocator@D@2@@std@@PEAVTexture@sf@@@std@@@2@$0A@@std@@@std@@IEBA?AU?$_Tree_find_result@PEAU?$_Tree_node@U?$pair@$$CBV?$basic_string@DU?$char_traits@D@std@@V?$allocator@D@2@@std@@PEAVTexture@sf@@@std@@PEAX@std@@@1@AEBV?$basic_string@DU?$char_traits@D@std@@V?$allocator@D@2@@1@@Z$rtcName$0 0000000140030750     Game.obj
 0002:00004760       ??$_Find_lower_bound@V?$basic_string@DU?$char_traits@D@std@@V?$allocator@D@2@@std@@@?$_Tree@V?$_Tmap_traits@V?$basic_string@DU?$char_traits@D@std@@V?$allocator@D@2@@std@@PEAVTexture@sf@@U?$less@V?$basic_string@DU?$char_traits@D@std@@V?$allocator@D@2@@std@@@2@V?$allocator@U?$pair@$$CBV?$basic_string@DU?$char_traits@D@std@@V?$allocator@D@2@@std@@PEAVTexture@sf@@@std@@@2@$0A@@std@@@std@@IEBA?AU?$_Tree_find_result@PEAU?$_Tree_node@U?$pair@$$CBV?$basic_string@DU?$char_traits@D@std@@V?$allocator@D@2@@std@@PEAVTexture@sf@@@std@@PEAX@std@@@1@AEBV?$basic_string@DU?$char_traits@D@std@@V?$allocator@D@2@@1@@Z$rtcVarDesc 0000000140030760     Game.obj
 0002:000047a0       ??$_Find_lower_bound@V?$basic_string@DU?$char_traits@D@std@@V?$allocator@D@2@@std@@@?$_Tree@V?$_Tmap_traits@V?$basic_string@DU?$char_traits@D@std@@V?$allocator@D@2@@std@@PEAVTexture@sf@@U?$less@V?$basic_string@DU?$char_traits@D@std@@V?$allocator@D@2@@std@@@2@V?$allocator@U?$pair@$$CBV?$basic_string@DU?$char_traits@D@std@@V?$allocator@D@2@@std@@PEAVTexture@sf@@@std@@@2@$0A@@std@@@std@@IEBA?AU?$_Tree_find_result@PEAU?$_Tree_node@U?$pair@$$CBV?$basic_string@DU?$char_traits@D@std@@V?$allocator@D@2@@std@@PEAVTexture@sf@@@std@@PEAX@std@@@1@AEBV?$basic_string@DU?$char_traits@D@std@@V?$allocator@D@2@@1@@Z$rtcFrameData 00000001400307a0     Game.obj
 0002:000047b0       ??$_Uninitialized_move@PEAUNameWithScore@?1??updateAndSaveScore@Game@@QEAAXXZ@V?$allocator@UNameWithScore@?1??updateAndSaveScore@Game@@QEAAXXZ@@std@@@std@@YAPEAUNameWithScore@?1??updateAndSaveScore@Game@@QEAAXXZ@QEAU1?1??23@QEAAXXZ@0PEAU1?1??23@QEAAXXZ@AEAV?$allocator@UNameWithScore@?1??updateAndSaveScore@Game@@QEAAXXZ@@0@@Z$rtcName$0 00000001400307b0     Game.obj
 0002:000047c0       ??$_Uninitialized_move@PEAUNameWithScore@?1??updateAndSaveScore@Game@@QEAAXXZ@V?$allocator@UNameWithScore@?1??updateAndSaveScore@Game@@QEAAXXZ@@std@@@std@@YAPEAUNameWithScore@?1??updateAndSaveScore@Game@@QEAAXXZ@QEAU1?1??23@QEAAXXZ@0PEAU1?1??23@QEAAXXZ@AEAV?$allocator@UNameWithScore@?1??updateAndSaveScore@Game@@QEAAXXZ@@0@@Z$rtcVarDesc 00000001400307c0     Game.obj
 0002:00004800       ??$_Uninitialized_move@PEAUNameWithScore@?1??updateAndSaveScore@Game@@QEAAXXZ@V?$allocator@UNameWithScore@?1??updateAndSaveScore@Game@@QEAAXXZ@@std@@@std@@YAPEAUNameWithScore@?1??updateAndSaveScore@Game@@QEAAXXZ@QEAU1?1??23@QEAAXXZ@0PEAU1?1??23@QEAAXXZ@AEAV?$allocator@UNameWithScore@?1??updateAndSaveScore@Game@@QEAAXXZ@@0@@Z$rtcFrameData 0000000140030800     Game.obj
 0002:00004810       ??$_Uninitialized_move@PEAV?$vector@V?$basic_string@DU?$char_traits@D@std@@V?$allocator@D@2@@std@@V?$allocator@V?$basic_string@DU?$char_traits@D@std@@V?$allocator@D@2@@std@@@2@@std@@V?$allocator@V?$vector@V?$basic_string@DU?$char_traits@D@std@@V?$allocator@D@2@@std@@V?$allocator@V?$basic_string@DU?$char_traits@D@std@@V?$allocator@D@2@@std@@@2@@std@@@2@@std@@YAPEAV?$vector@V?$basic_string@DU?$char_traits@D@std@@V?$allocator@D@2@@std@@V?$allocator@V?$basic_string@DU?$char_traits@D@std@@V?$allocator@D@2@@std@@@2@@0@QEAV10@0PEAV10@AEAV?$allocator@V?$vector@V?$basic_string@DU?$char_traits@D@std@@V?$allocator@D@2@@std@@V?$allocator@V?$basic_string@DU?$char_traits@D@std@@V?$allocator@D@2@@std@@@2@@std@@@0@@Z$rtcName$0 0000000140030810     Game.obj
 0002:00004820       ??$_Uninitialized_move@PEAV?$vector@V?$basic_string@DU?$char_traits@D@std@@V?$allocator@D@2@@std@@V?$allocator@V?$basic_string@DU?$char_traits@D@std@@V?$allocator@D@2@@std@@@2@@std@@V?$allocator@V?$vector@V?$basic_string@DU?$char_traits@D@std@@V?$allocator@D@2@@std@@V?$allocator@V?$basic_string@DU?$char_traits@D@std@@V?$allocator@D@2@@std@@@2@@std@@@2@@std@@YAPEAV?$vector@V?$basic_string@DU?$char_traits@D@std@@V?$allocator@D@2@@std@@V?$allocator@V?$basic_string@DU?$char_traits@D@std@@V?$allocator@D@2@@std@@@2@@0@QEAV10@0PEAV10@AEAV?$allocator@V?$vector@V?$basic_string@DU?$char_traits@D@std@@V?$allocator@D@2@@std@@V?$allocator@V?$basic_string@DU?$char_traits@D@std@@V?$allocator@D@2@@std@@@2@@std@@@0@@Z$rtcVarDesc 0000000140030820     Game.obj
 0002:00004860       ??$_Uninitialized_move@PEAV?$vector@V?$basic_string@DU?$char_traits@D@std@@V?$allocator@D@2@@std@@V?$allocator@V?$basic_string@DU?$char_traits@D@std@@V?$allocator@D@2@@std@@@2@@std@@V?$allocator@V?$vector@V?$basic_string@DU?$char_traits@D@std@@V?$allocator@D@2@@std@@V?$allocator@V?$basic_string@DU?$char_traits@D@std@@V?$allocator@D@2@@std@@@2@@std@@@2@@std@@YAPEAV?$vector@V?$basic_string@DU?$char_traits@D@std@@V?$allocator@D@2@@std@@V?$allocator@V?$basic_string@DU?$char_traits@D@std@@V?$allocator@D@2@@std@@@2@@0@QEAV10@0PEAV10@AEAV?$allocator@V?$vector@V?$basic_string@DU?$char_traits@D@std@@V?$allocator@D@2@@std@@V?$allocator@V?$basic_string@DU?$char_traits@D@std@@V?$allocator@D@2@@std@@@2@@std@@@0@@Z$rtcFrameData 0000000140030860     Game.obj
 0002:00004870       ??$_Uninitialized_move@PEAV?$basic_string@DU?$char_traits@D@std@@V?$allocator@D@2@@std@@V?$allocator@V?$basic_string@DU?$char_traits@D@std@@V?$allocator@D@2@@std@@@2@@std@@YAPEAV?$basic_string@DU?$char_traits@D@std@@V?$allocator@D@2@@0@QEAV10@0PEAV10@AEAV?$allocator@V?$basic_string@DU?$char_traits@D@std@@V?$allocator@D@2@@std@@@0@@Z$rtcName$0 0000000140030870     Game.obj
 0002:00004880       ??$_Uninitialized_move@PEAV?$basic_string@DU?$char_traits@D@std@@V?$allocator@D@2@@std@@V?$allocator@V?$basic_string@DU?$char_traits@D@std@@V?$allocator@D@2@@std@@@2@@std@@YAPEAV?$basic_string@DU?$char_traits@D@std@@V?$allocator@D@2@@0@QEAV10@0PEAV10@AEAV?$allocator@V?$basic_string@DU?$char_traits@D@std@@V?$allocator@D@2@@std@@@0@@Z$rtcVarDesc 0000000140030880     Game.obj
 0002:000048c0       ??$_Uninitialized_move@PEAV?$basic_string@DU?$char_traits@D@std@@V?$allocator@D@2@@std@@V?$allocator@V?$basic_string@DU?$char_traits@D@std@@V?$allocator@D@2@@std@@@2@@std@@YAPEAV?$basic_string@DU?$char_traits@D@std@@V?$allocator@D@2@@0@QEAV10@0PEAV10@AEAV?$allocator@V?$basic_string@DU?$char_traits@D@std@@V?$allocator@D@2@@std@@@0@@Z$rtcFrameData 00000001400308c0     Game.obj
 0002:000048d0       ??$_Insertion_sort_unchecked@PEAUNameWithScore@?1??updateAndSaveScore@Game@@QEAAXXZ@V<lambda_7f61bf8b8214578533bd69dcbefb5615>@@@std@@YAPEAUNameWithScore@?1??updateAndSaveScore@Game@@QEAAXXZ@QEAU1?1??23@QEAAXXZ@0V<lambda_7f61bf8b8214578533bd69dcbefb5615>@@@Z$rtcName$0 00000001400308d0     Game.obj
 0002:000048e0       ??$_Insertion_sort_unchecked@PEAUNameWithScore@?1??updateAndSaveScore@Game@@QEAAXXZ@V<lambda_7f61bf8b8214578533bd69dcbefb5615>@@@std@@YAPEAUNameWithScore@?1??updateAndSaveScore@Game@@QEAAXXZ@QEAU1?1??23@QEAAXXZ@0V<lambda_7f61bf8b8214578533bd69dcbefb5615>@@@Z$rtcVarDesc 00000001400308e0     Game.obj
 0002:00004920       ??$_Insertion_sort_unchecked@PEAUNameWithScore@?1??updateAndSaveScore@Game@@QEAAXXZ@V<lambda_7f61bf8b8214578533bd69dcbefb5615>@@@std@@YAPEAUNameWithScore@?1??updateAndSaveScore@Game@@QEAAXXZ@QEAU1?1??23@QEAAXXZ@0V<lambda_7f61bf8b8214578533bd69dcbefb5615>@@@Z$rtcFrameData 0000000140030920     Game.obj
 0002:00004930       ??$_Make_heap_unchecked@PEAUNameWithScore@?1??updateAndSaveScore@Game@@QEAAXXZ@V<lambda_7f61bf8b8214578533bd69dcbefb5615>@@@std@@YAXPEAUNameWithScore@?1??updateAndSaveScore@Game@@QEAAXXZ@0V<lambda_7f61bf8b8214578533bd69dcbefb5615>@@@Z$rtcName$0 0000000140030930     Game.obj
 0002:00004940       ??$_Make_heap_unchecked@PEAUNameWithScore@?1??updateAndSaveScore@Game@@QEAAXXZ@V<lambda_7f61bf8b8214578533bd69dcbefb5615>@@@std@@YAXPEAUNameWithScore@?1??updateAndSaveScore@Game@@QEAAXXZ@0V<lambda_7f61bf8b8214578533bd69dcbefb5615>@@@Z$rtcVarDesc 0000000140030940     Game.obj
 0002:00004980       ??$_Make_heap_unchecked@PEAUNameWithScore@?1??updateAndSaveScore@Game@@QEAAXXZ@V<lambda_7f61bf8b8214578533bd69dcbefb5615>@@@std@@YAXPEAUNameWithScore@?1??updateAndSaveScore@Game@@QEAAXXZ@0V<lambda_7f61bf8b8214578533bd69dcbefb5615>@@@Z$rtcFrameData 0000000140030980     Game.obj
 0002:00004990       ??$_Partition_by_median_guess_unchecked@PEAUNameWithScore@?1??updateAndSaveScore@Game@@QEAAXXZ@V<lambda_7f61bf8b8214578533bd69dcbefb5615>@@@std@@YA?AU?$pair@PEAUNameWithScore@?1??updateAndSaveScore@Game@@QEAAXXZ@PEAU1?1??23@QEAAXXZ@@0@PEAUNameWithScore@?1??updateAndSaveScore@Game@@QEAAXXZ@0V<lambda_7f61bf8b8214578533bd69dcbefb5615>@@@Z$rtcName$0 0000000140030990     Game.obj
 0002:00004998       ??$_Partition_by_median_guess_unchecked@PEAUNameWithScore@?1??updateAndSaveScore@Game@@QEAAXXZ@V<lambda_7f61bf8b8214578533bd69dcbefb5615>@@@std@@YA?AU?$pair@PEAUNameWithScore@?1??updateAndSaveScore@Game@@QEAAXXZ@PEAU1?1??23@QEAAXXZ@@0@PEAUNameWithScore@?1??updateAndSaveScore@Game@@QEAAXXZ@0V<lambda_7f61bf8b8214578533bd69dcbefb5615>@@@Z$rtcName$1 0000000140030998     Game.obj
 0002:000049a0       ??$_Partition_by_median_guess_unchecked@PEAUNameWithScore@?1??updateAndSaveScore@Game@@QEAAXXZ@V<lambda_7f61bf8b8214578533bd69dcbefb5615>@@@std@@YA?AU?$pair@PEAUNameWithScore@?1??updateAndSaveScore@Game@@QEAAXXZ@PEAU1?1??23@QEAAXXZ@@0@PEAUNameWithScore@?1??updateAndSaveScore@Game@@QEAAXXZ@0V<lambda_7f61bf8b8214578533bd69dcbefb5615>@@@Z$rtcVarDesc 00000001400309a0     Game.obj
 0002:00004a20       ??$_Partition_by_median_guess_unchecked@PEAUNameWithScore@?1??updateAndSaveScore@Game@@QEAAXXZ@V<lambda_7f61bf8b8214578533bd69dcbefb5615>@@@std@@YA?AU?$pair@PEAUNameWithScore@?1??updateAndSaveScore@Game@@QEAAXXZ@PEAU1?1??23@QEAAXXZ@@0@PEAUNameWithScore@?1??updateAndSaveScore@Game@@QEAAXXZ@0V<lambda_7f61bf8b8214578533bd69dcbefb5615>@@@Z$rtcFrameData 0000000140030a20     Game.obj
 0002:00004a30       ??$_Uninitialized_copy@PEAV?$basic_string@DU?$char_traits@D@std@@V?$allocator@D@2@@std@@V?$allocator@V?$basic_string@DU?$char_traits@D@std@@V?$allocator@D@2@@std@@@2@@std@@YAPEAV?$basic_string@DU?$char_traits@D@std@@V?$allocator@D@2@@0@QEAV10@0PEAV10@AEAV?$allocator@V?$basic_string@DU?$char_traits@D@std@@V?$allocator@D@2@@std@@@0@@Z$rtcName$0 0000000140030a30     Game.obj
 0002:00004a40       ??$_Uninitialized_copy@PEAV?$basic_string@DU?$char_traits@D@std@@V?$allocator@D@2@@std@@V?$allocator@V?$basic_string@DU?$char_traits@D@std@@V?$allocator@D@2@@std@@@2@@std@@YAPEAV?$basic_string@DU?$char_traits@D@std@@V?$allocator@D@2@@0@QEAV10@0PEAV10@AEAV?$allocator@V?$basic_string@DU?$char_traits@D@std@@V?$allocator@D@2@@std@@@0@@Z$rtcVarDesc 0000000140030a40     Game.obj
 0002:00004a80       ??$_Uninitialized_copy@PEAV?$basic_string@DU?$char_traits@D@std@@V?$allocator@D@2@@std@@V?$allocator@V?$basic_string@DU?$char_traits@D@std@@V?$allocator@D@2@@std@@@2@@std@@YAPEAV?$basic_string@DU?$char_traits@D@std@@V?$allocator@D@2@@0@QEAV10@0PEAV10@AEAV?$allocator@V?$basic_string@DU?$char_traits@D@std@@V?$allocator@D@2@@std@@@0@@Z$rtcFrameData 0000000140030a80     Game.obj
 0002:00004a90       ??$_Pop_heap_unchecked@PEAUNameWithScore@?1??updateAndSaveScore@Game@@QEAAXXZ@V<lambda_7f61bf8b8214578533bd69dcbefb5615>@@@std@@YAXPEAUNameWithScore@?1??updateAndSaveScore@Game@@QEAAXXZ@0V<lambda_7f61bf8b8214578533bd69dcbefb5615>@@@Z$rtcName$0 0000000140030a90     Game.obj
 0002:00004aa0       ??$_Pop_heap_unchecked@PEAUNameWithScore@?1??updateAndSaveScore@Game@@QEAAXXZ@V<lambda_7f61bf8b8214578533bd69dcbefb5615>@@@std@@YAXPEAUNameWithScore@?1??updateAndSaveScore@Game@@QEAAXXZ@0V<lambda_7f61bf8b8214578533bd69dcbefb5615>@@@Z$rtcVarDesc 0000000140030aa0     Game.obj
 0002:00004ae0       ??$_Pop_heap_unchecked@PEAUNameWithScore@?1??updateAndSaveScore@Game@@QEAAXXZ@V<lambda_7f61bf8b8214578533bd69dcbefb5615>@@@std@@YAXPEAUNameWithScore@?1??updateAndSaveScore@Game@@QEAAXXZ@0V<lambda_7f61bf8b8214578533bd69dcbefb5615>@@@Z$rtcFrameData 0000000140030ae0     Game.obj
 0002:00004af0       ??$swap@UNameWithScore@?1??updateAndSaveScore@Game@@QEAAXXZ@$0A@@std@@YAXAEAUNameWithScore@?1??updateAndSaveScore@Game@@QEAAXXZ@0@Z$rtcName$0 0000000140030af0     Game.obj
 0002:00004b00       ??$swap@UNameWithScore@?1??updateAndSaveScore@Game@@QEAAXXZ@$0A@@std@@YAXAEAUNameWithScore@?1??updateAndSaveScore@Game@@QEAAXXZ@0@Z$rtcVarDesc 0000000140030b00     Game.obj
 0002:00004b40       ??$swap@UNameWithScore@?1??updateAndSaveScore@Game@@QEAAXXZ@$0A@@std@@YAXAEAUNameWithScore@?1??updateAndSaveScore@Game@@QEAAXXZ@0@Z$rtcFrameData 0000000140030b40     Game.obj
 0002:00006bd0       $SG59441                   0000000140032bd0     Player.obj
 0002:00006be4       $SG59442                   0000000140032be4     Player.obj
 0002:00006be8       $SG59443                   0000000140032be8     Player.obj
 0002:00006c18       $SG59578                   0000000140032c18     Player.obj
 0002:00006c2c       $SG59579                   0000000140032c2c     Player.obj
 0002:00006c30       $SG59580                   0000000140032c30     Player.obj
 0002:00006c60       $SG69704                   0000000140032c60     Player.obj
 0002:00006cc8       $SG70223                   0000000140032cc8     Player.obj
 0002:00006cdc       $SG70224                   0000000140032cdc     Player.obj
 0002:00006ce0       $SG70225                   0000000140032ce0     Player.obj
 0002:00006d48       $SG70228                   0000000140032d48     Player.obj
 0002:00006d70       $SG70226                   0000000140032d70     Player.obj
 0002:00006e40       $SG70227                   0000000140032e40     Player.obj
 0002:00006ed0       $SG59405                   0000000140032ed0     Potion.obj
 0002:00006ee4       $SG59406                   0000000140032ee4     Potion.obj
 0002:00006ee8       $SG59407                   0000000140032ee8     Potion.obj
 0002:00006f18       $SG70058                   0000000140032f18     Potion.obj
 0002:00006f30       $SG69539                   0000000140032f30     Potion.obj
 0002:00006f98       $SG70059                   0000000140032f98     Potion.obj
 0002:00006fa0       $SG70060                   0000000140032fa0     Potion.obj
 0002:00007008       $SG70063                   0000000140033008     Potion.obj
 0002:00007030       $SG70061                   0000000140033030     Potion.obj
 0002:00007100       $SG70062                   0000000140033100     Potion.obj
 0002:00007170       $SG59411                   0000000140033170     RedEnemy.obj
 0002:00007188       $SG59412                   0000000140033188     RedEnemy.obj
 0002:0000718c       $SG70090                   000000014003318c     RedEnemy.obj
 0002:00007190       $SG59413                   0000000140033190     RedEnemy.obj
 0002:000071c8       $SG70089                   00000001400331c8     RedEnemy.obj
 0002:000071e0       $SG69570                   00000001400331e0     RedEnemy.obj
 0002:00007248       $SG70094                   0000000140033248     RedEnemy.obj
 0002:00007270       $SG70091                   0000000140033270     RedEnemy.obj
 0002:000072e0       $SG70092                   00000001400332e0     RedEnemy.obj
 0002:000073b0       $SG70093                   00000001400333b0     RedEnemy.obj
 0002:00007420       $SG59411                   0000000140033420     Shield.obj
 0002:00007438       $SG59412                   0000000140033438     Shield.obj
 0002:00007440       $SG59413                   0000000140033440     Shield.obj
 0002:00007470       $SG69570                   0000000140033470     Shield.obj
 0002:000074d8       $SG70089                   00000001400334d8     Shield.obj
 0002:000074ec       $SG70090                   00000001400334ec     Shield.obj
 0002:000074f0       $SG70091                   00000001400334f0     Shield.obj
 0002:00007558       $SG70094                   0000000140033558     Shield.obj
 0002:00007580       $SG70092                   0000000140033580     Shield.obj
 0002:00007650       $SG70093                   0000000140033650     Shield.obj
 0002:000076c0       $SG75625                   00000001400336c0     tryTry.obj
 0002:00007728       $SG76144                   0000000140033728     tryTry.obj
 0002:0000773c       $SG76145                   000000014003373c     tryTry.obj
 0002:00007740       $SG76146                   0000000140033740     tryTry.obj
 0002:000077b0       $SG76147                   00000001400337b0     tryTry.obj
 0002:00007880       $SG76148                   0000000140033880     tryTry.obj
 0002:000078d0       $SG76149                   00000001400338d0     tryTry.obj
 0002:00007900       main$rtcName$0             0000000140033900     tryTry.obj
 0002:00007910       main$rtcVarDesc            0000000140033910     tryTry.obj
 0002:00007950       main$rtcFrameData          0000000140033950     tryTry.obj
 0002:000079c0       ?_RTC_ErrorMessages@@3QBQEBDB 00000001400339c0     MSVCRTD:error.obj
 0002:000079f0       ?_RTC_NoFalsePositives@@3QBHB 00000001400339f0     MSVCRTD:error.obj
 0002:00007a08       ?stack_premsg@@3QBDB       0000000140033a08     MSVCRTD:error.obj
 0002:00007a28       ?stack_postmsg@@3QBDB      0000000140033a28     MSVCRTD:error.obj
 0002:00007a40       ?uninit_premsg@@3QBDB      0000000140033a40     MSVCRTD:error.obj
 0002:00007a50       ?uninit_postmsg@@3QBDB     0000000140033a50     MSVCRTD:error.obj
 0002:00007e58       ?_RTC_errlist@@3QBQEBDB    0000000140033e58     MSVCRTD:userapi.obj
 0002:00007f38       GS_ExceptionPointers       0000000140033f38     MSVCRTD:gs_report.obj
 0002:00007f48       ?debugCrtFileName@@3QB_WB  0000000140033f48     MSVCRTD:pdblkup.obj
 0002:00007f70       ?mspdbName@@3QB_WB         0000000140033f70     MSVCRTD:pdblkup.obj
 0002:000080d0       ?dllExt@?1??GetPdbDllPathFromFilePath@@YAHPEB_WPEA_W_K@Z@4QB_WB 00000001400340d0     MSVCRTD:pdblkup.obj
 0002:000080d8       ?mspdbFilename@?1??GetPdbDllPathFromFilePath@@YAHPEB_WPEA_W_K@Z@4QB_WB 00000001400340d8     MSVCRTD:pdblkup.obj
 0002:000096a8       $unwind$??$?0D@?$allocator@U_Container_proxy@std@@@std@@QEAA@AEBV?$allocator@D@1@@Z 00000001400356a8     BlueEnemy.obj
 0002:000096a8       $unwind$??$_Delete_plain_internal@V?$allocator@U_Container_proxy@std@@@std@@@std@@YAXAEAV?$allocator@U_Container_proxy@std@@@0@QEAU_Container_proxy@0@@Z 00000001400356a8     BlueEnemy.obj
 0002:000096a8       $unwind$??0_Container_proxy@std@@QEAA@PEAU_Container_base12@1@@Z 00000001400356a8     BlueEnemy.obj
 0002:000096a8       $unwind$??0bad_alloc@std@@AEAA@QEBD@Z 00000001400356a8     BlueEnemy.obj
 0002:000096a8       $unwind$??0bad_alloc@std@@QEAA@AEBV01@@Z 00000001400356a8     BlueEnemy.obj
 0002:000096a8       $unwind$??0bad_array_new_length@std@@QEAA@AEBV01@@Z 00000001400356a8     BlueEnemy.obj
 0002:000096a8       $unwind$??0exception@std@@QEAA@AEBV01@@Z 00000001400356a8     BlueEnemy.obj
 0002:000096a8       $unwind$??2@YAPEAX_KPEAX@Z 00000001400356a8     BlueEnemy.obj
 0002:000096a8       $unwind$?_Calculate_growth@?$basic_string@DU?$char_traits@D@std@@V?$allocator@D@2@@std@@AEBA_K_K@Z 00000001400356a8     BlueEnemy.obj
 0002:000096a8       $unwind$?__empty_global_delete@@YAXPEAX_K@Z 00000001400356a8     BlueEnemy.obj
 0002:000096a8       $unwind$?allocate@?$allocator@D@std@@QEAAPEAD_K@Z 00000001400356a8     BlueEnemy.obj
 0002:000096a8       $unwind$?allocate@?$allocator@U_Container_proxy@std@@@std@@QEAAPEAU_Container_proxy@2@_K@Z 00000001400356a8     BlueEnemy.obj
 0002:000096a8       $unwind$?assign@?$_Narrow_char_traits@DH@std@@SAXAEADAEBD@Z 00000001400356a8     BlueEnemy.obj
 0002:000096a8       $unwind$?assign@?$basic_string@DU?$char_traits@D@std@@V?$allocator@D@2@@std@@QEAAAEAV12@QEBD@Z 00000001400356a8     BlueEnemy.obj
 0002:000096a8       $unwind$?getBounds@BlueEnemy@@QEBA?BV?$Rect@M@sf@@XZ 00000001400356a8     BlueEnemy.obj
 0002:000096a8       $unwind$?render@BlueEnemy@@QEAAXAEAVRenderTarget@sf@@@Z 00000001400356a8     BlueEnemy.obj
 0002:000096a8       $unwind$?getBounds@Bullet@@QEBA?BV?$Rect@M@sf@@XZ 00000001400356a8     Bullet.obj
 0002:000096a8       $unwind$?render@Bullet@@QEAAXPEAVRenderTarget@sf@@@Z 00000001400356a8     Bullet.obj
 0002:000096a8       $unwind$?getBounds@Enemies@@QEBA?BV?$Rect@M@sf@@XZ 00000001400356a8     Enemies.obj
 0002:000096a8       $unwind$?render@Enemies@@QEAAXAEAVRenderTarget@sf@@@Z 00000001400356a8     Enemies.obj
 0002:000096a8       $unwind$??$?0PEAVBlueEnemy@@@?$allocator@U_Container_proxy@std@@@std@@QEAA@AEBV?$allocator@PEAVBlueEnemy@@@1@@Z 00000001400356a8     Game.obj
 0002:000096a8       $unwind$??$?0PEAVBullet@@@?$allocator@U_Container_proxy@std@@@std@@QEAA@AEBV?$allocator@PEAVBullet@@@1@@Z 00000001400356a8     Game.obj
 0002:000096a8       $unwind$??$?0PEAVEnemies@@@?$allocator@U_Container_proxy@std@@@std@@QEAA@AEBV?$allocator@PEAVEnemies@@@1@@Z 00000001400356a8     Game.obj
 0002:000096a8       $unwind$??$?0PEAVPotion@@@?$allocator@U_Container_proxy@std@@@std@@QEAA@AEBV?$allocator@PEAVPotion@@@1@@Z 00000001400356a8     Game.obj
 0002:000096a8       $unwind$??$?0PEAVRedEnemy@@@?$allocator@U_Container_proxy@std@@@std@@QEAA@AEBV?$allocator@PEAVRedEnemy@@@1@@Z 00000001400356a8     Game.obj
 0002:000096a8       $unwind$??$?0PEAVShield@@@?$allocator@U_Container_proxy@std@@@std@@QEAA@AEBV?$allocator@PEAVShield@@@1@@Z 00000001400356a8     Game.obj
 0002:000096a8       $unwind$??$?0U?$_Tree_node@U?$pair@$$CBV?$basic_string@DU?$char_traits@D@std@@V?$allocator@D@2@@std@@PEAVTexture@sf@@@std@@PEAX@std@@@?$allocator@U_Container_proxy@std@@@std@@QEAA@AEBV?$allocator@U?$_Tree_node@U?$pair@$$CBV?$basic_string@DU?$char_traits@D@std@@V?$allocator@D@2@@std@@PEAVTexture@sf@@@std@@PEAX@std@@@1@@Z 00000001400356a8     Game.obj
 0002:000096a8       $unwind$??$?0UNameWithScore@?1??updateAndSaveScore@Game@@QEAAXXZ@@?$allocator@U_Container_proxy@std@@@std@@QEAA@AEBV?$allocator@UNameWithScore@?1??updateAndSaveScore@Game@@QEAAXXZ@@1@@Z 00000001400356a8     Game.obj
 0002:000096a8       $unwind$??$?0V?$basic_string@DU?$char_traits@D@std@@V?$allocator@D@2@@std@@@?$_Tuple_val@$$QEAV?$basic_string@DU?$char_traits@D@std@@V?$allocator@D@2@@std@@@std@@QEAA@$$QEAV?$basic_string@DU?$char_traits@D@std@@V?$allocator@D@2@@1@@Z 00000001400356a8     Game.obj
 0002:000096a8       $unwind$??$?0V?$basic_string@DU?$char_traits@D@std@@V?$allocator@D@2@@std@@@?$allocator@U_Container_proxy@std@@@std@@QEAA@AEBV?$allocator@V?$basic_string@DU?$char_traits@D@std@@V?$allocator@D@2@@std@@@1@@Z 00000001400356a8     Game.obj
 0002:000096a8       $unwind$??$?0V?$vector@V?$basic_string@DU?$char_traits@D@std@@V?$allocator@D@2@@std@@V?$allocator@V?$basic_string@DU?$char_traits@D@std@@V?$allocator@D@2@@std@@@2@@std@@@?$allocator@U_Container_proxy@std@@@std@@QEAA@AEBV?$allocator@V?$vector@V?$basic_string@DU?$char_traits@D@std@@V?$allocator@D@2@@std@@V?$allocator@V?$basic_string@DU?$char_traits@D@std@@V?$allocator@D@2@@std@@@2@@std@@@1@@Z 00000001400356a8     Game.obj
 0002:000096a8       $unwind$??$?5DU?$char_traits@D@std@@V?$allocator@D@1@@std@@YAAEAV?$basic_istream@DU?$char_traits@D@std@@@0@AEAV10@AEAV?$basic_string@DU?$char_traits@D@std@@V?$allocator@D@2@@0@@Z 00000001400356a8     Game.obj
 0002:000096a8       $unwind$??$_Adl_verify_range@PEADPEAD@std@@YAXAEBQEAD0@Z 00000001400356a8     Game.obj
 0002:000096a8       $unwind$??$_Adl_verify_range@V?$_Vector_iterator@V?$_Vector_val@U?$_Simple_types@UNameWithScore@?1??updateAndSaveScore@Game@@QEAAXXZ@@std@@@std@@@std@@V12@@std@@YAXAEBV?$_Vector_iterator@V?$_Vector_val@U?$_Simple_types@UNameWithScore@?1??updateAndSaveScore@Game@@QEAAXXZ@@std@@@std@@@0@0@Z 00000001400356a8     Game.obj
 0002:000096a8       $unwind$??$_Allocators_equal@V?$allocator@D@std@@@std@@YA_NAEBV?$allocator@D@0@0@Z 00000001400356a8     Game.obj
 0002:000096a8       $unwind$??$_Erase_head@V?$allocator@U?$_Tree_node@U?$pair@$$CBV?$basic_string@DU?$char_traits@D@std@@V?$allocator@D@2@@std@@PEAVTexture@sf@@@std@@PEAX@std@@@std@@@?$_Tree_val@U?$_Tree_simple_types@U?$pair@$$CBV?$basic_string@DU?$char_traits@D@std@@V?$allocator@D@2@@std@@PEAVTexture@sf@@@std@@@std@@@std@@QEAAXAEAV?$allocator@U?$_Tree_node@U?$pair@$$CBV?$basic_string@DU?$char_traits@D@std@@V?$allocator@D@2@@std@@PEAVTexture@sf@@@std@@PEAX@std@@@1@@Z 00000001400356a8     Game.obj
 0002:000096a8       $unwind$??$_Pocca@V?$allocator@D@std@@@std@@YAXAEAV?$allocator@D@0@AEBV10@@Z 00000001400356a8     Game.obj
 0002:000096a8       $unwind$??$_Pocma@V?$allocator@D@std@@@std@@YAXAEAV?$allocator@D@0@0@Z 00000001400356a8     Game.obj
 0002:000096a8       $unwind$??$destroy@PEAVBlueEnemy@@@?$_Default_allocator_traits@V?$allocator@PEAVBlueEnemy@@@std@@@std@@SAXAEAV?$allocator@PEAVBlueEnemy@@@1@QEAPEAVBlueEnemy@@@Z 00000001400356a8     Game.obj
 0002:000096a8       $unwind$??$destroy@PEAVBullet@@@?$_Default_allocator_traits@V?$allocator@PEAVBullet@@@std@@@std@@SAXAEAV?$allocator@PEAVBullet@@@1@QEAPEAVBullet@@@Z 00000001400356a8     Game.obj
 0002:000096a8       $unwind$??$destroy@PEAVEnemies@@@?$_Default_allocator_traits@V?$allocator@PEAVEnemies@@@std@@@std@@SAXAEAV?$allocator@PEAVEnemies@@@1@QEAPEAVEnemies@@@Z 00000001400356a8     Game.obj
 0002:000096a8       $unwind$??$destroy@PEAVPotion@@@?$_Default_allocator_traits@V?$allocator@PEAVPotion@@@std@@@std@@SAXAEAV?$allocator@PEAVPotion@@@1@QEAPEAVPotion@@@Z 00000001400356a8     Game.obj
 0002:000096a8       $unwind$??$destroy@PEAVRedEnemy@@@?$_Default_allocator_traits@V?$allocator@PEAVRedEnemy@@@std@@@std@@SAXAEAV?$allocator@PEAVRedEnemy@@@1@QEAPEAVRedEnemy@@@Z 00000001400356a8     Game.obj
 0002:000096a8       $unwind$??$destroy@PEAVShield@@@?$_Default_allocator_traits@V?$allocator@PEAVShield@@@std@@@std@@SAXAEAV?$allocator@PEAVShield@@@1@QEAPEAVShield@@@Z 00000001400356a8     Game.obj
 0002:000096a8       $unwind$??$destroy@U?$pair@$$CBV?$basic_string@DU?$char_traits@D@std@@V?$allocator@D@2@@std@@PEAVTexture@sf@@@std@@@?$_Default_allocator_traits@V?$allocator@U?$_Tree_node@U?$pair@$$CBV?$basic_string@DU?$char_traits@D@std@@V?$allocator@D@2@@std@@PEAVTexture@sf@@@std@@PEAX@std@@@std@@@std@@SAXAEAV?$allocator@U?$_Tree_node@U?$pair@$$CBV?$basic_string@DU?$char_traits@D@std@@V?$allocator@D@2@@std@@PEAVTexture@sf@@@std@@PEAX@std@@@1@QEAU?$pair@$$CBV?$basic_string@DU?$char_traits@D@std@@V?$allocator@D@2@@std@@PEAVTexture@sf@@@1@@Z 00000001400356a8     Game.obj
 0002:000096a8       $unwind$??$destroy@UNameWithScore@?1??updateAndSaveScore@Game@@QEAAXXZ@@?$_Default_allocator_traits@V?$allocator@UNameWithScore@?1??updateAndSaveScore@Game@@QEAAXXZ@@std@@@std@@SAXAEAV?$allocator@UNameWithScore@?1??updateAndSaveScore@Game@@QEAAXXZ@@1@QEAUNameWithScore@?1??updateAndSaveScore@Game@@QEAAXXZ@@Z 00000001400356a8     Game.obj
 0002:000096a8       $unwind$??$destroy@V?$basic_string@DU?$char_traits@D@std@@V?$allocator@D@2@@std@@@?$_Default_allocator_traits@V?$allocator@V?$basic_string@DU?$char_traits@D@std@@V?$allocator@D@2@@std@@@std@@@std@@SAXAEAV?$allocator@V?$basic_string@DU?$char_traits@D@std@@V?$allocator@D@2@@std@@@1@QEAV?$basic_string@DU?$char_traits@D@std@@V?$allocator@D@2@@1@@Z 00000001400356a8     Game.obj
 0002:000096a8       $unwind$??$destroy@V?$vector@V?$basic_string@DU?$char_traits@D@std@@V?$allocator@D@2@@std@@V?$allocator@V?$basic_string@DU?$char_traits@D@std@@V?$allocator@D@2@@std@@@2@@std@@@?$_Default_allocator_traits@V?$allocator@V?$vector@V?$basic_string@DU?$char_traits@D@std@@V?$allocator@D@2@@std@@V?$allocator@V?$basic_string@DU?$char_traits@D@std@@V?$allocator@D@2@@std@@@2@@std@@@std@@@std@@SAXAEAV?$allocator@V?$vector@V?$basic_string@DU?$char_traits@D@std@@V?$allocator@D@2@@std@@V?$allocator@V?$basic_string@DU?$char_traits@D@std@@V?$allocator@D@2@@std@@@2@@std@@@1@QEAV?$vector@V?$basic_string@DU?$char_traits@D@std@@V?$allocator@D@2@@std@@V?$allocator@V?$basic_string@DU?$char_traits@D@std@@V?$allocator@D@2@@std@@@2@@1@@Z 00000001400356a8     Game.obj
 0002:000096a8       $unwind$??$forward_as_tuple@V?$basic_string@DU?$char_traits@D@std@@V?$allocator@D@2@@std@@@std@@YA?AV?$tuple@$$QEAV?$basic_string@DU?$char_traits@D@std@@V?$allocator@D@2@@std@@@0@$$QEAV?$basic_string@DU?$char_traits@D@std@@V?$allocator@D@2@@0@@Z 00000001400356a8     Game.obj
 0002:000096a8       $unwind$??$iter_swap@PEAUNameWithScore@?1??updateAndSaveScore@Game@@QEAAXXZ@PEAU1?1??23@QEAAXXZ@@std@@YAXPEAUNameWithScore@?1??updateAndSaveScore@Game@@QEAAXXZ@0@Z 00000001400356a8     Game.obj
 0002:000096a8       $unwind$??0?$_Alloc_construct_ptr@V?$allocator@U?$_Tree_node@U?$pair@$$CBV?$basic_string@DU?$char_traits@D@std@@V?$allocator@D@2@@std@@PEAVTexture@sf@@@std@@PEAX@std@@@std@@@std@@QEAA@AEAV?$allocator@U?$_Tree_node@U?$pair@$$CBV?$basic_string@DU?$char_traits@D@std@@V?$allocator@D@2@@std@@PEAVTexture@sf@@@std@@PEAX@std@@@1@@Z 00000001400356a8     Game.obj
 0002:000096a8       $unwind$??0?$_Vector_const_iterator@V?$_Vector_val@U?$_Simple_types@PEAVBlueEnemy@@@std@@@std@@@std@@QEAA@$$QEAV01@@Z 00000001400356a8     Game.obj
 0002:000096a8       $unwind$??0?$_Vector_const_iterator@V?$_Vector_val@U?$_Simple_types@PEAVBlueEnemy@@@std@@@std@@@std@@QEAA@AEBV01@@Z 00000001400356a8     Game.obj
 0002:000096a8       $unwind$??0?$_Vector_const_iterator@V?$_Vector_val@U?$_Simple_types@PEAVBullet@@@std@@@std@@@std@@QEAA@$$QEAV01@@Z 00000001400356a8     Game.obj
 0002:000096a8       $unwind$??0?$_Vector_const_iterator@V?$_Vector_val@U?$_Simple_types@PEAVBullet@@@std@@@std@@@std@@QEAA@AEBV01@@Z 00000001400356a8     Game.obj
 0002:000096a8       $unwind$??0?$_Vector_const_iterator@V?$_Vector_val@U?$_Simple_types@PEAVEnemies@@@std@@@std@@@std@@QEAA@$$QEAV01@@Z 00000001400356a8     Game.obj
 0002:000096a8       $unwind$??0?$_Vector_const_iterator@V?$_Vector_val@U?$_Simple_types@PEAVEnemies@@@std@@@std@@@std@@QEAA@AEBV01@@Z 00000001400356a8     Game.obj
 0002:000096a8       $unwind$??0?$_Vector_const_iterator@V?$_Vector_val@U?$_Simple_types@PEAVPotion@@@std@@@std@@@std@@QEAA@$$QEAV01@@Z 00000001400356a8     Game.obj
 0002:000096a8       $unwind$??0?$_Vector_const_iterator@V?$_Vector_val@U?$_Simple_types@PEAVPotion@@@std@@@std@@@std@@QEAA@AEBV01@@Z 00000001400356a8     Game.obj
 0002:000096a8       $unwind$??0?$_Vector_const_iterator@V?$_Vector_val@U?$_Simple_types@PEAVRedEnemy@@@std@@@std@@@std@@QEAA@$$QEAV01@@Z 00000001400356a8     Game.obj
 0002:000096a8       $unwind$??0?$_Vector_const_iterator@V?$_Vector_val@U?$_Simple_types@PEAVRedEnemy@@@std@@@std@@@std@@QEAA@AEBV01@@Z 00000001400356a8     Game.obj
 0002:000096a8       $unwind$??0?$_Vector_const_iterator@V?$_Vector_val@U?$_Simple_types@PEAVShield@@@std@@@std@@@std@@QEAA@$$QEAV01@@Z 00000001400356a8     Game.obj
 0002:000096a8       $unwind$??0?$_Vector_const_iterator@V?$_Vector_val@U?$_Simple_types@PEAVShield@@@std@@@std@@@std@@QEAA@AEBV01@@Z 00000001400356a8     Game.obj
 0002:000096a8       $unwind$??0?$_Vector_iterator@V?$_Vector_val@U?$_Simple_types@PEAVBlueEnemy@@@std@@@std@@@std@@QEAA@AEBV01@@Z 00000001400356a8     Game.obj
 0002:000096a8       $unwind$??0?$_Vector_iterator@V?$_Vector_val@U?$_Simple_types@PEAVBullet@@@std@@@std@@@std@@QEAA@AEBV01@@Z 00000001400356a8     Game.obj
 0002:000096a8       $unwind$??0?$_Vector_iterator@V?$_Vector_val@U?$_Simple_types@PEAVEnemies@@@std@@@std@@@std@@QEAA@AEBV01@@Z 00000001400356a8     Game.obj
 0002:000096a8       $unwind$??0?$_Vector_iterator@V?$_Vector_val@U?$_Simple_types@PEAVPotion@@@std@@@std@@@std@@QEAA@AEBV01@@Z 00000001400356a8     Game.obj
 0002:000096a8       $unwind$??0?$_Vector_iterator@V?$_Vector_val@U?$_Simple_types@PEAVRedEnemy@@@std@@@std@@@std@@QEAA@AEBV01@@Z 00000001400356a8     Game.obj
 0002:000096a8       $unwind$??0?$_Vector_iterator@V?$_Vector_val@U?$_Simple_types@PEAVShield@@@std@@@std@@@std@@QEAA@AEBV01@@Z 00000001400356a8     Game.obj
 0002:000096a8       $unwind$??0?$fpos@U_Mbstatet@@@std@@QEAA@_J@Z 00000001400356a8     Game.obj
 0002:000096a8       $unwind$??0?$tuple@$$QEAV?$basic_string@DU?$char_traits@D@std@@V?$allocator@D@2@@std@@@std@@QEAA@$$QEAV01@@Z 00000001400356a8     Game.obj
 0002:000096a8       $unwind$??0?$tuple@$$V@std@@QEAA@AEBV01@@Z 00000001400356a8     Game.obj
 0002:000096a8       $unwind$??0NameWithScore@?1??updateAndSaveScore@Game@@QEAAXXZ@QEAA@$$QEAU0?1??12@QEAAXXZ@@Z 00000001400356a8     Game.obj
 0002:000096a8       $unwind$??0NameWithScore@?1??updateAndSaveScore@Game@@QEAAXXZ@QEAA@AEBU0?1??12@QEAAXXZ@@Z 00000001400356a8     Game.obj
 0002:000096a8       $unwind$??0_Iterator_base12@std@@QEAA@AEBU01@@Z 00000001400356a8     Game.obj
 0002:000096a8       $unwind$??0bad_cast@std@@QEAA@AEBV01@@Z 00000001400356a8     Game.obj
 0002:000096a8       $unwind$??4NameWithScore@?1??updateAndSaveScore@Game@@QEAAXXZ@QEAAAEAU0?1??12@QEAAXXZ@$$QEAU0?1??12@QEAAXXZ@@Z 00000001400356a8     Game.obj
 0002:000096a8       $unwind$??Y?$_Vector_const_iterator@V?$_Vector_val@U?$_Simple_types@PEAVBlueEnemy@@@std@@@std@@@std@@QEAAAEAV01@_J@Z 00000001400356a8     Game.obj
 0002:000096a8       $unwind$??Y?$_Vector_const_iterator@V?$_Vector_val@U?$_Simple_types@PEAVBullet@@@std@@@std@@@std@@QEAAAEAV01@_J@Z 00000001400356a8     Game.obj
 0002:000096a8       $unwind$??Y?$_Vector_const_iterator@V?$_Vector_val@U?$_Simple_types@PEAVEnemies@@@std@@@std@@@std@@QEAAAEAV01@_J@Z 00000001400356a8     Game.obj
 0002:000096a8       $unwind$??Y?$_Vector_const_iterator@V?$_Vector_val@U?$_Simple_types@PEAVPotion@@@std@@@std@@@std@@QEAAAEAV01@_J@Z 00000001400356a8     Game.obj
 0002:000096a8       $unwind$??Y?$_Vector_const_iterator@V?$_Vector_val@U?$_Simple_types@PEAVRedEnemy@@@std@@@std@@@std@@QEAAAEAV01@_J@Z 00000001400356a8     Game.obj
 0002:000096a8       $unwind$??Y?$_Vector_const_iterator@V?$_Vector_val@U?$_Simple_types@PEAVShield@@@std@@@std@@@std@@QEAAAEAV01@_J@Z 00000001400356a8     Game.obj
 0002:000096a8       $unwind$??Y?$_Vector_iterator@V?$_Vector_val@U?$_Simple_types@PEAVBlueEnemy@@@std@@@std@@@std@@QEAAAEAV01@_J@Z 00000001400356a8     Game.obj
 0002:000096a8       $unwind$??Y?$_Vector_iterator@V?$_Vector_val@U?$_Simple_types@PEAVBullet@@@std@@@std@@@std@@QEAAAEAV01@_J@Z 00000001400356a8     Game.obj
 0002:000096a8       $unwind$??Y?$_Vector_iterator@V?$_Vector_val@U?$_Simple_types@PEAVEnemies@@@std@@@std@@@std@@QEAAAEAV01@_J@Z 00000001400356a8     Game.obj
 0002:000096a8       $unwind$??Y?$_Vector_iterator@V?$_Vector_val@U?$_Simple_types@PEAVPotion@@@std@@@std@@@std@@QEAAAEAV01@_J@Z 00000001400356a8     Game.obj
 0002:000096a8       $unwind$??Y?$_Vector_iterator@V?$_Vector_val@U?$_Simple_types@PEAVRedEnemy@@@std@@@std@@@std@@QEAAAEAV01@_J@Z 00000001400356a8     Game.obj
 0002:000096a8       $unwind$??Y?$_Vector_iterator@V?$_Vector_val@U?$_Simple_types@PEAVShield@@@std@@@std@@@std@@QEAAAEAV01@_J@Z 00000001400356a8     Game.obj
 0002:000096a8       $unwind$?_Adopt@_Iterator_base0@std@@QEAAXPEBX@Z 00000001400356a8     Game.obj
 0002:000096a8       $unwind$?_Check_offset@?$_String_val@U?$_Simple_types@D@std@@@std@@QEBAX_K@Z 00000001400356a8     Game.obj
 0002:000096a8       $unwind$?_Initcvt@?$basic_filebuf@DU?$char_traits@D@std@@@std@@IEAAXAEBV?$codecvt@DDU_Mbstatet@@@2@@Z 00000001400356a8     Game.obj
 0002:000096a8       $unwind$?_Swap_proxy_and_iterators@?$basic_string@DU?$char_traits@D@std@@V?$allocator@D@2@@std@@AEAAXAEAV12@@Z 00000001400356a8     Game.obj
 0002:000096a8       $unwind$?_Take_contents@?$_Vector_val@U?$_Simple_types@V?$basic_string@DU?$char_traits@D@std@@V?$allocator@D@2@@std@@@std@@@std@@QEAAXAEAV12@@Z 00000001400356a8     Game.obj
 0002:000096a8       $unwind$?_Unchecked_begin@?$_Tree@V?$_Tmap_traits@V?$basic_string@DU?$char_traits@D@std@@V?$allocator@D@2@@std@@PEAVTexture@sf@@U?$less@V?$basic_string@DU?$char_traits@D@std@@V?$allocator@D@2@@std@@@2@V?$allocator@U?$pair@$$CBV?$basic_string@DU?$char_traits@D@std@@V?$allocator@D@2@@std@@PEAVTexture@sf@@@std@@@2@$0A@@std@@@std@@QEAA?AV?$_Tree_unchecked_iterator@V?$_Tree_val@U?$_Tree_simple_types@U?$pair@$$CBV?$basic_string@DU?$char_traits@D@std@@V?$allocator@D@2@@std@@PEAVTexture@sf@@@std@@@std@@@std@@@2@XZ 00000001400356a8     Game.obj
 0002:000096a8       $unwind$?_Unchecked_end@?$_Tree@V?$_Tmap_traits@V?$basic_string@DU?$char_traits@D@std@@V?$allocator@D@2@@std@@PEAVTexture@sf@@U?$less@V?$basic_string@DU?$char_traits@D@std@@V?$allocator@D@2@@std@@@2@V?$allocator@U?$pair@$$CBV?$basic_string@DU?$char_traits@D@std@@V?$allocator@D@2@@std@@PEAVTexture@sf@@@std@@@2@$0A@@std@@@std@@QEBA?AU_Default_sentinel@2@XZ 00000001400356a8     Game.obj
 0002:000096a8       $unwind$?allocate@?$allocator@PEAVBlueEnemy@@@std@@QEAAPEAPEAVBlueEnemy@@_K@Z 00000001400356a8     Game.obj
 0002:000096a8       $unwind$?allocate@?$allocator@PEAVBullet@@@std@@QEAAPEAPEAVBullet@@_K@Z 00000001400356a8     Game.obj
 0002:000096a8       $unwind$?allocate@?$allocator@PEAVEnemies@@@std@@QEAAPEAPEAVEnemies@@_K@Z 00000001400356a8     Game.obj
 0002:000096a8       $unwind$?allocate@?$allocator@PEAVPotion@@@std@@QEAAPEAPEAVPotion@@_K@Z 00000001400356a8     Game.obj
 0002:000096a8       $unwind$?allocate@?$allocator@PEAVRedEnemy@@@std@@QEAAPEAPEAVRedEnemy@@_K@Z 00000001400356a8     Game.obj
 0002:000096a8       $unwind$?allocate@?$allocator@PEAVShield@@@std@@QEAAPEAPEAVShield@@_K@Z 00000001400356a8     Game.obj
 0002:000096a8       $unwind$?allocate@?$allocator@U?$_Tree_node@U?$pair@$$CBV?$basic_string@DU?$char_traits@D@std@@V?$allocator@D@2@@std@@PEAVTexture@sf@@@std@@PEAX@std@@@std@@QEAAPEAU?$_Tree_node@U?$pair@$$CBV?$basic_string@DU?$char_traits@D@std@@V?$allocator@D@2@@std@@PEAVTexture@sf@@@std@@PEAX@2@_K@Z 00000001400356a8     Game.obj
 0002:000096a8       $unwind$?allocate@?$allocator@UNameWithScore@?1??updateAndSaveScore@Game@@QEAAXXZ@@std@@QEAAPEAUNameWithScore@?1??updateAndSaveScore@Game@@QEAAXXZ@_K@Z 00000001400356a8     Game.obj
 0002:000096a8       $unwind$?allocate@?$allocator@V?$basic_string@DU?$char_traits@D@std@@V?$allocator@D@2@@std@@@std@@QEAAPEAV?$basic_string@DU?$char_traits@D@std@@V?$allocator@D@2@@2@_K@Z 00000001400356a8     Game.obj
 0002:000096a8       $unwind$?allocate@?$allocator@V?$vector@V?$basic_string@DU?$char_traits@D@std@@V?$allocator@D@2@@std@@V?$allocator@V?$basic_string@DU?$char_traits@D@std@@V?$allocator@D@2@@std@@@2@@std@@@std@@QEAAPEAV?$vector@V?$basic_string@DU?$char_traits@D@std@@V?$allocator@D@2@@std@@V?$allocator@V?$basic_string@DU?$char_traits@D@std@@V?$allocator@D@2@@std@@@2@@2@_K@Z 00000001400356a8     Game.obj
 0002:000096a8       $unwind$?append@?$basic_string@DU?$char_traits@D@std@@V?$allocator@D@2@@std@@QEAAAEAV12@QEBD@Z 00000001400356a8     Game.obj
 0002:000096a8       $unwind$?erase@?$basic_string@DU?$char_traits@D@std@@V?$allocator@D@2@@std@@QEAAAEAV12@_K@Z 00000001400356a8     Game.obj
 0002:000096a8       $unwind$?imbue@?$basic_filebuf@DU?$char_traits@D@std@@@std@@MEAAXAEBVlocale@2@@Z 00000001400356a8     Game.obj
 0002:000096a8       $unwind$?push_back@?$vector@PEAVBlueEnemy@@V?$allocator@PEAVBlueEnemy@@@std@@@std@@QEAAX$$QEAPEAVBlueEnemy@@@Z 00000001400356a8     Game.obj
 0002:000096a8       $unwind$?push_back@?$vector@PEAVBullet@@V?$allocator@PEAVBullet@@@std@@@std@@QEAAX$$QEAPEAVBullet@@@Z 00000001400356a8     Game.obj
 0002:000096a8       $unwind$?push_back@?$vector@PEAVEnemies@@V?$allocator@PEAVEnemies@@@std@@@std@@QEAAX$$QEAPEAVEnemies@@@Z 00000001400356a8     Game.obj
 0002:000096a8       $unwind$?push_back@?$vector@PEAVPotion@@V?$allocator@PEAVPotion@@@std@@@std@@QEAAX$$QEAPEAVPotion@@@Z 00000001400356a8     Game.obj
 0002:000096a8       $unwind$?push_back@?$vector@PEAVRedEnemy@@V?$allocator@PEAVRedEnemy@@@std@@@std@@QEAAX$$QEAPEAVRedEnemy@@@Z 00000001400356a8     Game.obj
 0002:000096a8       $unwind$?push_back@?$vector@PEAVShield@@V?$allocator@PEAVShield@@@std@@@std@@QEAAX$$QEAPEAVShield@@@Z 00000001400356a8     Game.obj
 0002:000096a8       $unwind$?push_back@?$vector@UNameWithScore@?1??updateAndSaveScore@Game@@QEAAXXZ@V?$allocator@UNameWithScore@?1??updateAndSaveScore@Game@@QEAAXXZ@@std@@@std@@QEAAXAEBUNameWithScore@?1??updateAndSaveScore@Game@@QEAAXXZ@@Z 00000001400356a8     Game.obj
 0002:000096a8       $unwind$?push_back@?$vector@V?$basic_string@DU?$char_traits@D@std@@V?$allocator@D@2@@std@@V?$allocator@V?$basic_string@DU?$char_traits@D@std@@V?$allocator@D@2@@std@@@2@@std@@QEAAX$$QEAV?$basic_string@DU?$char_traits@D@std@@V?$allocator@D@2@@2@@Z 00000001400356a8     Game.obj
 0002:000096a8       $unwind$?push_back@?$vector@V?$vector@V?$basic_string@DU?$char_traits@D@std@@V?$allocator@D@2@@std@@V?$allocator@V?$basic_string@DU?$char_traits@D@std@@V?$allocator@D@2@@std@@@2@@std@@V?$allocator@V?$vector@V?$basic_string@DU?$char_traits@D@std@@V?$allocator@D@2@@std@@V?$allocator@V?$basic_string@DU?$char_traits@D@std@@V?$allocator@D@2@@std@@@2@@std@@@2@@std@@QEAAXAEBV?$vector@V?$basic_string@DU?$char_traits@D@std@@V?$allocator@D@2@@std@@V?$allocator@V?$basic_string@DU?$char_traits@D@std@@V?$allocator@D@2@@std@@@2@@2@@Z 00000001400356a8     Game.obj
 0002:000096a8       $unwind$?select_on_container_copy_construction@?$_Default_allocator_traits@V?$allocator@D@std@@@std@@SA?AV?$allocator@D@2@AEBV32@@Z 00000001400356a8     Game.obj
 0002:000096a8       $unwind$?select_on_container_copy_construction@?$_Default_allocator_traits@V?$allocator@V?$basic_string@DU?$char_traits@D@std@@V?$allocator@D@2@@std@@@std@@@std@@SA?AV?$allocator@V?$basic_string@DU?$char_traits@D@std@@V?$allocator@D@2@@std@@@2@AEBV32@@Z 00000001400356a8     Game.obj
 0002:000096a8       $unwind$?state@?$fpos@U_Mbstatet@@@std@@QEBA?AU_Mbstatet@@XZ 00000001400356a8     Game.obj
 0002:000096a8       $unwind$?getBounds@Player@@QEBA?AV?$Rect@M@sf@@XZ 00000001400356a8     Player.obj
 0002:000096a8       $unwind$?render@Player@@QEAAXAEAVRenderTarget@sf@@@Z 00000001400356a8     Player.obj
 0002:000096a8       $unwind$?getBounds@Potion@@QEBA?BV?$Rect@M@sf@@XZ 00000001400356a8     Potion.obj
 0002:000096a8       $unwind$?render@Potion@@QEAAXAEAVRenderTarget@sf@@@Z 00000001400356a8     Potion.obj
 0002:000096a8       $unwind$?getBounds@RedEnemy@@QEBA?BV?$Rect@M@sf@@XZ 00000001400356a8     RedEnemy.obj
 0002:000096a8       $unwind$?render@RedEnemy@@QEAAXAEAVRenderTarget@sf@@@Z 00000001400356a8     RedEnemy.obj
 0002:000096a8       $unwind$?getBounds@Shield@@QEBA?BV?$Rect@M@sf@@XZ 00000001400356a8     Shield.obj
 0002:000096a8       $unwind$?render@Shield@@QEAAXAEAVRenderTarget@sf@@@Z 00000001400356a8     Shield.obj
 0002:000096b0       $unwind$??0exception@std@@QEAA@QEBDH@Z 00000001400356b0     BlueEnemy.obj
 0002:000096b0       $unwind$?deallocate@?$_Default_allocator_traits@V?$allocator@U_Container_proxy@std@@@std@@@std@@SAXAEAV?$allocator@U_Container_proxy@std@@@2@QEAU_Container_proxy@2@_K@Z 00000001400356b0     BlueEnemy.obj
 0002:000096b0       $unwind$?deallocate@?$allocator@D@std@@QEAAXQEAD_K@Z 00000001400356b0     BlueEnemy.obj
 0002:000096b0       $unwind$?move@?$_Char_traits@DH@std@@SAPEADQEADQEBD_K@Z 00000001400356b0     BlueEnemy.obj
 0002:000096b0       $unwind$??$?0AEAPEAUNameWithScore@?1??updateAndSaveScore@Game@@QEAAXXZ@AEAPEAU0?1??12@QEAAXXZ@$0A@@?$pair@PEAUNameWithScore@?1??updateAndSaveScore@Game@@QEAAXXZ@PEAU1?1??23@QEAAXXZ@@std@@QEAA@AEAPEAUNameWithScore@?1??updateAndSaveScore@Game@@QEAAXXZ@0@Z 00000001400356b0     Game.obj
 0002:000096b0       $unwind$??$?0AEBQEAU?$_Tree_node@U?$pair@$$CBV?$basic_string@DU?$char_traits@D@std@@V?$allocator@D@2@@std@@PEAVTexture@sf@@@std@@PEAX@std@@_N$0A@@?$pair@PEAU?$_Tree_node@U?$pair@$$CBV?$basic_string@DU?$char_traits@D@std@@V?$allocator@D@2@@std@@PEAVTexture@sf@@@std@@PEAX@std@@_N@std@@QEAA@AEBQEAU?$_Tree_node@U?$pair@$$CBV?$basic_string@DU?$char_traits@D@std@@V?$allocator@D@2@@std@@PEAVTexture@sf@@@std@@PEAX@1@$$QEA_N@Z 00000001400356b0     Game.obj
 0002:000096b0       $unwind$??$?0PEAU?$_Tree_node@U?$pair@$$CBV?$basic_string@DU?$char_traits@D@std@@V?$allocator@D@2@@std@@PEAVTexture@sf@@@std@@PEAX@std@@_N$0A@@?$pair@PEAU?$_Tree_node@U?$pair@$$CBV?$basic_string@DU?$char_traits@D@std@@V?$allocator@D@2@@std@@PEAVTexture@sf@@@std@@PEAX@std@@_N@std@@QEAA@$$QEAPEAU?$_Tree_node@U?$pair@$$CBV?$basic_string@DU?$char_traits@D@std@@V?$allocator@D@2@@std@@PEAVTexture@sf@@@std@@PEAX@1@$$QEA_N@Z 00000001400356b0     Game.obj
 0002:000096b0       $unwind$??$_Destroy_range@V?$allocator@PEAVBlueEnemy@@@std@@@std@@YAXPEAPEAVBlueEnemy@@QEAPEAV1@AEAV?$allocator@PEAVBlueEnemy@@@0@@Z 00000001400356b0     Game.obj
 0002:000096b0       $unwind$??$_Destroy_range@V?$allocator@PEAVBullet@@@std@@@std@@YAXPEAPEAVBullet@@QEAPEAV1@AEAV?$allocator@PEAVBullet@@@0@@Z 00000001400356b0     Game.obj
 0002:000096b0       $unwind$??$_Destroy_range@V?$allocator@PEAVEnemies@@@std@@@std@@YAXPEAPEAVEnemies@@QEAPEAV1@AEAV?$allocator@PEAVEnemies@@@0@@Z 00000001400356b0     Game.obj
 0002:000096b0       $unwind$??$_Destroy_range@V?$allocator@PEAVPotion@@@std@@@std@@YAXPEAPEAVPotion@@QEAPEAV1@AEAV?$allocator@PEAVPotion@@@0@@Z 00000001400356b0     Game.obj
 0002:000096b0       $unwind$??$_Destroy_range@V?$allocator@PEAVRedEnemy@@@std@@@std@@YAXPEAPEAVRedEnemy@@QEAPEAV1@AEAV?$allocator@PEAVRedEnemy@@@0@@Z 00000001400356b0     Game.obj
 0002:000096b0       $unwind$??$_Destroy_range@V?$allocator@PEAVShield@@@std@@@std@@YAXPEAPEAVShield@@QEAPEAV1@AEAV?$allocator@PEAVShield@@@0@@Z 00000001400356b0     Game.obj
 0002:000096b0       $unwind$??$_Erase_tree@V?$allocator@U?$_Tree_node@U?$pair@$$CBV?$basic_string@DU?$char_traits@D@std@@V?$allocator@D@2@@std@@PEAVTexture@sf@@@std@@PEAX@std@@@std@@@?$_Tree_val@U?$_Tree_simple_types@U?$pair@$$CBV?$basic_string@DU?$char_traits@D@std@@V?$allocator@D@2@@std@@PEAVTexture@sf@@@std@@@std@@@std@@QEAAXAEAV?$allocator@U?$_Tree_node@U?$pair@$$CBV?$basic_string@DU?$char_traits@D@std@@V?$allocator@D@2@@std@@PEAVTexture@sf@@@std@@PEAX@std@@@1@PEAU?$_Tree_node@U?$pair@$$CBV?$basic_string@DU?$char_traits@D@std@@V?$allocator@D@2@@std@@PEAVTexture@sf@@@std@@PEAX@1@@Z 00000001400356b0     Game.obj
 0002:000096b0       $unwind$??$_Move_backward_unchecked@PEAUNameWithScore@?1??updateAndSaveScore@Game@@QEAAXXZ@PEAU1?1??23@QEAAXXZ@@std@@YAPEAUNameWithScore@?1??updateAndSaveScore@Game@@QEAAXXZ@PEAU1?1??23@QEAAXXZ@00@Z 00000001400356b0     Game.obj
 0002:000096b0       $unwind$??$_Move_unchecked@PEAPEAVBlueEnemy@@PEAPEAV1@@std@@YAPEAPEAVBlueEnemy@@PEAPEAV1@00@Z 00000001400356b0     Game.obj
 0002:000096b0       $unwind$??$_Move_unchecked@PEAPEAVBullet@@PEAPEAV1@@std@@YAPEAPEAVBullet@@PEAPEAV1@00@Z 00000001400356b0     Game.obj
 0002:000096b0       $unwind$??$_Move_unchecked@PEAPEAVEnemies@@PEAPEAV1@@std@@YAPEAPEAVEnemies@@PEAPEAV1@00@Z 00000001400356b0     Game.obj
 0002:000096b0       $unwind$??$_Move_unchecked@PEAPEAVPotion@@PEAPEAV1@@std@@YAPEAPEAVPotion@@PEAPEAV1@00@Z 00000001400356b0     Game.obj
 0002:000096b0       $unwind$??$_Move_unchecked@PEAPEAVRedEnemy@@PEAPEAV1@@std@@YAPEAPEAVRedEnemy@@PEAPEAV1@00@Z 00000001400356b0     Game.obj
 0002:000096b0       $unwind$??$_Move_unchecked@PEAPEAVShield@@PEAPEAV1@@std@@YAPEAPEAVShield@@PEAPEAV1@00@Z 00000001400356b0     Game.obj
 0002:000096b0       $unwind$??$_Sort_heap_unchecked@PEAUNameWithScore@?1??updateAndSaveScore@Game@@QEAAXXZ@V<lambda_7f61bf8b8214578533bd69dcbefb5615>@@@std@@YAXPEAUNameWithScore@?1??updateAndSaveScore@Game@@QEAAXXZ@0V<lambda_7f61bf8b8214578533bd69dcbefb5615>@@@Z 00000001400356b0     Game.obj
 0002:000096b0       $unwind$??0?$_Tree_unchecked_const_iterator@V?$_Tree_val@U?$_Tree_simple_types@U?$pair@$$CBV?$basic_string@DU?$char_traits@D@std@@V?$allocator@D@2@@std@@PEAVTexture@sf@@@std@@@std@@@std@@U_Iterator_base0@2@@std@@QEAA@PEAU?$_Tree_node@U?$pair@$$CBV?$basic_string@DU?$char_traits@D@std@@V?$allocator@D@2@@std@@PEAVTexture@sf@@@std@@PEAX@1@PEBV?$_Tree_val@U?$_Tree_simple_types@U?$pair@$$CBV?$basic_string@DU?$char_traits@D@std@@V?$allocator@D@2@@std@@PEAVTexture@sf@@@std@@@std@@@1@@Z 00000001400356b0     Game.obj
 0002:000096b0       $unwind$??0?$_Tree_unchecked_iterator@V?$_Tree_val@U?$_Tree_simple_types@U?$pair@$$CBV?$basic_string@DU?$char_traits@D@std@@V?$allocator@D@2@@std@@PEAVTexture@sf@@@std@@@std@@@std@@@std@@QEAA@PEAU?$_Tree_node@U?$pair@$$CBV?$basic_string@DU?$char_traits@D@std@@V?$allocator@D@2@@std@@PEAVTexture@sf@@@std@@PEAX@1@PEBV?$_Tree_val@U?$_Tree_simple_types@U?$pair@$$CBV?$basic_string@DU?$char_traits@D@std@@V?$allocator@D@2@@std@@PEAVTexture@sf@@@std@@@std@@@1@@Z 00000001400356b0     Game.obj
 0002:000096b0       $unwind$??0?$_Uninitialized_backout_al@V?$allocator@UNameWithScore@?1??updateAndSaveScore@Game@@QEAAXXZ@@std@@@std@@QEAA@PEAUNameWithScore@?1??updateAndSaveScore@Game@@QEAAXXZ@AEAV?$allocator@UNameWithScore@?1??updateAndSaveScore@Game@@QEAAXXZ@@1@@Z 00000001400356b0     Game.obj
 0002:000096b0       $unwind$??0?$_Uninitialized_backout_al@V?$allocator@V?$basic_string@DU?$char_traits@D@std@@V?$allocator@D@2@@std@@@std@@@std@@QEAA@PEAV?$basic_string@DU?$char_traits@D@std@@V?$allocator@D@2@@1@AEAV?$allocator@V?$basic_string@DU?$char_traits@D@std@@V?$allocator@D@2@@std@@@1@@Z 00000001400356b0     Game.obj
 0002:000096b0       $unwind$??0?$_Uninitialized_backout_al@V?$allocator@V?$vector@V?$basic_string@DU?$char_traits@D@std@@V?$allocator@D@2@@std@@V?$allocator@V?$basic_string@DU?$char_traits@D@std@@V?$allocator@D@2@@std@@@2@@std@@@std@@@std@@QEAA@PEAV?$vector@V?$basic_string@DU?$char_traits@D@std@@V?$allocator@D@2@@std@@V?$allocator@V?$basic_string@DU?$char_traits@D@std@@V?$allocator@D@2@@std@@@2@@1@AEAV?$allocator@V?$vector@V?$basic_string@DU?$char_traits@D@std@@V?$allocator@D@2@@std@@V?$allocator@V?$basic_string@DU?$char_traits@D@std@@V?$allocator@D@2@@std@@@2@@std@@@1@@Z 00000001400356b0     Game.obj
 0002:000096b0       $unwind$??0?$_Vector_const_iterator@V?$_Vector_val@U?$_Simple_types@PEAVBlueEnemy@@@std@@@std@@@std@@QEAA@PEAPEAVBlueEnemy@@PEBU_Container_base12@1@@Z 00000001400356b0     Game.obj
 0002:000096b0       $unwind$??0?$_Vector_const_iterator@V?$_Vector_val@U?$_Simple_types@PEAVBullet@@@std@@@std@@@std@@QEAA@PEAPEAVBullet@@PEBU_Container_base12@1@@Z 00000001400356b0     Game.obj
 0002:000096b0       $unwind$??0?$_Vector_const_iterator@V?$_Vector_val@U?$_Simple_types@PEAVEnemies@@@std@@@std@@@std@@QEAA@PEAPEAVEnemies@@PEBU_Container_base12@1@@Z 00000001400356b0     Game.obj
 0002:000096b0       $unwind$??0?$_Vector_const_iterator@V?$_Vector_val@U?$_Simple_types@PEAVPotion@@@std@@@std@@@std@@QEAA@PEAPEAVPotion@@PEBU_Container_base12@1@@Z 00000001400356b0     Game.obj
 0002:000096b0       $unwind$??0?$_Vector_const_iterator@V?$_Vector_val@U?$_Simple_types@PEAVRedEnemy@@@std@@@std@@@std@@QEAA@PEAPEAVRedEnemy@@PEBU_Container_base12@1@@Z 00000001400356b0     Game.obj
 0002:000096b0       $unwind$??0?$_Vector_const_iterator@V?$_Vector_val@U?$_Simple_types@PEAVShield@@@std@@@std@@@std@@QEAA@PEAPEAVShield@@PEBU_Container_base12@1@@Z 00000001400356b0     Game.obj
 0002:000096b0       $unwind$??0?$_Vector_const_iterator@V?$_Vector_val@U?$_Simple_types@UNameWithScore@?1??updateAndSaveScore@Game@@QEAAXXZ@@std@@@std@@@std@@QEAA@PEAUNameWithScore@?1??updateAndSaveScore@Game@@QEAAXXZ@PEBU_Container_base12@1@@Z 00000001400356b0     Game.obj
 0002:000096b0       $unwind$??0?$_Vector_iterator@V?$_Vector_val@U?$_Simple_types@PEAVBlueEnemy@@@std@@@std@@@std@@QEAA@PEAPEAVBlueEnemy@@PEBU_Container_base12@1@@Z 00000001400356b0     Game.obj
 0002:000096b0       $unwind$??0?$_Vector_iterator@V?$_Vector_val@U?$_Simple_types@PEAVBullet@@@std@@@std@@@std@@QEAA@PEAPEAVBullet@@PEBU_Container_base12@1@@Z 00000001400356b0     Game.obj
 0002:000096b0       $unwind$??0?$_Vector_iterator@V?$_Vector_val@U?$_Simple_types@PEAVEnemies@@@std@@@std@@@std@@QEAA@PEAPEAVEnemies@@PEBU_Container_base12@1@@Z 00000001400356b0     Game.obj
 0002:000096b0       $unwind$??0?$_Vector_iterator@V?$_Vector_val@U?$_Simple_types@PEAVPotion@@@std@@@std@@@std@@QEAA@PEAPEAVPotion@@PEBU_Container_base12@1@@Z 00000001400356b0     Game.obj
 0002:000096b0       $unwind$??0?$_Vector_iterator@V?$_Vector_val@U?$_Simple_types@PEAVRedEnemy@@@std@@@std@@@std@@QEAA@PEAPEAVRedEnemy@@PEBU_Container_base12@1@@Z 00000001400356b0     Game.obj
 0002:000096b0       $unwind$??0?$_Vector_iterator@V?$_Vector_val@U?$_Simple_types@PEAVShield@@@std@@@std@@@std@@QEAA@PEAPEAVShield@@PEBU_Container_base12@1@@Z 00000001400356b0     Game.obj
 0002:000096b0       $unwind$??0?$_Vector_iterator@V?$_Vector_val@U?$_Simple_types@UNameWithScore@?1??updateAndSaveScore@Game@@QEAAXXZ@@std@@@std@@@std@@QEAA@PEAUNameWithScore@?1??updateAndSaveScore@Game@@QEAAXXZ@PEBU_Container_base12@1@@Z 00000001400356b0     Game.obj
 0002:000096b0       $unwind$??0?$fpos@U_Mbstatet@@@std@@QEAA@U_Mbstatet@@_J@Z 00000001400356b0     Game.obj
 0002:000096b0       $unwind$??R?$less@V?$basic_string@DU?$char_traits@D@std@@V?$allocator@D@2@@std@@@std@@QEBA_NAEBV?$basic_string@DU?$char_traits@D@std@@V?$allocator@D@2@@1@0@Z 00000001400356b0     Game.obj
 0002:000096b0       $unwind$?_Destroy@?$vector@PEAVBlueEnemy@@V?$allocator@PEAVBlueEnemy@@@std@@@std@@AEAAXPEAPEAVBlueEnemy@@0@Z 00000001400356b0     Game.obj
 0002:000096b0       $unwind$?_Destroy@?$vector@PEAVBullet@@V?$allocator@PEAVBullet@@@std@@@std@@AEAAXPEAPEAVBullet@@0@Z 00000001400356b0     Game.obj
 0002:000096b0       $unwind$?_Destroy@?$vector@PEAVEnemies@@V?$allocator@PEAVEnemies@@@std@@@std@@AEAAXPEAPEAVEnemies@@0@Z 00000001400356b0     Game.obj
 0002:000096b0       $unwind$?_Destroy@?$vector@PEAVPotion@@V?$allocator@PEAVPotion@@@std@@@std@@AEAAXPEAPEAVPotion@@0@Z 00000001400356b0     Game.obj
 0002:000096b0       $unwind$?_Destroy@?$vector@PEAVRedEnemy@@V?$allocator@PEAVRedEnemy@@@std@@@std@@AEAAXPEAPEAVRedEnemy@@0@Z 00000001400356b0     Game.obj
 0002:000096b0       $unwind$?_Destroy@?$vector@PEAVShield@@V?$allocator@PEAVShield@@@std@@@std@@AEAAXPEAPEAVShield@@0@Z 00000001400356b0     Game.obj
 0002:000096b0       $unwind$?_Destroy@?$vector@UNameWithScore@?1??updateAndSaveScore@Game@@QEAAXXZ@V?$allocator@UNameWithScore@?1??updateAndSaveScore@Game@@QEAAXXZ@@std@@@std@@AEAAXPEAUNameWithScore@?1??updateAndSaveScore@Game@@QEAAXXZ@0@Z 00000001400356b0     Game.obj
 0002:000096b0       $unwind$?_Destroy@?$vector@V?$basic_string@DU?$char_traits@D@std@@V?$allocator@D@2@@std@@V?$allocator@V?$basic_string@DU?$char_traits@D@std@@V?$allocator@D@2@@std@@@2@@std@@AEAAXPEAV?$basic_string@DU?$char_traits@D@std@@V?$allocator@D@2@@2@0@Z 00000001400356b0     Game.obj
 0002:000096b0       $unwind$?_Destroy@?$vector@V?$vector@V?$basic_string@DU?$char_traits@D@std@@V?$allocator@D@2@@std@@V?$allocator@V?$basic_string@DU?$char_traits@D@std@@V?$allocator@D@2@@std@@@2@@std@@V?$allocator@V?$vector@V?$basic_string@DU?$char_traits@D@std@@V?$allocator@D@2@@std@@V?$allocator@V?$basic_string@DU?$char_traits@D@std@@V?$allocator@D@2@@std@@@2@@std@@@2@@std@@AEAAXPEAV?$vector@V?$basic_string@DU?$char_traits@D@std@@V?$allocator@D@2@@std@@V?$allocator@V?$basic_string@DU?$char_traits@D@std@@V?$allocator@D@2@@std@@@2@@2@0@Z 00000001400356b0     Game.obj
 0002:000096b0       $unwind$?_Move_construct@?$vector@V?$basic_string@DU?$char_traits@D@std@@V?$allocator@D@2@@std@@V?$allocator@V?$basic_string@DU?$char_traits@D@std@@V?$allocator@D@2@@std@@@2@@std@@AEAAXAEAV12@U?$integral_constant@_N$00@2@@Z 00000001400356b0     Game.obj
 0002:000096b0       $unwind$?compare@?$_Narrow_char_traits@DH@std@@SAHQEBD0_K@Z 00000001400356b0     Game.obj
 0002:000096b0       $unwind$?deallocate@?$_Default_allocator_traits@V?$allocator@U?$_Tree_node@U?$pair@$$CBV?$basic_string@DU?$char_traits@D@std@@V?$allocator@D@2@@std@@PEAVTexture@sf@@@std@@PEAX@std@@@std@@@std@@SAXAEAV?$allocator@U?$_Tree_node@U?$pair@$$CBV?$basic_string@DU?$char_traits@D@std@@V?$allocator@D@2@@std@@PEAVTexture@sf@@@std@@PEAX@std@@@2@QEAU?$_Tree_node@U?$pair@$$CBV?$basic_string@DU?$char_traits@D@std@@V?$allocator@D@2@@std@@PEAVTexture@sf@@@std@@PEAX@2@_K@Z 00000001400356b0     Game.obj
 0002:000096b0       $unwind$?deallocate@?$allocator@PEAVBlueEnemy@@@std@@QEAAXQEAPEAVBlueEnemy@@_K@Z 00000001400356b0     Game.obj
 0002:000096b0       $unwind$?deallocate@?$allocator@PEAVBullet@@@std@@QEAAXQEAPEAVBullet@@_K@Z 00000001400356b0     Game.obj
 0002:000096b0       $unwind$?deallocate@?$allocator@PEAVEnemies@@@std@@QEAAXQEAPEAVEnemies@@_K@Z 00000001400356b0     Game.obj
 0002:000096b0       $unwind$?deallocate@?$allocator@PEAVPotion@@@std@@QEAAXQEAPEAVPotion@@_K@Z 00000001400356b0     Game.obj
 0002:000096b0       $unwind$?deallocate@?$allocator@PEAVRedEnemy@@@std@@QEAAXQEAPEAVRedEnemy@@_K@Z 00000001400356b0     Game.obj
 0002:000096b0       $unwind$?deallocate@?$allocator@PEAVShield@@@std@@QEAAXQEAPEAVShield@@_K@Z 00000001400356b0     Game.obj
 0002:000096b0       $unwind$?deallocate@?$allocator@U?$_Tree_node@U?$pair@$$CBV?$basic_string@DU?$char_traits@D@std@@V?$allocator@D@2@@std@@PEAVTexture@sf@@@std@@PEAX@std@@@std@@QEAAXQEAU?$_Tree_node@U?$pair@$$CBV?$basic_string@DU?$char_traits@D@std@@V?$allocator@D@2@@std@@PEAVTexture@sf@@@std@@PEAX@2@_K@Z 00000001400356b0     Game.obj
 0002:000096b0       $unwind$?deallocate@?$allocator@UNameWithScore@?1??updateAndSaveScore@Game@@QEAAXXZ@@std@@QEAAXQEAUNameWithScore@?1??updateAndSaveScore@Game@@QEAAXXZ@_K@Z 00000001400356b0     Game.obj
 0002:000096b0       $unwind$?deallocate@?$allocator@V?$basic_string@DU?$char_traits@D@std@@V?$allocator@D@2@@std@@@std@@QEAAXQEAV?$basic_string@DU?$char_traits@D@std@@V?$allocator@D@2@@2@_K@Z 00000001400356b0     Game.obj
 0002:000096b0       $unwind$?deallocate@?$allocator@V?$vector@V?$basic_string@DU?$char_traits@D@std@@V?$allocator@D@2@@std@@V?$allocator@V?$basic_string@DU?$char_traits@D@std@@V?$allocator@D@2@@std@@@2@@std@@@std@@QEAAXQEAV?$vector@V?$basic_string@DU?$char_traits@D@std@@V?$allocator@D@2@@std@@V?$allocator@V?$basic_string@DU?$char_traits@D@std@@V?$allocator@D@2@@std@@@2@@2@_K@Z 00000001400356b0     Game.obj
 0002:000096b0       $unwind$?erase@?$basic_string@DU?$char_traits@D@std@@V?$allocator@D@2@@std@@QEAAAEAV12@_K0@Z 00000001400356b0     Game.obj
 0002:000096b8       $unwind$??$_Allocate@$0BA@U_Default_allocate_traits@std@@$0A@@std@@YAPEAX_K@Z 00000001400356b8     BlueEnemy.obj
 0002:000096b8       $unwind$??$_Convert_size@_K@std@@YA_K_K@Z 00000001400356b8     BlueEnemy.obj
 0002:000096b8       $unwind$??$_Destroy_in_place@PEAD@std@@YAXAEAPEAD@Z 00000001400356b8     BlueEnemy.obj
 0002:000096b8       $unwind$??$_Unfancy@D@std@@YAPEADPEAD@Z 00000001400356b8     BlueEnemy.obj
 0002:000096b8       $unwind$??$_Unfancy@U_Container_proxy@std@@@std@@YAPEAU_Container_proxy@0@PEAU10@@Z 00000001400356b8     BlueEnemy.obj
 0002:000096b8       $unwind$??$addressof@PEAD@std@@YAPEAPEADAEAPEAD@Z 00000001400356b8     BlueEnemy.obj
 0002:000096b8       $unwind$??$addressof@U_Container_base12@std@@@std@@YAPEAU_Container_base12@0@AEAU10@@Z 00000001400356b8     BlueEnemy.obj
 0002:000096b8       $unwind$??$addressof@U_Container_proxy@std@@@std@@YAPEAU_Container_proxy@0@AEAU10@@Z 00000001400356b8     BlueEnemy.obj
 0002:000096b8       $unwind$??$forward@AEBQEAD@std@@YAAEBQEADAEBQEAD@Z 00000001400356b8     BlueEnemy.obj
 0002:000096b8       $unwind$??$forward@PEAU_Container_base12@std@@@std@@YA$$QEAPEAU_Container_base12@0@AEAPEAU10@@Z 00000001400356b8     BlueEnemy.obj
 0002:000096b8       $unwind$??0?$Rect@H@sf@@QEAA@XZ 00000001400356b8     BlueEnemy.obj
 0002:000096b8       $unwind$??0?$_String_val@U?$_Simple_types@D@std@@@std@@QEAA@XZ 00000001400356b8     BlueEnemy.obj
 0002:000096b8       $unwind$??0?$allocator@D@std@@QEAA@XZ 00000001400356b8     BlueEnemy.obj
 0002:000096b8       $unwind$??0_Bxty@?$_String_val@U?$_Simple_types@D@std@@@std@@QEAA@XZ 00000001400356b8     BlueEnemy.obj
 0002:000096b8       $unwind$??0_Container_base12@std@@QEAA@XZ 00000001400356b8     BlueEnemy.obj
 0002:000096b8       $unwind$??0bad_array_new_length@std@@QEAA@XZ 00000001400356b8     BlueEnemy.obj
 0002:000096b8       $unwind$??1?$_Compressed_pair@V?$allocator@D@std@@V?$_String_val@U?$_Simple_types@D@std@@@2@$00@std@@QEAA@XZ 00000001400356b8     BlueEnemy.obj
 0002:000096b8       $unwind$??1?$_Container_proxy_ptr12@V?$allocator@U_Container_proxy@std@@@std@@@std@@QEAA@XZ 00000001400356b8     BlueEnemy.obj
 0002:000096b8       $unwind$??1?$_String_val@U?$_Simple_types@D@std@@@std@@QEAA@XZ 00000001400356b8     BlueEnemy.obj
 0002:000096b8       $unwind$??1BlueEnemy@@UEAA@XZ 00000001400356b8     BlueEnemy.obj
 0002:000096b8       $unwind$??1_Bxty@?$_String_val@U?$_Simple_types@D@std@@@std@@QEAA@XZ 00000001400356b8     BlueEnemy.obj
 0002:000096b8       $unwind$??1bad_alloc@std@@UEAA@XZ 00000001400356b8     BlueEnemy.obj
 0002:000096b8       $unwind$??1bad_array_new_length@std@@UEAA@XZ 00000001400356b8     BlueEnemy.obj
 0002:000096b8       $unwind$??1exception@std@@UEAA@XZ 00000001400356b8     BlueEnemy.obj
 0002:000096b8       $unwind$??Bsentry@?$basic_ostream@DU?$char_traits@D@std@@@std@@QEBA_NXZ 00000001400356b8     BlueEnemy.obj
 0002:000096b8       $unwind$?_Allocate@_Default_allocate_traits@std@@SAPEAX_K@Z 00000001400356b8     BlueEnemy.obj
 0002:000096b8       $unwind$?_Get_first@?$_Compressed_pair@V?$allocator@D@std@@V?$_String_val@U?$_Simple_types@D@std@@@2@$00@std@@QEAAAEAV?$allocator@D@2@XZ 00000001400356b8     BlueEnemy.obj
 0002:000096b8       $unwind$?_Get_first@?$_Compressed_pair@V?$allocator@D@std@@V?$_String_val@U?$_Simple_types@D@std@@@2@$00@std@@QEBAAEBV?$allocator@D@2@XZ 00000001400356b8     BlueEnemy.obj
 0002:000096b8       $unwind$?_Getal@?$basic_string@DU?$char_traits@D@std@@V?$allocator@D@2@@std@@AEAAAEAV?$allocator@D@2@XZ 00000001400356b8     BlueEnemy.obj
 0002:000096b8       $unwind$?_Getal@?$basic_string@DU?$char_traits@D@std@@V?$allocator@D@2@@std@@AEBAAEBV?$allocator@D@2@XZ 00000001400356b8     BlueEnemy.obj
 0002:000096b8       $unwind$?_Release@_Basic_container_proxy_ptr12@std@@QEAAXXZ 00000001400356b8     BlueEnemy.obj
 0002:000096b8       $unwind$?getDamage@BlueEnemy@@QEBAAEBHXZ 00000001400356b8     BlueEnemy.obj
 0002:000096b8       $unwind$?initialVariables@BlueEnemy@@AEAAXXZ 00000001400356b8     BlueEnemy.obj
 0002:000096b8       $unwind$?max_size@?$_Default_allocator_traits@V?$allocator@D@std@@@std@@SA_KAEBV?$allocator@D@2@@Z 00000001400356b8     BlueEnemy.obj
 0002:000096b8       $unwind$?update@BlueEnemy@@QEAAXXZ 00000001400356b8     BlueEnemy.obj
 0002:000096b8       $unwind$?updateMovement@BlueEnemy@@QEAAXXZ 00000001400356b8     BlueEnemy.obj
 0002:000096b8       $unwind$??0?$Vector2@M@sf@@QEAA@XZ 00000001400356b8     Bullet.obj
 0002:000096b8       $unwind$??1Bullet@@UEAA@XZ 00000001400356b8     Bullet.obj
 0002:000096b8       $unwind$??1Enemies@@UEAA@XZ 00000001400356b8     Enemies.obj
 0002:000096b8       $unwind$?getDamage@Enemies@@QEBAAEBHXZ 00000001400356b8     Enemies.obj
 0002:000096b8       $unwind$?getPoints@Enemies@@QEBAAEBHXZ 00000001400356b8     Enemies.obj
 0002:000096b8       $unwind$?initialSprite@Enemies@@AEAAXXZ 00000001400356b8     Enemies.obj
 0002:000096b8       $unwind$?initialVariables@Enemies@@AEAAXXZ 00000001400356b8     Enemies.obj
 0002:000096b8       $unwind$?update@Enemies@@QEAAXXZ 00000001400356b8     Enemies.obj
 0002:000096b8       $unwind$??$_Destroy_in_place@PEAU?$_Tree_node@U?$pair@$$CBV?$basic_string@DU?$char_traits@D@std@@V?$allocator@D@2@@std@@PEAVTexture@sf@@@std@@PEAX@std@@@std@@YAXAEAPEAU?$_Tree_node@U?$pair@$$CBV?$basic_string@DU?$char_traits@D@std@@V?$allocator@D@2@@std@@PEAVTexture@sf@@@std@@PEAX@0@@Z 00000001400356b8     Game.obj
 0002:000096b8       $unwind$??$_Get_unwrapped@AEAPEAD@std@@YAPEADAEAPEAD@Z 00000001400356b8     Game.obj
 0002:000096b8       $unwind$??$_Get_unwrapped@AEBQEAPEAVBlueEnemy@@@std@@YAPEAPEAVBlueEnemy@@AEBQEAPEAV1@@Z 00000001400356b8     Game.obj
 0002:000096b8       $unwind$??$_Get_unwrapped@AEBQEAPEAVBullet@@@std@@YAPEAPEAVBullet@@AEBQEAPEAV1@@Z 00000001400356b8     Game.obj
 0002:000096b8       $unwind$??$_Get_unwrapped@AEBQEAPEAVEnemies@@@std@@YAPEAPEAVEnemies@@AEBQEAPEAV1@@Z 00000001400356b8     Game.obj
 0002:000096b8       $unwind$??$_Get_unwrapped@AEBQEAPEAVPotion@@@std@@YAPEAPEAVPotion@@AEBQEAPEAV1@@Z 00000001400356b8     Game.obj
 0002:000096b8       $unwind$??$_Get_unwrapped@AEBQEAPEAVRedEnemy@@@std@@YAPEAPEAVRedEnemy@@AEBQEAPEAV1@@Z 00000001400356b8     Game.obj
 0002:000096b8       $unwind$??$_Get_unwrapped@AEBQEAPEAVShield@@@std@@YAPEAPEAVShield@@AEBQEAPEAV1@@Z 00000001400356b8     Game.obj
 0002:000096b8       $unwind$??$_Get_unwrapped@AEBQEAUNameWithScore@?1??updateAndSaveScore@Game@@QEAAXXZ@@std@@YAPEAUNameWithScore@?1??updateAndSaveScore@Game@@QEAAXXZ@AEBQEAU1?1??23@QEAAXXZ@@Z 00000001400356b8     Game.obj
 0002:000096b8       $unwind$??$_Get_unwrapped@AEBQEAV?$basic_string@DU?$char_traits@D@std@@V?$allocator@D@2@@std@@@std@@YAPEAV?$basic_string@DU?$char_traits@D@std@@V?$allocator@D@2@@0@AEBQEAV10@@Z 00000001400356b8     Game.obj
 0002:000096b8       $unwind$??$_Get_unwrapped@AEBQEAV?$vector@V?$basic_string@DU?$char_traits@D@std@@V?$allocator@D@2@@std@@V?$allocator@V?$basic_string@DU?$char_traits@D@std@@V?$allocator@D@2@@std@@@2@@std@@@std@@YAPEAV?$vector@V?$basic_string@DU?$char_traits@D@std@@V?$allocator@D@2@@std@@V?$allocator@V?$basic_string@DU?$char_traits@D@std@@V?$allocator@D@2@@std@@@2@@0@AEBQEAV10@@Z 00000001400356b8     Game.obj
 0002:000096b8       $unwind$??$_Get_unwrapped@AEBV?$_Vector_iterator@V?$_Vector_val@U?$_Simple_types@UNameWithScore@?1??updateAndSaveScore@Game@@QEAAXXZ@@std@@@std@@@std@@@std@@YAPEAUNameWithScore@?1??updateAndSaveScore@Game@@QEAAXXZ@AEBV?$_Vector_iterator@V?$_Vector_val@U?$_Simple_types@UNameWithScore@?1??updateAndSaveScore@Game@@QEAAXXZ@@std@@@std@@@0@@Z 00000001400356b8     Game.obj
 0002:000096b8       $unwind$??$_Kfn@$$CBV?$basic_string@DU?$char_traits@D@std@@V?$allocator@D@2@@std@@PEAVTexture@sf@@@?$_Tmap_traits@V?$basic_string@DU?$char_traits@D@std@@V?$allocator@D@2@@std@@PEAVTexture@sf@@U?$less@V?$basic_string@DU?$char_traits@D@std@@V?$allocator@D@2@@std@@@2@V?$allocator@U?$pair@$$CBV?$basic_string@DU?$char_traits@D@std@@V?$allocator@D@2@@std@@PEAVTexture@sf@@@std@@@2@$0A@@std@@SAAEBV?$basic_string@DU?$char_traits@D@std@@V?$allocator@D@2@@1@AEBU?$pair@$$CBV?$basic_string@DU?$char_traits@D@std@@V?$allocator@D@2@@std@@PEAVTexture@sf@@@1@@Z 00000001400356b8     Game.obj
 0002:000096b8       $unwind$??$_Next_iter@PEAUNameWithScore@?1??updateAndSaveScore@Game@@QEAAXXZ@@std@@YAPEAUNameWithScore@?1??updateAndSaveScore@Game@@QEAAXXZ@PEAU1?1??23@QEAAXXZ@@Z 00000001400356b8     Game.obj
 0002:000096b8       $unwind$??$_Prev_iter@PEAUNameWithScore@?1??updateAndSaveScore@Game@@QEAAXXZ@@std@@YAPEAUNameWithScore@?1??updateAndSaveScore@Game@@QEAAXXZ@PEAU1?1??23@QEAAXXZ@@Z 00000001400356b8     Game.obj
 0002:000096b8       $unwind$??$_Unfancy@PEAVBlueEnemy@@@std@@YAPEAPEAVBlueEnemy@@PEAPEAV1@@Z 00000001400356b8     Game.obj
 0002:000096b8       $unwind$??$_Unfancy@PEAVBullet@@@std@@YAPEAPEAVBullet@@PEAPEAV1@@Z 00000001400356b8     Game.obj
 0002:000096b8       $unwind$??$_Unfancy@PEAVEnemies@@@std@@YAPEAPEAVEnemies@@PEAPEAV1@@Z 00000001400356b8     Game.obj
 0002:000096b8       $unwind$??$_Unfancy@PEAVPotion@@@std@@YAPEAPEAVPotion@@PEAPEAV1@@Z 00000001400356b8     Game.obj
 0002:000096b8       $unwind$??$_Unfancy@PEAVRedEnemy@@@std@@YAPEAPEAVRedEnemy@@PEAPEAV1@@Z 00000001400356b8     Game.obj
 0002:000096b8       $unwind$??$_Unfancy@PEAVShield@@@std@@YAPEAPEAVShield@@PEAPEAV1@@Z 00000001400356b8     Game.obj
 0002:000096b8       $unwind$??$_Unfancy@UNameWithScore@?1??updateAndSaveScore@Game@@QEAAXXZ@@std@@YAPEAUNameWithScore@?1??updateAndSaveScore@Game@@QEAAXXZ@PEAU1?1??23@QEAAXXZ@@Z 00000001400356b8     Game.obj
 0002:000096b8       $unwind$??$_Unfancy@V?$basic_string@DU?$char_traits@D@std@@V?$allocator@D@2@@std@@@std@@YAPEAV?$basic_string@DU?$char_traits@D@std@@V?$allocator@D@2@@0@PEAV10@@Z 00000001400356b8     Game.obj
 0002:000096b8       $unwind$??$_Unfancy@V?$vector@V?$basic_string@DU?$char_traits@D@std@@V?$allocator@D@2@@std@@V?$allocator@V?$basic_string@DU?$char_traits@D@std@@V?$allocator@D@2@@std@@@2@@std@@@std@@YAPEAV?$vector@V?$basic_string@DU?$char_traits@D@std@@V?$allocator@D@2@@std@@V?$allocator@V?$basic_string@DU?$char_traits@D@std@@V?$allocator@D@2@@std@@@2@@0@PEAV10@@Z 00000001400356b8     Game.obj
 0002:000096b8       $unwind$??$addressof@$$CBV?$_String_val@U?$_Simple_types@D@std@@@std@@@std@@YAPEBV?$_String_val@U?$_Simple_types@D@std@@@0@AEBV10@@Z 00000001400356b8     Game.obj
 0002:000096b8       $unwind$??$addressof@$$CBV?$_Tree_val@U?$_Tree_simple_types@U?$pair@$$CBV?$basic_string@DU?$char_traits@D@std@@V?$allocator@D@2@@std@@PEAVTexture@sf@@@std@@@std@@@std@@@std@@YAPEBV?$_Tree_val@U?$_Tree_simple_types@U?$pair@$$CBV?$basic_string@DU?$char_traits@D@std@@V?$allocator@D@2@@std@@PEAVTexture@sf@@@std@@@std@@@0@AEBV10@@Z 00000001400356b8     Game.obj
 0002:000096b8       $unwind$??$addressof@$$CBV?$basic_string@DU?$char_traits@D@std@@V?$allocator@D@2@@std@@@std@@YAPEBV?$basic_string@DU?$char_traits@D@std@@V?$allocator@D@2@@0@AEBV10@@Z 00000001400356b8     Game.obj
 0002:000096b8       $unwind$??$addressof@$$CBV?$codecvt@DDU_Mbstatet@@@std@@@std@@YAPEBV?$codecvt@DDU_Mbstatet@@@0@AEBV10@@Z 00000001400356b8     Game.obj
 0002:000096b8       $unwind$??$addressof@D@std@@YAPEADAEAD@Z 00000001400356b8     Game.obj
 0002:000096b8       $unwind$??$addressof@PEAU?$_Tree_node@U?$pair@$$CBV?$basic_string@DU?$char_traits@D@std@@V?$allocator@D@2@@std@@PEAVTexture@sf@@@std@@PEAX@std@@@std@@YAPEAPEAU?$_Tree_node@U?$pair@$$CBV?$basic_string@DU?$char_traits@D@std@@V?$allocator@D@2@@std@@PEAVTexture@sf@@@std@@PEAX@0@AEAPEAU10@@Z 00000001400356b8     Game.obj
 0002:000096b8       $unwind$??$addressof@U?$pair@$$CBV?$basic_string@DU?$char_traits@D@std@@V?$allocator@D@2@@std@@PEAVTexture@sf@@@std@@@std@@YAPEAU?$pair@$$CBV?$basic_string@DU?$char_traits@D@std@@V?$allocator@D@2@@std@@PEAVTexture@sf@@@0@AEAU10@@Z 00000001400356b8     Game.obj
 0002:000096b8       $unwind$??$addressof@V?$_String_val@U?$_Simple_types@D@std@@@std@@@std@@YAPEAV?$_String_val@U?$_Simple_types@D@std@@@0@AEAV10@@Z 00000001400356b8     Game.obj
 0002:000096b8       $unwind$??$addressof@V?$_Tree_val@U?$_Tree_simple_types@U?$pair@$$CBV?$basic_string@DU?$char_traits@D@std@@V?$allocator@D@2@@std@@PEAVTexture@sf@@@std@@@std@@@std@@@std@@YAPEAV?$_Tree_val@U?$_Tree_simple_types@U?$pair@$$CBV?$basic_string@DU?$char_traits@D@std@@V?$allocator@D@2@@std@@PEAVTexture@sf@@@std@@@std@@@0@AEAV10@@Z 00000001400356b8     Game.obj
 0002:000096b8       $unwind$??$addressof@V?$_Vector_val@U?$_Simple_types@PEAVBlueEnemy@@@std@@@std@@@std@@YAPEAV?$_Vector_val@U?$_Simple_types@PEAVBlueEnemy@@@std@@@0@AEAV10@@Z 00000001400356b8     Game.obj
 0002:000096b8       $unwind$??$addressof@V?$_Vector_val@U?$_Simple_types@PEAVBullet@@@std@@@std@@@std@@YAPEAV?$_Vector_val@U?$_Simple_types@PEAVBullet@@@std@@@0@AEAV10@@Z 00000001400356b8     Game.obj
 0002:000096b8       $unwind$??$addressof@V?$_Vector_val@U?$_Simple_types@PEAVEnemies@@@std@@@std@@@std@@YAPEAV?$_Vector_val@U?$_Simple_types@PEAVEnemies@@@std@@@0@AEAV10@@Z 00000001400356b8     Game.obj
 0002:000096b8       $unwind$??$addressof@V?$_Vector_val@U?$_Simple_types@PEAVPotion@@@std@@@std@@@std@@YAPEAV?$_Vector_val@U?$_Simple_types@PEAVPotion@@@std@@@0@AEAV10@@Z 00000001400356b8     Game.obj
 0002:000096b8       $unwind$??$addressof@V?$_Vector_val@U?$_Simple_types@PEAVRedEnemy@@@std@@@std@@@std@@YAPEAV?$_Vector_val@U?$_Simple_types@PEAVRedEnemy@@@std@@@0@AEAV10@@Z 00000001400356b8     Game.obj
 0002:000096b8       $unwind$??$addressof@V?$_Vector_val@U?$_Simple_types@PEAVShield@@@std@@@std@@@std@@YAPEAV?$_Vector_val@U?$_Simple_types@PEAVShield@@@std@@@0@AEAV10@@Z 00000001400356b8     Game.obj
 0002:000096b8       $unwind$??$addressof@V?$_Vector_val@U?$_Simple_types@UNameWithScore@?1??updateAndSaveScore@Game@@QEAAXXZ@@std@@@std@@@std@@YAPEAV?$_Vector_val@U?$_Simple_types@UNameWithScore@?1??updateAndSaveScore@Game@@QEAAXXZ@@std@@@0@AEAV10@@Z 00000001400356b8     Game.obj
 0002:000096b8       $unwind$??$addressof@V?$basic_filebuf@DU?$char_traits@D@std@@@std@@@std@@YAPEAV?$basic_filebuf@DU?$char_traits@D@std@@@0@AEAV10@@Z 00000001400356b8     Game.obj
 0002:000096b8       $unwind$??$addressof@V?$basic_string@DU?$char_traits@D@std@@V?$allocator@D@2@@std@@@std@@YAPEAV?$basic_string@DU?$char_traits@D@std@@V?$allocator@D@2@@0@AEAV10@@Z 00000001400356b8     Game.obj
 0002:000096b8       $unwind$??$addressof@V?$basic_stringbuf@DU?$char_traits@D@std@@V?$allocator@D@2@@std@@@std@@YAPEAV?$basic_stringbuf@DU?$char_traits@D@std@@V?$allocator@D@2@@0@AEAV10@@Z 00000001400356b8     Game.obj
 0002:000096b8       $unwind$??$end@D$0BF@@std@@YAPEADAEAY0BF@D@Z 00000001400356b8     Game.obj
 0002:000096b8       $unwind$??$endl@DU?$char_traits@D@std@@@std@@YAAEAV?$basic_ostream@DU?$char_traits@D@std@@@0@AEAV10@@Z 00000001400356b8     Game.obj
 0002:000096b8       $unwind$??$forward@AEAPEAU?$_Tree_node@U?$pair@$$CBV?$basic_string@DU?$char_traits@D@std@@V?$allocator@D@2@@std@@PEAVTexture@sf@@@std@@PEAX@std@@@std@@YAAEAPEAU?$_Tree_node@U?$pair@$$CBV?$basic_string@DU?$char_traits@D@std@@V?$allocator@D@2@@std@@PEAVTexture@sf@@@std@@PEAX@0@AEAPEAU10@@Z 00000001400356b8     Game.obj
 0002:000096b8       $unwind$??$forward@AEAPEAUNameWithScore@?1??updateAndSaveScore@Game@@QEAAXXZ@@std@@YAAEAPEAUNameWithScore@?1??updateAndSaveScore@Game@@QEAAXXZ@AEAPEAU1?1??23@QEAAXXZ@@Z 00000001400356b8     Game.obj
 0002:000096b8       $unwind$??$forward@AEAPEAV_Facet_base@std@@@std@@YAAEAPEAV_Facet_base@0@AEAPEAV10@@Z 00000001400356b8     Game.obj
 0002:000096b8       $unwind$??$forward@AEAV?$allocator@D@std@@@std@@YAAEAV?$allocator@D@0@AEAV10@@Z 00000001400356b8     Game.obj
 0002:000096b8       $unwind$??$forward@AEAV?$basic_string@DU?$char_traits@D@std@@V?$allocator@D@2@@std@@@std@@YAAEAV?$basic_string@DU?$char_traits@D@std@@V?$allocator@D@2@@0@AEAV10@@Z 00000001400356b8     Game.obj
 0002:000096b8       $unwind$??$forward@AEBQEAU?$_Tree_node@U?$pair@$$CBV?$basic_string@DU?$char_traits@D@std@@V?$allocator@D@2@@std@@PEAVTexture@sf@@@std@@PEAX@std@@@std@@YAAEBQEAU?$_Tree_node@U?$pair@$$CBV?$basic_string@DU?$char_traits@D@std@@V?$allocator@D@2@@std@@PEAVTexture@sf@@@std@@PEAX@0@AEBQEAU10@@Z 00000001400356b8     Game.obj
 0002:000096b8       $unwind$??$forward@AEBU?$less@V?$basic_string@DU?$char_traits@D@std@@V?$allocator@D@2@@std@@@std@@@std@@YAAEBU?$less@V?$basic_string@DU?$char_traits@D@std@@V?$allocator@D@2@@std@@@0@AEBU10@@Z 00000001400356b8     Game.obj
 0002:000096b8       $unwind$??$forward@AEBUNameWithScore@?1??updateAndSaveScore@Game@@QEAAXXZ@@std@@YAAEBUNameWithScore@?1??updateAndSaveScore@Game@@QEAAXXZ@AEBU1?1??23@QEAAXXZ@@Z 00000001400356b8     Game.obj
 0002:000096b8       $unwind$??$forward@AEBUpiecewise_construct_t@std@@@std@@YAAEBUpiecewise_construct_t@0@AEBU10@@Z 00000001400356b8     Game.obj
 0002:000096b8       $unwind$??$forward@AEBV?$allocator@D@std@@@std@@YAAEBV?$allocator@D@0@AEBV10@@Z 00000001400356b8     Game.obj
 0002:000096b8       $unwind$??$forward@AEBV?$vector@V?$basic_string@DU?$char_traits@D@std@@V?$allocator@D@2@@std@@V?$allocator@V?$basic_string@DU?$char_traits@D@std@@V?$allocator@D@2@@std@@@2@@std@@@std@@YAAEBV?$vector@V?$basic_string@DU?$char_traits@D@std@@V?$allocator@D@2@@std@@V?$allocator@V?$basic_string@DU?$char_traits@D@std@@V?$allocator@D@2@@std@@@2@@0@AEBV10@@Z 00000001400356b8     Game.obj
 0002:000096b8       $unwind$??$forward@PEAU?$_Tree_node@U?$pair@$$CBV?$basic_string@DU?$char_traits@D@std@@V?$allocator@D@2@@std@@PEAVTexture@sf@@@std@@PEAX@std@@@std@@YA$$QEAPEAU?$_Tree_node@U?$pair@$$CBV?$basic_string@DU?$char_traits@D@std@@V?$allocator@D@2@@std@@PEAVTexture@sf@@@std@@PEAX@0@AEAPEAU10@@Z 00000001400356b8     Game.obj
 0002:000096b8       $unwind$??$forward@PEAVBlueEnemy@@@std@@YA$$QEAPEAVBlueEnemy@@AEAPEAV1@@Z 00000001400356b8     Game.obj
 0002:000096b8       $unwind$??$forward@PEAVBullet@@@std@@YA$$QEAPEAVBullet@@AEAPEAV1@@Z 00000001400356b8     Game.obj
 0002:000096b8       $unwind$??$forward@PEAVEnemies@@@std@@YA$$QEAPEAVEnemies@@AEAPEAV1@@Z 00000001400356b8     Game.obj
 0002:000096b8       $unwind$??$forward@PEAVPotion@@@std@@YA$$QEAPEAVPotion@@AEAPEAV1@@Z 00000001400356b8     Game.obj
 0002:000096b8       $unwind$??$forward@PEAVRedEnemy@@@std@@YA$$QEAPEAVRedEnemy@@AEAPEAV1@@Z 00000001400356b8     Game.obj
 0002:000096b8       $unwind$??$forward@PEAVShield@@@std@@YA$$QEAPEAVShield@@AEAPEAV1@@Z 00000001400356b8     Game.obj
 0002:000096b8       $unwind$??$forward@UNameWithScore@?1??updateAndSaveScore@Game@@QEAAXXZ@@std@@YA$$QEAUNameWithScore@?1??updateAndSaveScore@Game@@QEAAXXZ@AEAU1?1??23@QEAAXXZ@@Z 00000001400356b8     Game.obj
 0002:000096b8       $unwind$??$forward@U_Zero_then_variadic_args_t@std@@@std@@YA$$QEAU_Zero_then_variadic_args_t@0@AEAU10@@Z 00000001400356b8     Game.obj
 0002:000096b8       $unwind$??$forward@V?$allocator@D@std@@@std@@YA$$QEAV?$allocator@D@0@AEAV10@@Z 00000001400356b8     Game.obj
 0002:000096b8       $unwind$??$forward@V?$allocator@V?$basic_string@DU?$char_traits@D@std@@V?$allocator@D@2@@std@@@std@@@std@@YA$$QEAV?$allocator@V?$basic_string@DU?$char_traits@D@std@@V?$allocator@D@2@@std@@@0@AEAV10@@Z 00000001400356b8     Game.obj
 0002:000096b8       $unwind$??$forward@V?$basic_string@DU?$char_traits@D@std@@V?$allocator@D@2@@std@@@std@@YA$$QEAV?$basic_string@DU?$char_traits@D@std@@V?$allocator@D@2@@0@AEAV10@@Z 00000001400356b8     Game.obj
 0002:000096b8       $unwind$??$forward@V?$tuple@$$QEAV?$basic_string@DU?$char_traits@D@std@@V?$allocator@D@2@@std@@@std@@@std@@YA$$QEAV?$tuple@$$QEAV?$basic_string@DU?$char_traits@D@std@@V?$allocator@D@2@@std@@@0@AEAV10@@Z 00000001400356b8     Game.obj
 0002:000096b8       $unwind$??$forward@V?$tuple@$$V@std@@@std@@YA$$QEAV?$tuple@$$V@0@AEAV10@@Z 00000001400356b8     Game.obj
 0002:000096b8       $unwind$??$forward@V?$vector@V?$basic_string@DU?$char_traits@D@std@@V?$allocator@D@2@@std@@V?$allocator@V?$basic_string@DU?$char_traits@D@std@@V?$allocator@D@2@@std@@@2@@std@@@std@@YA$$QEAV?$vector@V?$basic_string@DU?$char_traits@D@std@@V?$allocator@D@2@@std@@V?$allocator@V?$basic_string@DU?$char_traits@D@std@@V?$allocator@D@2@@std@@@2@@0@AEAV10@@Z 00000001400356b8     Game.obj
 0002:000096b8       $unwind$??$forward@_N@std@@YA$$QEA_NAEA_N@Z 00000001400356b8     Game.obj
 0002:000096b8       $unwind$??$forward_as_tuple@$$V@std@@YA?AV?$tuple@$$V@0@XZ 00000001400356b8     Game.obj
 0002:000096b8       $unwind$??$get@$0A@$$QEAV?$basic_string@DU?$char_traits@D@std@@V?$allocator@D@2@@std@@@std@@YA$$QEAV?$basic_string@DU?$char_traits@D@std@@V?$allocator@D@2@@0@$$QEAV?$tuple@$$QEAV?$basic_string@DU?$char_traits@D@std@@V?$allocator@D@2@@std@@@0@@Z 00000001400356b8     Game.obj
 0002:000096b8       $unwind$??$move@AEAPEAVBlueEnemy@@@std@@YA$$QEAPEAVBlueEnemy@@AEAPEAV1@@Z 00000001400356b8     Game.obj
 0002:000096b8       $unwind$??$move@AEAPEAVBullet@@@std@@YA$$QEAPEAVBullet@@AEAPEAV1@@Z 00000001400356b8     Game.obj
 0002:000096b8       $unwind$??$move@AEAPEAVEnemies@@@std@@YA$$QEAPEAVEnemies@@AEAPEAV1@@Z 00000001400356b8     Game.obj
 0002:000096b8       $unwind$??$move@AEAPEAVPotion@@@std@@YA$$QEAPEAVPotion@@AEAPEAV1@@Z 00000001400356b8     Game.obj
 0002:000096b8       $unwind$??$move@AEAPEAVRedEnemy@@@std@@YA$$QEAPEAVRedEnemy@@AEAPEAV1@@Z 00000001400356b8     Game.obj
 0002:000096b8       $unwind$??$move@AEAPEAVShield@@@std@@YA$$QEAPEAVShield@@AEAPEAV1@@Z 00000001400356b8     Game.obj
 0002:000096b8       $unwind$??$move@AEAUNameWithScore@?1??updateAndSaveScore@Game@@QEAAXXZ@@std@@YA$$QEAUNameWithScore@?1??updateAndSaveScore@Game@@QEAAXXZ@AEAU1?1??23@QEAAXXZ@@Z 00000001400356b8     Game.obj
 0002:000096b8       $unwind$??$move@AEAV?$allocator@D@std@@@std@@YA$$QEAV?$allocator@D@0@AEAV10@@Z 00000001400356b8     Game.obj
 0002:000096b8       $unwind$??$move@AEAV?$allocator@V?$basic_string@DU?$char_traits@D@std@@V?$allocator@D@2@@std@@@std@@@std@@YA$$QEAV?$allocator@V?$basic_string@DU?$char_traits@D@std@@V?$allocator@D@2@@std@@@0@AEAV10@@Z 00000001400356b8     Game.obj
 0002:000096b8       $unwind$??$move@AEAV?$basic_istream@DU?$char_traits@D@std@@@std@@@std@@YA$$QEAV?$basic_istream@DU?$char_traits@D@std@@@0@AEAV10@@Z 00000001400356b8     Game.obj
 0002:000096b8       $unwind$??$move@AEAV?$basic_string@DU?$char_traits@D@std@@V?$allocator@D@2@@std@@@std@@YA$$QEAV?$basic_string@DU?$char_traits@D@std@@V?$allocator@D@2@@0@AEAV10@@Z 00000001400356b8     Game.obj
 0002:000096b8       $unwind$??$move@AEAV?$tuple@$$QEAV?$basic_string@DU?$char_traits@D@std@@V?$allocator@D@2@@std@@@std@@@std@@YA$$QEAV?$tuple@$$QEAV?$basic_string@DU?$char_traits@D@std@@V?$allocator@D@2@@std@@@0@AEAV10@@Z 00000001400356b8     Game.obj
 0002:000096b8       $unwind$??$move@AEAV?$vector@V?$basic_string@DU?$char_traits@D@std@@V?$allocator@D@2@@std@@V?$allocator@V?$basic_string@DU?$char_traits@D@std@@V?$allocator@D@2@@std@@@2@@std@@@std@@YA$$QEAV?$vector@V?$basic_string@DU?$char_traits@D@std@@V?$allocator@D@2@@std@@V?$allocator@V?$basic_string@DU?$char_traits@D@std@@V?$allocator@D@2@@std@@@2@@0@AEAV10@@Z 00000001400356b8     Game.obj
 0002:000096b8       $unwind$??0?$Rect@M@sf@@QEAA@XZ 00000001400356b8     Game.obj
